TN:
SF:/root/project/include/xlnt/cell/cell_reference.hpp
FNL:0,265,270
FNA:0,91123,_ZNKSt4hashIN4xlnt14cell_referenceEEclERKS1_
FNF:1
FNH:1
BRDA:269,0,0,91123
BRDA:269,e0,1,0
BRDA:269,0,2,91123
BRDA:269,e0,3,0
BRF:4
BRH:2
DA:265,91123
DA:269,91123
LF:2
LH:2
end_of_record
TN:
SF:/root/project/include/xlnt/cell/comment.hpp
FNF:0
FNH:0
LF:0
LH:0
end_of_record
TN:
SF:/root/project/include/xlnt/cell/index_types.hpp
FNL:0,302,306
FNA:0,46353,_ZNKSt4hashIN4xlnt8column_tEEclERKS1_
FNF:1
FNH:1
DA:302,46353
DA:305,46353
LF:2
LH:2
end_of_record
TN:
SF:/root/project/include/xlnt/cell/phonetic_run.hpp
FNF:0
FNH:0
LF:0
LH:0
end_of_record
TN:
SF:/root/project/include/xlnt/cell/rich_text.hpp
FNL:0,167,177
FNA:0,11362,_ZNK4xlnt14rich_text_hashclERKNS_9rich_textE
FNL:1,47,47
FNA:1,12582,_ZN4xlnt9rich_textC2Ev
FNF:2
FNH:2
BRDA:171,0,0,11362
BRDA:171,e0,1,0
BRDA:171,0,2,11383
BRDA:171,e0,3,0
BRDA:171,0,4,11383
BRDA:171,0,5,11362
BRF:6
BRH:4
DA:47,12582
DA:167,11362
DA:169,11362
DA:171,22745
DA:173,11383
DA:174,22745
DA:176,11362
LF:7
LH:7
end_of_record
TN:
SF:/root/project/include/xlnt/cell/rich_text_run.hpp
FNF:0
FNH:0
LF:0
LH:0
end_of_record
TN:
SF:/root/project/include/xlnt/drawing/spreadsheet_drawing.hpp
FNF:0
FNH:0
LF:0
LH:0
end_of_record
TN:
SF:/root/project/include/xlnt/packaging/ext_list.hpp
FNL:0,77,81
FNA:0,0,_ZN4xlnteqERKNS_8ext_list3extES3_
FNF:1
FNH:0
BRDA:80,0,0,-
BRDA:80,0,1,-
BRDA:80,0,2,-
BRDA:80,0,3,-
BRF:4
BRH:0
DA:77,0
DA:79,0
DA:80,0
LF:3
LH:0
end_of_record
TN:
SF:/root/project/include/xlnt/packaging/manifest.hpp
FNF:0
FNH:0
LF:0
LH:0
end_of_record
TN:
SF:/root/project/include/xlnt/packaging/relationship.hpp
FNF:0
FNH:0
LF:0
LH:0
end_of_record
TN:
SF:/root/project/include/xlnt/packaging/uri.hpp
FNF:0
FNH:0
LF:0
LH:0
end_of_record
TN:
SF:/root/project/include/xlnt/styles/alignment.hpp
FNF:0
FNH:0
LF:0
LH:0
end_of_record
TN:
SF:/root/project/include/xlnt/styles/border.hpp
FNF:0
FNH:0
LF:0
LH:0
end_of_record
TN:
SF:/root/project/include/xlnt/styles/color.hpp
FNF:0
FNH:0
LF:0
LH:0
end_of_record
TN:
SF:/root/project/include/xlnt/styles/conditional_format.hpp
FNL:0,56,59
FNA:0,0,_ZNK4xlnt9conditioneqERKS0_
FNF:1
FNH:0
DA:56,0
DA:58,0
LF:2
LH:0
end_of_record
TN:
SF:/root/project/include/xlnt/styles/fill.hpp
FNF:0
FNH:0
LF:0
LH:0
end_of_record
TN:
SF:/root/project/include/xlnt/styles/font.hpp
FNF:0
FNH:0
LF:0
LH:0
end_of_record
TN:
SF:/root/project/include/xlnt/styles/number_format.hpp
FNF:0
FNH:0
LF:0
LH:0
end_of_record
TN:
SF:/root/project/include/xlnt/utils/date.hpp
FNL:0,59,59
FNA:0,0,_ZN4xlnt4dateC2Ev
FNL:1,95,98
FNA:1,100,_ZNK4xlnt4date7is_nullEv
FNF:2
FNH:1
DA:59,0
DA:95,100
DA:97,100
LF:3
LH:2
end_of_record
TN:
SF:/root/project/include/xlnt/utils/exceptions.hpp
FNL:0,111,111
FNA:0,11,_ZN4xlnt19invalid_sheet_titleC2ERKS0_
FNL:1,134,134
FNA:1,1,_ZN4xlnt12invalid_fileC2ERKS0_
FNL:2,157,157
FNA:2,29,_ZN4xlnt17illegal_characterC2ERKS0_
FNL:3,201,201
FNA:3,4,_ZN4xlnt20invalid_column_indexC2ERKS0_
FNL:4,228,228
FNA:4,3,_ZN4xlnt22invalid_cell_referenceC2ERKS0_
FNL:5,250,250
FNA:5,21,_ZN4xlnt17invalid_attributeC2ERKS0_
FNL:6,272,272
FNA:6,9,_ZN4xlnt13key_not_foundC2ERKS0_
FNL:7,50,50
FNA:7,111,_ZN4xlnt9exceptionC2ERKS0_
FNL:8,89,89
FNA:8,8,_ZN4xlnt17invalid_parameterC2ERKS0_
FNF:9
FNH:9
BRDA:50,0,0,111
BRDA:50,e0,1,0
BRF:2
BRH:1
DA:50,111
DA:89,8
DA:111,11
DA:134,1
DA:157,29
DA:201,4
DA:228,3
DA:250,21
DA:272,9
LF:9
LH:9
end_of_record
TN:
SF:/root/project/include/xlnt/utils/numeric.hpp
FNL:0,41,44
FNA:0,12571,_ZN4xlnt6detail3absIdEET_S2_
FNA:0,8,_ZN4xlnt6detail3absIfEET_S2_
FNA:0,3,_ZN4xlnt6detail3absIiEET_S2_
FNL:1,50,53
FNA:1,12568,_ZN4xlnt6detail3maxIddEENSt11common_typeIJT_T0_EE4typeES3_S4_
FNA:1,3,_ZN4xlnt6detail3maxIdiEENSt11common_typeIJT_T0_EE4typeES3_S4_
FNA:1,8,_ZN4xlnt6detail3maxIffEENSt11common_typeIJT_T0_EE4typeES3_S4_
FNA:1,3,_ZN4xlnt6detail3maxIidEENSt11common_typeIJT_T0_EE4typeES3_S4_
FNA:1,6,_ZN4xlnt6detail3maxIiiEENSt11common_typeIJT_T0_EE4typeES3_S4_
FNL:2,59,62
FNA:2,3,_ZN4xlnt6detail3minIdiEENSt11common_typeIJT_T0_EE4typeES3_S4_
FNA:2,3,_ZN4xlnt6detail3minIidEENSt11common_typeIJT_T0_EE4typeES3_S4_
FNA:2,6,_ZN4xlnt6detail3minIiiEENSt11common_typeIJT_T0_EE4typeES3_S4_
FNL:3,75,103
FNA:3,4,_ZN4xlnt6detail12float_equalsIdddEEbRKT0_RKT1_i
FNA:3,9,_ZN4xlnt6detail12float_equalsIddfEEbRKT0_RKT1_i
FNA:3,6266,_ZN4xlnt6detail12float_equalsIfddEEbRKT0_RKT1_i
FNA:3,5,_ZN4xlnt6detail12float_equalsIfdfEEbRKT0_RKT1_i
FNA:3,4,_ZN4xlnt6detail12float_equalsIfffEEbRKT0_RKT1_i
FNF:4
FNH:4
BRDA:43,0,0,21
BRDA:43,0,1,12558
BRDA:52,0,0,99
BRDA:52,0,1,12489
BRDA:61,0,0,6
BRDA:61,0,1,6
BRDA:87,0,0,6288
BRDA:87,0,1,0
BRDA:87,0,2,0
BRDA:87,0,3,6288
BRDA:87,0,4,0
BRDA:87,0,5,6288
BRDA:102,0,0,6274
BRDA:102,0,1,14
BRDA:102,0,2,6267
BRDA:102,0,3,7
BRF:16
BRH:13
DA:41,12582
DA:43,12582
DA:50,12588
DA:52,12588
DA:59,12
DA:61,12
DA:75,6288
DA:87,6288
DA:89,0
DA:94,6288
DA:99,6288
DA:102,6288
LF:12
LH:11
end_of_record
TN:
SF:/root/project/include/xlnt/utils/optional.hpp
FNL:0,105,112
FNA:0,1,_ZN4xlnt8optionalIN12_GLOBAL__N_111alive_countEEC2ERKS3_
FNA:0,96,_ZN4xlnt8optionalINS_10paper_sizeEEC2ERKS2_
FNA:0,96,_ZN4xlnt8optionalINS_11orientationEEC2ERKS2_
FNA:0,155,_ZN4xlnt8optionalINS_11phonetic_pr13phonetic_typeEEC2ERKS3_
FNA:0,155,_ZN4xlnt8optionalINS_11phonetic_pr5alignEEC2ERKS3_
FNA:0,38574,_ZN4xlnt8optionalINS_12border_styleEEC2ERKS2_
FNA:0,717,_ZN4xlnt8optionalINS_14cell_referenceEEC2ERKS2_
FNA:0,854,_ZN4xlnt8optionalINS_18diagonal_directionEEC2ERKS2_
FNA:0,243,_ZN4xlnt8optionalINS_18vertical_alignmentEEC2ERKS2_
FNA:0,193,_ZN4xlnt8optionalINS_20horizontal_alignmentEEC2ERKS2_
FNA:0,40061,_ZN4xlnt8optionalINS_4fontEEC2ERKS2_
FNA:0,421,_ZN4xlnt8optionalINS_4paneEEC2ERKS2_
FNA:0,60802,_ZN4xlnt8optionalINS_5colorEEC2ERKS2_
FNA:0,30298,_ZN4xlnt8optionalINS_6border15border_propertyEEC2ERKS3_
FNA:0,11502,_ZN4xlnt8optionalINS_6detail14hyperlink_implEEC2ERKS3_
FNA:0,19582,_ZN4xlnt8optionalINSt7__cxx1112basic_stringIcSt11char_traitsIcESaIcEEEEC2ERKS7_
FNA:0,11502,_ZN4xlnt8optionalIPNS_6detail11format_implEEC2ERKS4_
FNA:0,11502,_ZN4xlnt8optionalIPNS_7commentEEC2ERKS3_
FNA:0,10,_ZN4xlnt8optionalISt4pairINS_8column_tES2_EEC2ERKS4_
FNA:0,10,_ZN4xlnt8optionalISt4pairIjjEEC2ERKS3_
FNA:0,27217,_ZN4xlnt8optionalIbEC2ERKS1_
FNA:0,19091,_ZN4xlnt8optionalIdEC2ERKS1_
FNA:0,1212,_ZN4xlnt8optionalIiEC2ERKS1_
FNA:0,32546,_ZN4xlnt8optionalImEC2ERKS1_
FNL:1,118,126
FNA:1,1,_ZN4xlnt8optionalIN12_GLOBAL__N_111alive_countEEC2EOS3_
FNA:1,10,_ZN4xlnt8optionalINS_12border_styleEEC2EOS2_
FNA:1,12,_ZN4xlnt8optionalINS_14cell_referenceEEC2EOS2_
FNA:1,184,_ZN4xlnt8optionalINS_18diagonal_directionEEC2EOS2_
FNA:1,655,_ZN4xlnt8optionalINS_18vertical_alignmentEEC2EOS2_
FNA:1,655,_ZN4xlnt8optionalINS_20horizontal_alignmentEEC2EOS2_
FNA:1,42,_ZN4xlnt8optionalINS_4fontEEC2EOS2_
FNA:1,0,_ZN4xlnt8optionalINS_4paneEEC2EOS2_
FNA:1,2609,_ZN4xlnt8optionalINS_5colorEEC2EOS2_
FNA:1,1288,_ZN4xlnt8optionalINS_6border15border_propertyEEC2EOS3_
FNA:1,2046,_ZN4xlnt8optionalINS_6detail14hyperlink_implEEC2EOS3_
FNA:1,102,_ZN4xlnt8optionalINS_9rich_textEEC2EOS2_
FNA:1,11404,_ZN4xlnt8optionalINSt7__cxx1112basic_stringIcSt11char_traitsIcESaIcEEEEC2EOS7_
FNA:1,2046,_ZN4xlnt8optionalIPNS_6detail11format_implEEC2EOS4_
FNA:1,2046,_ZN4xlnt8optionalIPNS_7commentEEC2EOS3_
FNA:1,17920,_ZN4xlnt8optionalIbEC2EOS1_
FNA:1,15019,_ZN4xlnt8optionalIdEC2EOS1_
FNA:1,1312,_ZN4xlnt8optionalIiEC2EOS1_
FNA:1,21047,_ZN4xlnt8optionalImEC2EOS1_
FNL:2,132,143
FNA:2,1,_ZN4xlnt8optionalIN12_GLOBAL__N_111alive_countEEaSERKS3_
FNA:2,296,_ZN4xlnt8optionalINS_10page_setupEEaSERKS2_
FNA:2,0,_ZN4xlnt8optionalINS_10paper_sizeEEaSERKS2_
FNA:2,0,_ZN4xlnt8optionalINS_11orientationEEaSERKS2_
FNA:2,0,_ZN4xlnt8optionalINS_11phonetic_pr13phonetic_typeEEaSERKS3_
FNA:2,0,_ZN4xlnt8optionalINS_11phonetic_pr5alignEEaSERKS3_
FNA:2,18278,_ZN4xlnt8optionalINS_11phonetic_prEEaSERKS2_
FNA:2,0,_ZN4xlnt8optionalINS_12border_styleEEaSERKS2_
FNA:2,296,_ZN4xlnt8optionalINS_12page_marginsEEaSERKS2_
FNA:2,296,_ZN4xlnt8optionalINS_13header_footerEEaSERKS2_
FNA:2,296,_ZN4xlnt8optionalINS_13print_optionsEEaSERKS2_
FNA:2,196,_ZN4xlnt8optionalINS_13workbook_viewEEaSERKS2_
FNA:2,0,_ZN4xlnt8optionalINS_14cell_referenceEEaSERKS2_
FNA:2,592,_ZN4xlnt8optionalINS_15range_referenceEEaSERKS2_
FNA:2,0,_ZN4xlnt8optionalINS_4fontEEaSERKS2_
FNA:2,0,_ZN4xlnt8optionalINS_4paneEEaSERKS2_
FNA:2,5,_ZN4xlnt8optionalINS_5colorEEaSERKS2_
FNA:2,196,_ZN4xlnt8optionalINS_5themeEEaSERKS2_
FNA:2,196,_ZN4xlnt8optionalINS_6detail13workbook_impl14file_version_tEEaSERKS4_
FNA:2,41,_ZN4xlnt8optionalINS_6detail14hyperlink_implEEaSERKS3_
FNA:2,296,_ZN4xlnt8optionalINS_8ext_listEEaSERKS2_
FNA:2,296,_ZN4xlnt8optionalINS_8sheet_prEEaSERKS2_
FNA:2,567,_ZN4xlnt8optionalINSt7__cxx1112basic_stringIcSt11char_traitsIcESaIcEEEEaSERKS7_
FNA:2,41,_ZN4xlnt8optionalIPNS_6detail11format_implEEaSERKS4_
FNA:2,40,_ZN4xlnt8optionalIPNS_7commentEEaSERKS3_
FNA:2,296,_ZN4xlnt8optionalISt4pairINS_8column_tES2_EEaSERKS4_
FNA:2,296,_ZN4xlnt8optionalISt4pairIjjEEaSERKS3_
FNA:2,10687,_ZN4xlnt8optionalIbEaSERKS1_
FNA:2,44771,_ZN4xlnt8optionalIdEaSERKS1_
FNA:2,4,_ZN4xlnt8optionalIiEaSERKS1_
FNA:2,52653,_ZN4xlnt8optionalImEaSERKS1_
FNL:3,149,161
FNA:3,1,_ZN4xlnt8optionalIN12_GLOBAL__N_111alive_countEEaSEOS3_
FNA:3,0,_ZN4xlnt8optionalINS_12border_styleEEaSEOS2_
FNA:3,0,_ZN4xlnt8optionalINS_18diagonal_directionEEaSEOS2_
FNA:3,0,_ZN4xlnt8optionalINS_18vertical_alignmentEEaSEOS2_
FNA:3,0,_ZN4xlnt8optionalINS_20horizontal_alignmentEEaSEOS2_
FNA:3,12,_ZN4xlnt8optionalINS_4fontEEaSEOS2_
FNA:3,921,_ZN4xlnt8optionalINS_5colorEEaSEOS2_
FNA:3,0,_ZN4xlnt8optionalINS_6border15border_propertyEEaSEOS3_
FNA:3,0,_ZN4xlnt8optionalINS_9rich_textEEaSEOS2_
FNA:3,38,_ZN4xlnt8optionalINSt7__cxx1112basic_stringIcSt11char_traitsIcESaIcEEEEaSEOS7_
FNA:3,0,_ZN4xlnt8optionalIbEaSEOS1_
FNA:3,1345,_ZN4xlnt8optionalIdEaSEOS1_
FNA:3,2,_ZN4xlnt8optionalIiEaSEOS1_
FNA:3,4990,_ZN4xlnt8optionalImEaSEOS1_
FNL:4,166,169
FNA:4,3,_ZN4xlnt8optionalI2tmED2Ev
FNA:4,1,_ZN4xlnt8optionalIN12_GLOBAL__N_110no_defaultEED2Ev
FNA:4,9,_ZN4xlnt8optionalIN12_GLOBAL__N_111alive_countEED2Ev
FNA:4,1,_ZN4xlnt8optionalIN12_GLOBAL__N_111convertibleEED2Ev
FNA:4,705,_ZN4xlnt8optionalINS_10page_setupEED2Ev
FNA:4,123,_ZN4xlnt8optionalINS_10paper_sizeEED2Ev
FNA:4,123,_ZN4xlnt8optionalINS_11orientationEED2Ev
FNA:4,202,_ZN4xlnt8optionalINS_11phonetic_pr13phonetic_typeEED2Ev
FNA:4,202,_ZN4xlnt8optionalINS_11phonetic_pr5alignEED2Ev
FNA:4,41446,_ZN4xlnt8optionalINS_11phonetic_prEED2Ev
FNA:4,40735,_ZN4xlnt8optionalINS_12border_styleEED2Ev
FNA:4,705,_ZN4xlnt8optionalINS_12page_marginsEED2Ev
FNA:4,705,_ZN4xlnt8optionalINS_13header_footerEED2Ev
FNA:4,705,_ZN4xlnt8optionalINS_13print_optionsEED2Ev
FNA:4,445,_ZN4xlnt8optionalINS_13workbook_viewEED2Ev
FNA:4,1208,_ZN4xlnt8optionalINS_14cell_referenceEED2Ev
FNA:4,1410,_ZN4xlnt8optionalINS_15range_referenceEED2Ev
FNA:4,1472,_ZN4xlnt8optionalINS_18diagonal_directionEED2Ev
FNA:4,1374,_ZN4xlnt8optionalINS_18vertical_alignmentEED2Ev
FNA:4,1324,_ZN4xlnt8optionalINS_20horizontal_alignmentEED2Ev
FNA:4,445,_ZN4xlnt8optionalINS_22calculation_propertiesEED2Ev
FNA:4,51326,_ZN4xlnt8optionalINS_4fontEED2Ev
FNA:4,782,_ZN4xlnt8optionalINS_4paneEED2Ev
FNA:4,46558,_ZN4xlnt8optionalINS_5colorEED2Ev
FNA:4,445,_ZN4xlnt8optionalINS_5themeEED2Ev
FNA:4,34624,_ZN4xlnt8optionalINS_6border15border_propertyEED2Ev
FNA:4,445,_ZN4xlnt8optionalINS_6detail10stylesheetEED2Ev
FNA:4,445,_ZN4xlnt8optionalINS_6detail13workbook_impl14file_version_tEED2Ev
FNA:4,25220,_ZN4xlnt8optionalINS_6detail14hyperlink_implEED2Ev
FNA:4,705,_ZN4xlnt8optionalINS_7drawing19spreadsheet_drawingEED2Ev
FNA:4,1150,_ZN4xlnt8optionalINS_8ext_listEED2Ev
FNA:4,705,_ZN4xlnt8optionalINS_8sheet_prEED2Ev
FNA:4,204,_ZN4xlnt8optionalINS_9rich_textEED2Ev
FNA:4,50426,_ZN4xlnt8optionalINSt7__cxx1112basic_stringIcSt11char_traitsIcESaIcEEEED2Ev
FNA:4,25220,_ZN4xlnt8optionalIPNS_6detail11format_implEED2Ev
FNA:4,25220,_ZN4xlnt8optionalIPNS_7commentEED2Ev
FNA:4,715,_ZN4xlnt8optionalISt4pairINS_8column_tES2_EED2Ev
FNA:4,715,_ZN4xlnt8optionalISt4pairIjjEED2Ev
FNA:4,108,_ZN4xlnt8optionalISt5arrayINS0_INS_9rich_textEEELm3EEED2Ev
FNA:4,54771,_ZN4xlnt8optionalIbED2Ev
FNA:4,121035,_ZN4xlnt8optionalIdED2Ev
FNA:4,4164,_ZN4xlnt8optionalIiED2Ev
FNA:4,177526,_ZN4xlnt8optionalImED2Ev
FNL:5,175,178
FNA:5,3,_ZNK4xlnt8optionalI2tmE6is_setEv
FNA:5,1,_ZNK4xlnt8optionalIN12_GLOBAL__N_111convertibleEE6is_setEv
FNA:5,244,_ZNK4xlnt8optionalINS_10page_setupEE6is_setEv
FNA:5,9,_ZNK4xlnt8optionalINS_10paper_sizeEE6is_setEv
FNA:5,9,_ZNK4xlnt8optionalINS_11orientationEE6is_setEv
FNA:5,8,_ZNK4xlnt8optionalINS_11phonetic_pr13phonetic_typeEE6is_setEv
FNA:5,8,_ZNK4xlnt8optionalINS_11phonetic_pr5alignEE6is_setEv
FNA:5,509,_ZNK4xlnt8optionalINS_11phonetic_prEE6is_setEv
FNA:5,11970,_ZNK4xlnt8optionalINS_12border_styleEE6is_setEv
FNA:5,57,_ZNK4xlnt8optionalINS_12page_marginsEE6is_setEv
FNA:5,57,_ZNK4xlnt8optionalINS_13header_footerEE6is_setEv
FNA:5,56,_ZNK4xlnt8optionalINS_13print_optionsEE6is_setEv
FNA:5,196,_ZNK4xlnt8optionalINS_13workbook_viewEE6is_setEv
FNA:5,93,_ZNK4xlnt8optionalINS_14cell_referenceEE6is_setEv
FNA:5,174,_ZNK4xlnt8optionalINS_15range_referenceEE6is_setEv
FNA:5,88,_ZNK4xlnt8optionalINS_18diagonal_directionEE6is_setEv
FNA:5,143,_ZNK4xlnt8optionalINS_18vertical_alignmentEE6is_setEv
FNA:5,143,_ZNK4xlnt8optionalINS_20horizontal_alignmentEE6is_setEv
FNA:5,47,_ZNK4xlnt8optionalINS_22calculation_propertiesEE6is_setEv
FNA:5,589,_ZNK4xlnt8optionalINS_4fontEE6is_setEv
FNA:5,64,_ZNK4xlnt8optionalINS_4paneEE6is_setEv
FNA:5,22995,_ZNK4xlnt8optionalINS_5colorEE6is_setEv
FNA:5,1,_ZNK4xlnt8optionalINS_5themeEE6is_setEv
FNA:5,16811,_ZNK4xlnt8optionalINS_6border15border_propertyEE6is_setEv
FNA:5,56,_ZNK4xlnt8optionalINS_6detail10stylesheetEE6is_setEv
FNA:5,47,_ZNK4xlnt8optionalINS_6detail13workbook_impl14file_version_tEE6is_setEv
FNA:5,11229,_ZNK4xlnt8optionalINS_6detail14hyperlink_implEE6is_setEv
FNA:5,5,_ZNK4xlnt8optionalINS_7drawing19spreadsheet_drawingEE6is_setEv
FNA:5,56,_ZNK4xlnt8optionalINS_8ext_listEE6is_setEv
FNA:5,56,_ZNK4xlnt8optionalINS_8sheet_prEE6is_setEv
FNA:5,102,_ZNK4xlnt8optionalINS_9rich_textEE6is_setEv
FNA:5,22581,_ZNK4xlnt8optionalINSt7__cxx1112basic_stringIcSt11char_traitsIcESaIcEEEE6is_setEv
FNA:5,13799,_ZNK4xlnt8optionalIPNS_6detail11format_implEE6is_setEv
FNA:5,11329,_ZNK4xlnt8optionalIPNS_7commentEE6is_setEv
FNA:5,65,_ZNK4xlnt8optionalISt4pairINS_8column_tES2_EE6is_setEv
FNA:5,61,_ZNK4xlnt8optionalISt4pairIjjEE6is_setEv
FNA:5,108,_ZNK4xlnt8optionalISt5arrayINS0_INS_9rich_textEEELm3EEE6is_setEv
FNA:5,3450,_ZNK4xlnt8optionalIbE6is_setEv
FNA:5,59333,_ZNK4xlnt8optionalIdE6is_setEv
FNA:5,382,_ZNK4xlnt8optionalIiE6is_setEv
FNA:5,226488,_ZNK4xlnt8optionalImE6is_setEv
FNL:6,183,201
FNA:6,3,_ZN4xlnt8optionalI2tmE3setERKS1_
FNA:6,1,_ZN4xlnt8optionalIN12_GLOBAL__N_111alive_countEE3setERKS2_
FNA:6,25,_ZN4xlnt8optionalINS_10page_setupEE3setERKS1_
FNA:6,18,_ZN4xlnt8optionalINS_10paper_sizeEE3setERKS1_
FNA:6,0,_ZN4xlnt8optionalINS_11orientationEE3setERKS1_
FNA:6,43,_ZN4xlnt8optionalINS_11phonetic_pr13phonetic_typeEE3setERKS2_
FNA:6,1,_ZN4xlnt8optionalINS_11phonetic_pr5alignEE3setERKS2_
FNA:6,155,_ZN4xlnt8optionalINS_11phonetic_prEE3setERKS1_
FNA:6,259,_ZN4xlnt8optionalINS_12border_styleEE3setERKS1_
FNA:6,357,_ZN4xlnt8optionalINS_12page_marginsEE3setERKS1_
FNA:6,18,_ZN4xlnt8optionalINS_13header_footerEE3setERKS1_
FNA:6,12,_ZN4xlnt8optionalINS_13print_optionsEE3setERKS1_
FNA:6,334,_ZN4xlnt8optionalINS_13workbook_viewEE3setERKS1_
FNA:6,83,_ZN4xlnt8optionalINS_14cell_referenceEE3setERKS1_
FNA:6,2,_ZN4xlnt8optionalINS_15range_referenceEE3setERKS1_
FNA:6,1,_ZN4xlnt8optionalINS_18diagonal_directionEE3setERKS1_
FNA:6,399,_ZN4xlnt8optionalINS_18vertical_alignmentEE3setERKS1_
FNA:6,114,_ZN4xlnt8optionalINS_20horizontal_alignmentEE3setERKS1_
FNA:6,331,_ZN4xlnt8optionalINS_22calculation_propertiesEE3setERKS1_
FNA:6,6,_ZN4xlnt8optionalINS_4fontEE3setERKS1_
FNA:6,10,_ZN4xlnt8optionalINS_4paneEE3setERKS1_
FNA:6,1716,_ZN4xlnt8optionalINS_5colorEE3setERKS1_
FNA:6,323,_ZN4xlnt8optionalINS_5themeEE3setERKS1_
FNA:6,2151,_ZN4xlnt8optionalINS_6border15border_propertyEE3setERKS2_
FNA:6,328,_ZN4xlnt8optionalINS_6detail13workbook_impl14file_version_tEE3setERKS3_
FNA:6,7,_ZN4xlnt8optionalINS_6detail14hyperlink_implEE3setERKS2_
FNA:6,3,_ZN4xlnt8optionalINS_7drawing19spreadsheet_drawingEE3setERKS2_
FNA:6,4,_ZN4xlnt8optionalINS_8ext_listEE3setERKS1_
FNA:6,24,_ZN4xlnt8optionalINS_8sheet_prEE3setERKS1_
FNA:6,50,_ZN4xlnt8optionalINS_9rich_textEE3setERKS1_
FNA:6,3443,_ZN4xlnt8optionalINSt7__cxx1112basic_stringIcSt11char_traitsIcESaIcEEEE3setERKS6_
FNA:6,349,_ZN4xlnt8optionalIPNS_6detail11format_implEE3setERKS3_
FNA:6,0,_ZN4xlnt8optionalIPNS_7commentEE3setERKS2_
FNA:6,0,_ZN4xlnt8optionalISt4pairINS_8column_tES2_EE3setERKS3_
FNA:6,0,_ZN4xlnt8optionalISt4pairIjjEE3setERKS2_
FNA:6,2225,_ZN4xlnt8optionalIbE3setERKb
FNA:6,88447,_ZN4xlnt8optionalIdE3setERKd
FNA:6,81,_ZN4xlnt8optionalIiE3setERKi
FNA:6,138366,_ZN4xlnt8optionalImE3setERKm
FNL:7,206,228
FNA:7,3,_ZN4xlnt8optionalIN12_GLOBAL__N_111alive_countEE3setEOS2_
FNA:7,26,_ZN4xlnt8optionalINS_11orientationEE3setEOS1_
FNA:7,0,_ZN4xlnt8optionalINS_12border_styleEE3setEOS1_
FNA:7,3,_ZN4xlnt8optionalINS_14cell_referenceEE3setEOS1_
FNA:7,2,_ZN4xlnt8optionalINS_15range_referenceEE3setEOS1_
FNA:7,0,_ZN4xlnt8optionalINS_18diagonal_directionEE3setEOS1_
FNA:7,0,_ZN4xlnt8optionalINS_18vertical_alignmentEE3setEOS1_
FNA:7,0,_ZN4xlnt8optionalINS_20horizontal_alignmentEE3setEOS1_
FNA:7,91,_ZN4xlnt8optionalINS_4fontEE3setEOS1_
FNA:7,876,_ZN4xlnt8optionalINS_5colorEE3setEOS1_
FNA:7,0,_ZN4xlnt8optionalINS_6border15border_propertyEE3setEOS2_
FNA:7,335,_ZN4xlnt8optionalINS_6detail10stylesheetEE3setEOS2_
FNA:7,44,_ZN4xlnt8optionalINS_6detail14hyperlink_implEE3setEOS2_
FNA:7,0,_ZN4xlnt8optionalINS_9rich_textEE3setEOS1_
FNA:7,93,_ZN4xlnt8optionalINSt7__cxx1112basic_stringIcSt11char_traitsIcESaIcEEEE3setEOS6_
FNA:7,850,_ZN4xlnt8optionalIPNS_6detail11format_implEE3setEOS3_
FNA:7,34,_ZN4xlnt8optionalIPNS_7commentEE3setEOS2_
FNA:7,2,_ZN4xlnt8optionalISt4pairINS_8column_tES2_EE3setEOS3_
FNA:7,2,_ZN4xlnt8optionalISt4pairIjjEE3setEOS2_
FNA:7,34,_ZN4xlnt8optionalISt5arrayINS0_INS_9rich_textEEELm3EEE3setEOS4_
FNA:7,3241,_ZN4xlnt8optionalIbE3setEOb
FNA:7,2137,_ZN4xlnt8optionalIdE3setEOd
FNA:7,659,_ZN4xlnt8optionalIiE3setEOi
FNA:7,14644,_ZN4xlnt8optionalImE3setEOm
FNL:8,233,237
FNA:8,3,_ZN4xlnt8optionalI2tmEaSERKS1_
FNA:8,25,_ZN4xlnt8optionalINS_10page_setupEEaSERKS1_
FNA:8,18,_ZN4xlnt8optionalINS_10paper_sizeEEaSERKS1_
FNA:8,259,_ZN4xlnt8optionalINS_12border_styleEEaSERKS1_
FNA:8,353,_ZN4xlnt8optionalINS_12page_marginsEEaSERKS1_
FNA:8,18,_ZN4xlnt8optionalINS_13header_footerEEaSERKS1_
FNA:8,333,_ZN4xlnt8optionalINS_13workbook_viewEEaSERKS1_
FNA:8,68,_ZN4xlnt8optionalINS_14cell_referenceEEaSERKS1_
FNA:8,2,_ZN4xlnt8optionalINS_15range_referenceEEaSERKS1_
FNA:8,1,_ZN4xlnt8optionalINS_18diagonal_directionEEaSERKS1_
FNA:8,399,_ZN4xlnt8optionalINS_18vertical_alignmentEEaSERKS1_
FNA:8,114,_ZN4xlnt8optionalINS_20horizontal_alignmentEEaSERKS1_
FNA:8,331,_ZN4xlnt8optionalINS_22calculation_propertiesEEaSERKS1_
FNA:8,6,_ZN4xlnt8optionalINS_4fontEEaSERKS1_
FNA:8,10,_ZN4xlnt8optionalINS_4paneEEaSERKS1_
FNA:8,1715,_ZN4xlnt8optionalINS_5colorEEaSERKS1_
FNA:8,322,_ZN4xlnt8optionalINS_5themeEEaSERKS1_
FNA:8,2151,_ZN4xlnt8optionalINS_6border15border_propertyEEaSERKS2_
FNA:8,327,_ZN4xlnt8optionalINS_6detail13workbook_impl14file_version_tEEaSERKS3_
FNA:8,7,_ZN4xlnt8optionalINS_6detail14hyperlink_implEEaSERKS2_
FNA:8,3,_ZN4xlnt8optionalINS_7drawing19spreadsheet_drawingEEaSERKS2_
FNA:8,50,_ZN4xlnt8optionalINS_9rich_textEEaSERKS1_
FNA:8,3430,_ZN4xlnt8optionalINSt7__cxx1112basic_stringIcSt11char_traitsIcESaIcEEEEaSERKS6_
FNA:8,349,_ZN4xlnt8optionalIPNS_6detail11format_implEEaSERKS3_
FNA:8,44803,_ZN4xlnt8optionalIdEaSERKd
FNA:8,72,_ZN4xlnt8optionalIiEaSERKi
FNA:8,89318,_ZN4xlnt8optionalImEaSERKm
FNL:9,242,246
FNA:9,3,_ZN4xlnt8optionalINS_14cell_referenceEEaSEOS1_
FNA:9,2,_ZN4xlnt8optionalINS_15range_referenceEEaSEOS1_
FNA:9,91,_ZN4xlnt8optionalINS_4fontEEaSEOS1_
FNA:9,335,_ZN4xlnt8optionalINS_6detail10stylesheetEEaSEOS2_
FNA:9,44,_ZN4xlnt8optionalINS_6detail14hyperlink_implEEaSEOS2_
FNA:9,57,_ZN4xlnt8optionalINSt7__cxx1112basic_stringIcSt11char_traitsIcESaIcEEEEaSEOS6_
FNA:9,850,_ZN4xlnt8optionalIPNS_6detail11format_implEEaSEOS3_
FNA:9,2,_ZN4xlnt8optionalISt4pairINS_8column_tES2_EEaSEOS3_
FNA:9,2,_ZN4xlnt8optionalISt4pairIjjEEaSEOS2_
FNA:9,34,_ZN4xlnt8optionalISt5arrayINS0_INS_9rich_textEEELm3EEEaSEOS4_
FNA:9,3174,_ZN4xlnt8optionalIbEaSEOb
FNA:9,2137,_ZN4xlnt8optionalIdEaSEOd
FNA:9,658,_ZN4xlnt8optionalIiEaSEOi
FNA:9,9669,_ZN4xlnt8optionalImEaSEOm
FNL:10,251,258
FNA:10,3,_ZN4xlnt8optionalI2tmE5clearEv
FNA:10,1,_ZN4xlnt8optionalIN12_GLOBAL__N_110no_defaultEE5clearEv
FNA:10,12,_ZN4xlnt8optionalIN12_GLOBAL__N_111alive_countEE5clearEv
FNA:10,1,_ZN4xlnt8optionalIN12_GLOBAL__N_111convertibleEE5clearEv
FNA:10,1001,_ZN4xlnt8optionalINS_10page_setupEE5clearEv
FNA:10,123,_ZN4xlnt8optionalINS_10paper_sizeEE5clearEv
FNA:10,123,_ZN4xlnt8optionalINS_11orientationEE5clearEv
FNA:10,202,_ZN4xlnt8optionalINS_11phonetic_pr13phonetic_typeEE5clearEv
FNA:10,202,_ZN4xlnt8optionalINS_11phonetic_pr5alignEE5clearEv
FNA:10,79144,_ZN4xlnt8optionalINS_11phonetic_prEE5clearEv
FNA:10,40735,_ZN4xlnt8optionalINS_12border_styleEE5clearEv
FNA:10,997,_ZN4xlnt8optionalINS_12page_marginsEE5clearEv
FNA:10,1001,_ZN4xlnt8optionalINS_13header_footerEE5clearEv
FNA:10,1001,_ZN4xlnt8optionalINS_13print_optionsEE5clearEv
FNA:10,640,_ZN4xlnt8optionalINS_13workbook_viewEE5clearEv
FNA:10,1220,_ZN4xlnt8optionalINS_14cell_referenceEE5clearEv
FNA:10,2002,_ZN4xlnt8optionalINS_15range_referenceEE5clearEv
FNA:10,1472,_ZN4xlnt8optionalINS_18diagonal_directionEE5clearEv
FNA:10,1920,_ZN4xlnt8optionalINS_18vertical_alignmentEE5clearEv
FNA:10,1460,_ZN4xlnt8optionalINS_20horizontal_alignmentEE5clearEv
FNA:10,540,_ZN4xlnt8optionalINS_22calculation_propertiesEE5clearEv
FNA:10,51379,_ZN4xlnt8optionalINS_4fontEE5clearEv
FNA:10,784,_ZN4xlnt8optionalINS_4paneEE5clearEv
FNA:10,47520,_ZN4xlnt8optionalINS_5colorEE5clearEv
FNA:10,640,_ZN4xlnt8optionalINS_5themeEE5clearEv
FNA:10,34634,_ZN4xlnt8optionalINS_6border15border_propertyEE5clearEv
FNA:10,640,_ZN4xlnt8optionalINS_6detail10stylesheetEE5clearEv
FNA:10,640,_ZN4xlnt8optionalINS_6detail13workbook_impl14file_version_tEE5clearEv
FNA:10,25261,_ZN4xlnt8optionalINS_6detail14hyperlink_implEE5clearEv
FNA:10,705,_ZN4xlnt8optionalINS_7drawing19spreadsheet_drawingEE5clearEv
FNA:10,1446,_ZN4xlnt8optionalINS_8ext_listEE5clearEv
FNA:10,1001,_ZN4xlnt8optionalINS_8sheet_prEE5clearEv
FNA:10,254,_ZN4xlnt8optionalINS_9rich_textEE5clearEv
FNA:10,53480,_ZN4xlnt8optionalINSt7__cxx1112basic_stringIcSt11char_traitsIcESaIcEEEE5clearEv
FNA:10,25263,_ZN4xlnt8optionalIPNS_6detail11format_implEE5clearEv
FNA:10,25261,_ZN4xlnt8optionalIPNS_7commentEE5clearEv
FNA:10,1011,_ZN4xlnt8optionalISt4pairINS_8column_tES2_EE5clearEv
FNA:10,1011,_ZN4xlnt8optionalISt4pairIjjEE5clearEv
FNA:10,108,_ZN4xlnt8optionalISt5arrayINS0_INS_9rich_textEEELm3EEE5clearEv
FNA:10,60777,_ZN4xlnt8optionalIbE5clearEv
FNA:10,130527,_ZN4xlnt8optionalIdE5clearEv
FNA:10,4200,_ZN4xlnt8optionalIiE5clearEv
FNA:10,186216,_ZN4xlnt8optionalImE5clearEv
FNL:11,264,272
FNA:11,9,_ZN4xlnt8optionalI2tmE3getEv
FNA:11,1,_ZN4xlnt8optionalIN12_GLOBAL__N_111convertibleEE3getEv
FNA:11,71,_ZN4xlnt8optionalINS_10page_setupEE3getEv
FNA:11,9,_ZN4xlnt8optionalINS_11orientationEE3getEv
FNA:11,4,_ZN4xlnt8optionalINS_11phonetic_prEE3getEv
FNA:11,116,_ZN4xlnt8optionalINS_12border_styleEE3getEv
FNA:11,301,_ZN4xlnt8optionalINS_12page_marginsEE3getEv
FNA:11,21,_ZN4xlnt8optionalINS_13header_footerEE3getEv
FNA:11,2,_ZN4xlnt8optionalINS_13print_optionsEE3getEv
FNA:11,174,_ZN4xlnt8optionalINS_13workbook_viewEE3getEv
FNA:11,5,_ZN4xlnt8optionalINS_14cell_referenceEE3getEv
FNA:11,7,_ZN4xlnt8optionalINS_15range_referenceEE3getEv
FNA:11,0,_ZN4xlnt8optionalINS_18diagonal_directionEE3getEv
FNA:11,98,_ZN4xlnt8optionalINS_18vertical_alignmentEE3getEv
FNA:11,48,_ZN4xlnt8optionalINS_20horizontal_alignmentEE3getEv
FNA:11,88,_ZN4xlnt8optionalINS_22calculation_propertiesEE3getEv
FNA:11,330,_ZN4xlnt8optionalINS_4fontEE3getEv
FNA:11,50,_ZN4xlnt8optionalINS_4paneEE3getEv
FNA:11,2428,_ZN4xlnt8optionalINS_5colorEE3getEv
FNA:11,0,_ZN4xlnt8optionalINS_5themeEE3getEv
FNA:11,8125,_ZN4xlnt8optionalINS_6border15border_propertyEE3getEv
FNA:11,2862,_ZN4xlnt8optionalINS_6detail10stylesheetEE3getEv
FNA:11,172,_ZN4xlnt8optionalINS_6detail13workbook_impl14file_version_tEE3getEv
FNA:11,150,_ZN4xlnt8optionalINS_6detail14hyperlink_implEE3getEv
FNA:11,2,_ZN4xlnt8optionalINS_7drawing19spreadsheet_drawingEE3getEv
FNA:11,2,_ZN4xlnt8optionalINS_8ext_listEE3getEv
FNA:11,5,_ZN4xlnt8optionalINS_8sheet_prEE3getEv
FNA:11,50,_ZN4xlnt8optionalINS_9rich_textEE3getEv
FNA:11,70,_ZN4xlnt8optionalINSt7__cxx1112basic_stringIcSt11char_traitsIcESaIcEEEE3getEv
FNA:11,665,_ZN4xlnt8optionalIPNS_6detail11format_implEE3getEv
FNA:11,88,_ZN4xlnt8optionalIPNS_7commentEE3getEv
FNA:11,8,_ZN4xlnt8optionalISt4pairINS_8column_tES2_EE3getEv
FNA:11,8,_ZN4xlnt8optionalISt4pairIjjEE3getEv
FNA:11,152,_ZN4xlnt8optionalISt5arrayINS0_INS_9rich_textEEELm3EEE3getEv
FNA:11,15,_ZN4xlnt8optionalIbE3getEv
FNA:11,43613,_ZN4xlnt8optionalIdE3getEv
FNA:11,73,_ZN4xlnt8optionalIiE3getEv
FNA:11,147406,_ZN4xlnt8optionalImE3getEv
FNL:12,278,286
FNA:12,4,_ZNK4xlnt8optionalINS_10paper_sizeEE3getEv
FNA:12,5,_ZNK4xlnt8optionalINS_11phonetic_pr13phonetic_typeEE3getEv
FNA:12,0,_ZNK4xlnt8optionalINS_11phonetic_pr5alignEE3getEv
FNA:12,11,_ZNK4xlnt8optionalINS_11phonetic_prEE3getEv
FNA:12,47,_ZNK4xlnt8optionalINS_14cell_referenceEE3getEv
FNA:12,226,_ZNK4xlnt8optionalINS_4fontEE3getEv
FNA:12,3,_ZNK4xlnt8optionalINS_4paneEE3getEv
FNA:12,1969,_ZNK4xlnt8optionalINS_5colorEE3getEv
FNA:12,99,_ZNK4xlnt8optionalINS_6detail10stylesheetEE3getEv
FNA:12,4340,_ZNK4xlnt8optionalINSt7__cxx1112basic_stringIcSt11char_traitsIcESaIcEEEE3getEv
FNA:12,12,_ZNK4xlnt8optionalIPNS_6detail11format_implEE3getEv
FNA:12,0,_ZNK4xlnt8optionalIPNS_7commentEE3getEv
FNA:12,594,_ZNK4xlnt8optionalIbE3getEv
FNA:12,4940,_ZNK4xlnt8optionalIdE3getEv
FNA:12,89,_ZNK4xlnt8optionalIiE3getEv
FNA:12,7428,_ZNK4xlnt8optionalImE3getEv
FNL:13,293,305
FNA:13,15,_ZNK4xlnt8optionalINS_10page_setupEEeqERKS2_
FNA:13,12,_ZNK4xlnt8optionalINS_10paper_sizeEEeqERKS2_
FNA:13,2,_ZNK4xlnt8optionalINS_11phonetic_pr13phonetic_typeEEeqERKS3_
FNA:13,2,_ZNK4xlnt8optionalINS_11phonetic_pr5alignEEeqERKS3_
FNA:13,9957,_ZNK4xlnt8optionalINS_11phonetic_prEEeqERKS2_
FNA:13,15,_ZNK4xlnt8optionalINS_12page_marginsEEeqERKS2_
FNA:13,15,_ZNK4xlnt8optionalINS_13header_footerEEeqERKS2_
FNA:13,15,_ZNK4xlnt8optionalINS_13print_optionsEEeqERKS2_
FNA:13,14,_ZNK4xlnt8optionalINS_13workbook_viewEEeqERKS2_
FNA:13,20,_ZNK4xlnt8optionalINS_14cell_referenceEEeqERKS2_
FNA:13,30,_ZNK4xlnt8optionalINS_15range_referenceEEeqERKS2_
FNA:13,14,_ZNK4xlnt8optionalINS_22calculation_propertiesEEeqERKS2_
FNA:13,9950,_ZNK4xlnt8optionalINS_4fontEEeqERKS2_
FNA:13,8,_ZNK4xlnt8optionalINS_4paneEEeqERKS2_
FNA:13,14,_ZNK4xlnt8optionalINS_5themeEEeqERKS2_
FNA:13,14,_ZNK4xlnt8optionalINS_6detail10stylesheetEEeqERKS3_
FNA:13,14,_ZNK4xlnt8optionalINS_6detail13workbook_impl14file_version_tEEeqERKS4_
FNA:13,7,_ZNK4xlnt8optionalINS_6detail14hyperlink_implEEeqERKS3_
FNA:13,29,_ZNK4xlnt8optionalINS_8ext_listEEeqERKS2_
FNA:13,15,_ZNK4xlnt8optionalINS_8sheet_prEEeqERKS2_
FNA:13,891,_ZNK4xlnt8optionalINSt7__cxx1112basic_stringIcSt11char_traitsIcESaIcEEEEeqERKS7_
FNA:13,15,_ZNK4xlnt8optionalISt4pairINS_8column_tES2_EEeqERKS4_
FNA:13,15,_ZNK4xlnt8optionalISt4pairIjjEEeqERKS3_
FNA:13,23667,_ZNK4xlnt8optionalIbEeqERKS1_
FNA:13,6232,_ZNK4xlnt8optionalIdEeqERKS1_
FNA:13,26,_ZNK4xlnt8optionalIiEeqERKS1_
FNA:13,38045,_ZNK4xlnt8optionalImEeqERKS1_
FNL:14,312,315
FNA:14,9942,_ZNK4xlnt8optionalINS_11phonetic_prEEneERKS2_
FNA:14,10,_ZNK4xlnt8optionalIiEneERKS1_
FNA:14,19,_ZNK4xlnt8optionalImEneERKS1_
FNL:15,319,322
FNA:15,9,_ZN4xlnt8optionalI2tmE9value_refEv
FNA:15,3,_ZN4xlnt8optionalIN12_GLOBAL__N_111alive_countEE9value_refEv
FNA:15,1,_ZN4xlnt8optionalIN12_GLOBAL__N_111convertibleEE9value_refEv
FNA:15,71,_ZN4xlnt8optionalINS_10page_setupEE9value_refEv
FNA:15,0,_ZN4xlnt8optionalINS_10paper_sizeEE9value_refEv
FNA:15,9,_ZN4xlnt8optionalINS_11orientationEE9value_refEv
FNA:15,0,_ZN4xlnt8optionalINS_11phonetic_pr13phonetic_typeEE9value_refEv
FNA:15,0,_ZN4xlnt8optionalINS_11phonetic_pr5alignEE9value_refEv
FNA:15,4,_ZN4xlnt8optionalINS_11phonetic_prEE9value_refEv
FNA:15,116,_ZN4xlnt8optionalINS_12border_styleEE9value_refEv
FNA:15,302,_ZN4xlnt8optionalINS_12page_marginsEE9value_refEv
FNA:15,21,_ZN4xlnt8optionalINS_13header_footerEE9value_refEv
FNA:15,2,_ZN4xlnt8optionalINS_13print_optionsEE9value_refEv
FNA:15,175,_ZN4xlnt8optionalINS_13workbook_viewEE9value_refEv
FNA:15,17,_ZN4xlnt8optionalINS_14cell_referenceEE9value_refEv
FNA:15,8,_ZN4xlnt8optionalINS_15range_referenceEE9value_refEv
FNA:15,0,_ZN4xlnt8optionalINS_18diagonal_directionEE9value_refEv
FNA:15,644,_ZN4xlnt8optionalINS_18vertical_alignmentEE9value_refEv
FNA:15,184,_ZN4xlnt8optionalINS_20horizontal_alignmentEE9value_refEv
FNA:15,88,_ZN4xlnt8optionalINS_22calculation_propertiesEE9value_refEv
FNA:15,376,_ZN4xlnt8optionalINS_4fontEE9value_refEv
FNA:15,50,_ZN4xlnt8optionalINS_4paneEE9value_refEv
FNA:15,3279,_ZN4xlnt8optionalINS_5colorEE9value_refEv
FNA:15,1,_ZN4xlnt8optionalINS_5themeEE9value_refEv
FNA:15,8135,_ZN4xlnt8optionalINS_6border15border_propertyEE9value_refEv
FNA:15,2863,_ZN4xlnt8optionalINS_6detail10stylesheetEE9value_refEv
FNA:15,173,_ZN4xlnt8optionalINS_6detail13workbook_impl14file_version_tEE9value_refEv
FNA:15,158,_ZN4xlnt8optionalINS_6detail14hyperlink_implEE9value_refEv
FNA:15,2,_ZN4xlnt8optionalINS_7drawing19spreadsheet_drawingEE9value_refEv
FNA:15,2,_ZN4xlnt8optionalINS_8ext_listEE9value_refEv
FNA:15,5,_ZN4xlnt8optionalINS_8sheet_prEE9value_refEv
FNA:15,100,_ZN4xlnt8optionalINS_9rich_textEE9value_refEv
FNA:15,2510,_ZN4xlnt8optionalINSt7__cxx1112basic_stringIcSt11char_traitsIcESaIcEEEE9value_refEv
FNA:15,673,_ZN4xlnt8optionalIPNS_6detail11format_implEE9value_refEv
FNA:15,88,_ZN4xlnt8optionalIPNS_7commentEE9value_refEv
FNA:15,8,_ZN4xlnt8optionalISt4pairINS_8column_tES2_EE9value_refEv
FNA:15,8,_ZN4xlnt8optionalISt4pairIjjEE9value_refEv
FNA:15,152,_ZN4xlnt8optionalISt5arrayINS0_INS_9rich_textEEELm3EEE9value_refEv
FNA:15,143,_ZN4xlnt8optionalIbE9value_refEv
FNA:15,50654,_ZN4xlnt8optionalIdE9value_refEv
FNA:15,108,_ZN4xlnt8optionalIiE9value_refEv
FNA:15,200520,_ZN4xlnt8optionalImE9value_refEv
FNL:16,324,327
FNA:16,2,_ZNK4xlnt8optionalIN12_GLOBAL__N_111alive_countEE9value_refEv
FNA:16,12,_ZNK4xlnt8optionalINS_10page_setupEE9value_refEv
FNA:16,72,_ZNK4xlnt8optionalINS_10paper_sizeEE9value_refEv
FNA:16,96,_ZNK4xlnt8optionalINS_11orientationEE9value_refEv
FNA:16,154,_ZNK4xlnt8optionalINS_11phonetic_pr13phonetic_typeEE9value_refEv
FNA:16,1,_ZNK4xlnt8optionalINS_11phonetic_pr5alignEE9value_refEv
FNA:16,123,_ZNK4xlnt8optionalINS_11phonetic_prEE9value_refEv
FNA:16,839,_ZNK4xlnt8optionalINS_12border_styleEE9value_refEv
FNA:16,20,_ZNK4xlnt8optionalINS_12page_marginsEE9value_refEv
FNA:16,12,_ZNK4xlnt8optionalINS_13header_footerEE9value_refEv
FNA:16,12,_ZNK4xlnt8optionalINS_13print_optionsEE9value_refEv
FNA:16,17,_ZNK4xlnt8optionalINS_13workbook_viewEE9value_refEv
FNA:16,342,_ZNK4xlnt8optionalINS_14cell_referenceEE9value_refEv
FNA:16,0,_ZNK4xlnt8optionalINS_15range_referenceEE9value_refEv
FNA:16,3,_ZNK4xlnt8optionalINS_18diagonal_directionEE9value_refEv
FNA:16,208,_ZNK4xlnt8optionalINS_18vertical_alignmentEE9value_refEv
FNA:16,108,_ZNK4xlnt8optionalINS_20horizontal_alignmentEE9value_refEv
FNA:16,16,_ZNK4xlnt8optionalINS_22calculation_propertiesEE9value_refEv
FNA:16,1091,_ZNK4xlnt8optionalINS_4fontEE9value_refEv
FNA:16,12,_ZNK4xlnt8optionalINS_4paneEE9value_refEv
FNA:16,15356,_ZNK4xlnt8optionalINS_5colorEE9value_refEv
FNA:16,5,_ZNK4xlnt8optionalINS_5themeEE9value_refEv
FNA:16,23902,_ZNK4xlnt8optionalINS_6border15border_propertyEE9value_refEv
FNA:16,115,_ZNK4xlnt8optionalINS_6detail10stylesheetEE9value_refEv
FNA:16,17,_ZNK4xlnt8optionalINS_6detail13workbook_impl14file_version_tEE9value_refEv
FNA:16,0,_ZNK4xlnt8optionalINS_6detail14hyperlink_implEE9value_refEv
FNA:16,0,_ZNK4xlnt8optionalINS_8ext_listEE9value_refEv
FNA:16,12,_ZNK4xlnt8optionalINS_8sheet_prEE9value_refEv
FNA:16,8108,_ZNK4xlnt8optionalINSt7__cxx1112basic_stringIcSt11char_traitsIcESaIcEEEE9value_refEv
FNA:16,12,_ZNK4xlnt8optionalIPNS_6detail11format_implEE9value_refEv
FNA:16,0,_ZNK4xlnt8optionalIPNS_7commentEE9value_refEv
FNA:16,8,_ZNK4xlnt8optionalISt4pairINS_8column_tES2_EE9value_refEv
FNA:16,8,_ZNK4xlnt8optionalISt4pairIjjEE9value_refEv
FNA:16,3443,_ZNK4xlnt8optionalIbE9value_refEv
FNA:16,63480,_ZNK4xlnt8optionalIdE9value_refEv
FNA:16,1123,_ZNK4xlnt8optionalIiE9value_refEv
FNA:16,116414,_ZNK4xlnt8optionalImE9value_refEv
FNL:17,58,61
FNA:17,6,_ZNK4xlnt8optionalINS_10page_setupEE13compare_equalIS1_LPv0EEEbRKT_S7_
FNA:17,12,_ZNK4xlnt8optionalINS_10paper_sizeEE13compare_equalIS1_LPv0EEEbRKT_S7_
FNA:17,2,_ZNK4xlnt8optionalINS_11phonetic_pr13phonetic_typeEE13compare_equalIS2_LPv0EEEbRKT_S8_
FNA:17,0,_ZNK4xlnt8optionalINS_11phonetic_pr5alignEE13compare_equalIS2_LPv0EEEbRKT_S8_
FNA:17,2,_ZNK4xlnt8optionalINS_11phonetic_prEE13compare_equalIS1_LPv0EEEbRKT_S7_
FNA:17,8,_ZNK4xlnt8optionalINS_12page_marginsEE13compare_equalIS1_LPv0EEEbRKT_S7_
FNA:17,6,_ZNK4xlnt8optionalINS_13header_footerEE13compare_equalIS1_LPv0EEEbRKT_S7_
FNA:17,6,_ZNK4xlnt8optionalINS_13print_optionsEE13compare_equalIS1_LPv0EEEbRKT_S7_
FNA:17,8,_ZNK4xlnt8optionalINS_13workbook_viewEE13compare_equalIS1_LPv0EEEbRKT_S7_
FNA:17,12,_ZNK4xlnt8optionalINS_14cell_referenceEE13compare_equalIS1_LPv0EEEbRKT_S7_
FNA:17,0,_ZNK4xlnt8optionalINS_15range_referenceEE13compare_equalIS1_LPv0EEEbRKT_S7_
FNA:17,8,_ZNK4xlnt8optionalINS_22calculation_propertiesEE13compare_equalIS1_LPv0EEEbRKT_S7_
FNA:17,17,_ZNK4xlnt8optionalINS_4fontEE13compare_equalIS1_LPv0EEEbRKT_S7_
FNA:17,0,_ZNK4xlnt8optionalINS_4paneEE13compare_equalIS1_LPv0EEEbRKT_S7_
FNA:17,2,_ZNK4xlnt8optionalINS_5themeEE13compare_equalIS1_LPv0EEEbRKT_S7_
FNA:17,8,_ZNK4xlnt8optionalINS_6detail10stylesheetEE13compare_equalIS2_LPv0EEEbRKT_S8_
FNA:17,8,_ZNK4xlnt8optionalINS_6detail13workbook_impl14file_version_tEE13compare_equalIS3_LPv0EEEbRKT_S9_
FNA:17,0,_ZNK4xlnt8optionalINS_6detail14hyperlink_implEE13compare_equalIS2_LPv0EEEbRKT_S8_
FNA:17,0,_ZNK4xlnt8optionalINS_8ext_listEE13compare_equalIS1_LPv0EEEbRKT_S7_
FNA:17,6,_ZNK4xlnt8optionalINS_8sheet_prEE13compare_equalIS1_LPv0EEEbRKT_S7_
FNA:17,268,_ZNK4xlnt8optionalINSt7__cxx1112basic_stringIcSt11char_traitsIcESaIcEEEE13compare_equalIS6_LPv0EEEbRKT_SC_
FNA:17,0,_ZNK4xlnt8optionalISt4pairINS_8column_tES2_EE13compare_equalIS3_LPv0EEEbRKT_S9_
FNA:17,0,_ZNK4xlnt8optionalISt4pairIjjEE13compare_equalIS2_LPv0EEEbRKT_S8_
FNA:17,248,_ZNK4xlnt8optionalIbE13compare_equalIbLPv0EEEbRKT_S6_
FNA:17,14,_ZNK4xlnt8optionalIiE13compare_equalIiLPv0EEEbRKT_S6_
FNA:17,23263,_ZNK4xlnt8optionalImE13compare_equalImLPv0EEEbRKT_S6_
FNL:18,67,70
FNA:18,6186,_ZNK4xlnt8optionalIdE13compare_equalIdLPv0EEEbRKT_S6_
FNL:19,76,79
FNA:19,3,_ZN4xlnt8optionalI2tmEC2Ev
FNA:19,1,_ZN4xlnt8optionalIN12_GLOBAL__N_110no_defaultEEC2Ev
FNA:19,3,_ZN4xlnt8optionalIN12_GLOBAL__N_111alive_countEEC2Ev
FNA:19,706,_ZN4xlnt8optionalINS_10page_setupEEC2Ev
FNA:19,27,_ZN4xlnt8optionalINS_10paper_sizeEEC2Ev
FNA:19,27,_ZN4xlnt8optionalINS_11orientationEEC2Ev
FNA:19,47,_ZN4xlnt8optionalINS_11phonetic_pr13phonetic_typeEEC2Ev
FNA:19,47,_ZN4xlnt8optionalINS_11phonetic_pr5alignEEC2Ev
FNA:19,41448,_ZN4xlnt8optionalINS_11phonetic_prEEC2Ev
FNA:19,2151,_ZN4xlnt8optionalINS_12border_styleEEC2Ev
FNA:19,706,_ZN4xlnt8optionalINS_12page_marginsEEC2Ev
FNA:19,706,_ZN4xlnt8optionalINS_13header_footerEEC2Ev
FNA:19,706,_ZN4xlnt8optionalINS_13print_optionsEEC2Ev
FNA:19,445,_ZN4xlnt8optionalINS_13workbook_viewEEC2Ev
FNA:19,461,_ZN4xlnt8optionalINS_14cell_referenceEEC2Ev
FNA:19,1412,_ZN4xlnt8optionalINS_15range_referenceEEC2Ev
FNA:19,434,_ZN4xlnt8optionalINS_18diagonal_directionEEC2Ev
FNA:19,476,_ZN4xlnt8optionalINS_18vertical_alignmentEEC2Ev
FNA:19,476,_ZN4xlnt8optionalINS_20horizontal_alignmentEEC2Ev
FNA:19,445,_ZN4xlnt8optionalINS_22calculation_propertiesEEC2Ev
FNA:19,11219,_ZN4xlnt8optionalINS_4fontEEC2Ev
FNA:19,361,_ZN4xlnt8optionalINS_4paneEEC2Ev
FNA:19,6036,_ZN4xlnt8optionalINS_5colorEEC2Ev
FNA:19,445,_ZN4xlnt8optionalINS_5themeEEC2Ev
FNA:19,3038,_ZN4xlnt8optionalINS_6border15border_propertyEEC2Ev
FNA:19,445,_ZN4xlnt8optionalINS_6detail10stylesheetEEC2Ev
FNA:19,445,_ZN4xlnt8optionalINS_6detail13workbook_impl14file_version_tEEC2Ev
FNA:19,11673,_ZN4xlnt8optionalINS_6detail14hyperlink_implEEC2Ev
FNA:19,706,_ZN4xlnt8optionalINS_7drawing19spreadsheet_drawingEEC2Ev
FNA:19,1151,_ZN4xlnt8optionalINS_8ext_listEEC2Ev
FNA:19,706,_ZN4xlnt8optionalINS_8sheet_prEEC2Ev
FNA:19,102,_ZN4xlnt8optionalINS_9rich_textEEC2Ev
FNA:19,19441,_ZN4xlnt8optionalINSt7__cxx1112basic_stringIcSt11char_traitsIcESaIcEEEEC2Ev
FNA:19,11673,_ZN4xlnt8optionalIPNS_6detail11format_implEEC2Ev
FNA:19,11673,_ZN4xlnt8optionalIPNS_7commentEEC2Ev
FNA:19,706,_ZN4xlnt8optionalISt4pairINS_8column_tES2_EEC2Ev
FNA:19,706,_ZN4xlnt8optionalISt4pairIjjEEC2Ev
FNA:19,108,_ZN4xlnt8optionalISt5arrayINS0_INS_9rich_textEEELm3EEEC2Ev
FNA:19,24618,_ZN4xlnt8optionalIbEC2Ev
FNA:19,97232,_ZN4xlnt8optionalIdEC2Ev
FNA:19,1633,_ZN4xlnt8optionalIiEC2Ev
FNA:19,119954,_ZN4xlnt8optionalImEC2Ev
FNL:20,85,89
FNA:20,18,_ZN4xlnt8optionalINS_14cell_referenceEEC2ERKS1_
FNA:20,4,_ZN4xlnt8optionalINS_4fontEEC2ERKS1_
FNA:20,7,_ZN4xlnt8optionalIiEC2ERKi
FNL:21,95,99
FNA:21,4,_ZN4xlnt8optionalIN12_GLOBAL__N_111alive_countEEC2EOS2_
FNA:21,1,_ZN4xlnt8optionalIN12_GLOBAL__N_111convertibleEEC2EOS2_
FNA:21,60,_ZN4xlnt8optionalIbEC2EOb
FNA:21,106,_ZN4xlnt8optionalIdEC2EOd
FNA:21,4871,_ZN4xlnt8optionalImEC2EOm
FNF:22
FNH:22
BRDA:88,0,0,4
BRDA:88,e0,1,0
BRDA:88,0,2,0
BRDA:88,0,3,0
BRDA:108,0,0,60174
BRDA:108,0,1,246666
BRDA:110,0,0,4061
BRDA:110,e0,1,0
BRDA:110,0,2,0
BRDA:110,0,3,0
BRDA:121,0,0,10612
BRDA:121,0,1,67786
BRDA:123,0,0,50
BRDA:123,e0,1,0
BRDA:123,0,2,0
BRDA:123,0,3,0
BRDA:134,0,0,95022
BRDA:134,0,1,35614
BRDA:151,0,0,5511
BRDA:151,0,1,1798
BRDA:189,0,0,47016
BRDA:189,0,1,192673
BRDA:195,0,0,3893
BRDA:195,e0,1,0
BRDA:195,0,2,0
BRDA:195,0,3,0
BRDA:216,0,0,1298
BRDA:216,0,1,21778
BRDA:222,0,0,34
BRDA:222,e0,1,0
BRDA:222,0,2,0
BRDA:222,0,3,0
BRDA:253,0,0,280036
BRDA:253,0,1,506522
BRDA:266,0,0,3
BRDA:266,0,1,207225
BRDA:268,0,0,3
BRDA:268,e0,1,0
BRDA:280,0,0,0
BRDA:280,0,1,19767
BRDA:282,0,0,-
BRDA:282,e0,1,-
BRDA:295,0,0,4110
BRDA:295,0,1,84943
BRDA:299,0,0,54853
BRDA:299,0,1,30090
BRF:46
BRH:27
DA:58,23904
DA:60,23904
DA:67,6186
DA:69,6186
DA:76,374798
DA:77,374798
DA:79,374798
DA:85,29
DA:86,29
DA:88,29
DA:89,29
DA:95,5042
DA:96,5042
DA:98,5042
DA:99,5042
DA:105,306840
DA:106,306840
DA:108,306840
DA:110,60174
DA:112,306840
DA:118,78398
DA:119,78398
DA:121,78398
DA:123,10612
DA:124,10612
DA:126,78398
DA:132,130636
DA:134,130636
DA:136,95022
DA:140,35614
DA:142,130636
DA:149,7309
DA:151,7309
DA:153,5511
DA:154,5511
DA:158,1798
DA:160,7309
DA:166,715852
DA:168,715852
DA:169,715852
DA:175,403422
DA:177,403422
DA:183,239689
DA:189,239689
DA:191,47016
DA:195,192673
DA:196,192673
DA:201,239689
DA:206,23076
DA:216,23076
DA:218,1298
DA:222,21778
DA:223,21778
DA:228,23076
DA:233,144487
DA:235,144487
DA:236,144487
DA:242,17058
DA:244,17058
DA:245,17058
DA:251,786558
DA:253,786558
DA:255,280036
DA:257,786558
DA:258,786558
DA:264,207228
DA:266,207228
DA:268,3
DA:271,207225
DA:278,19767
DA:280,19767
DA:282,0
DA:285,19767
DA:293,89053
DA:295,89053
DA:297,4110
DA:299,84943
DA:301,54853
DA:304,30090
DA:312,9971
DA:314,9971
DA:319,271662
DA:321,271662
DA:324,235143
DA:326,235143
LF:85
LH:84
end_of_record
TN:
SF:/root/project/include/xlnt/utils/path.hpp
FNL:0,239,243
FNA:0,57470,_ZNKSt4hashIN4xlnt4pathEEclERKS1_
FNF:1
FNH:1
DA:239,57470
DA:242,57470
LF:2
LH:2
end_of_record
TN:
SF:/root/project/include/xlnt/utils/scoped_enum_hash.hpp
FNL:0,41,45
FNA:0,198,_ZNK4xlnt16scoped_enum_hashINS_13header_footer8locationEEclES2_
FNA:0,145,_ZNK4xlnt16scoped_enum_hashINS_7variant4typeEEclES2_
FNF:1
FNH:1
DA:41,343
DA:44,343
LF:2
LH:2
end_of_record
TN:
SF:/root/project/include/xlnt/utils/variant.hpp
FNF:0
FNH:0
LF:0
LH:0
end_of_record
TN:
SF:/root/project/include/xlnt/workbook/calculation_properties.hpp
FNL:0,52,56
FNA:0,8,_ZN4xlnteqERKNS_22calculation_propertiesES2_
FNF:1
FNH:1
BRDA:55,0,0,8
BRDA:55,0,1,0
BRDA:55,0,2,8
BRDA:55,0,3,0
BRF:4
BRH:2
DA:52,8
DA:54,8
DA:55,8
LF:3
LH:3
end_of_record
TN:
SF:/root/project/include/xlnt/workbook/named_range.hpp
FNF:0
FNH:0
LF:0
LH:0
end_of_record
TN:
SF:/root/project/include/xlnt/workbook/theme.hpp
FNL:0,38,41
FNA:0,2,_ZNK4xlnt5themeeqERKS0_
FNF:1
FNH:1
DA:38,2
DA:40,2
LF:2
LH:2
end_of_record
TN:
SF:/root/project/include/xlnt/workbook/workbook.hpp
FNL:0,185,185
FNA:0,1,_ZN4xlnt8workbookC2EOS0_
FNL:1,191,191
FNA:1,2,_ZN4xlnt8workbookC2ERKS0_
FNL:2,198,198
FNA:2,1328,_ZN4xlnt8workbookD2Ev
FNL:3,956,956
FNA:3,2,_ZN4xlnt8workbookaSERKS0_
FNL:4,962,962
FNA:4,9,_ZN4xlnt8workbookaSEOS0_
FNF:5
FNH:5
DA:185,1
DA:191,2
DA:198,1328
DA:956,2
DA:962,9
LF:5
LH:5
end_of_record
TN:
SF:/root/project/include/xlnt/workbook/workbook_view.hpp
FNL:0,106,117
FNA:0,8,_ZN4xlnteqERKNS_13workbook_viewES2_
FNF:1
FNH:1
BRDA:109,0,0,8
BRDA:109,0,1,0
BRDA:110,0,0,8
BRDA:110,0,1,0
BRDA:111,0,0,8
BRDA:111,0,1,0
BRDA:112,0,0,8
BRDA:112,0,1,0
BRDA:113,0,0,8
BRDA:113,0,1,0
BRDA:114,0,0,8
BRDA:114,0,1,0
BRDA:115,0,0,8
BRDA:115,0,1,0
BRDA:116,0,0,8
BRDA:116,0,1,0
BRDA:116,0,2,8
BRDA:116,0,3,0
BRF:18
BRH:9
DA:106,8
DA:108,8
DA:109,8
DA:110,8
DA:111,8
DA:112,8
DA:113,8
DA:114,8
DA:115,8
DA:116,16
LF:10
LH:10
end_of_record
TN:
SF:/root/project/include/xlnt/workbook/worksheet_iterator.hpp
FNL:0,169,169
FNA:0,2,_ZN4xlnt24const_worksheet_iteratorC2Ev
FNL:1,59,59
FNA:1,2,_ZN4xlnt18worksheet_iteratorC2Ev
FNF:2
FNH:2
DA:59,2
DA:169,2
LF:2
LH:2
end_of_record
TN:
SF:/root/project/include/xlnt/worksheet/cell_iterator.hpp
FNL:0,202,202
FNA:0,2,_ZN4xlnt19const_cell_iteratorC2Ev
FNL:1,213,213
FNA:1,517,_ZN4xlnt19const_cell_iteratorC2ERKS0_
FNL:2,63,63
FNA:2,2,_ZN4xlnt13cell_iteratorC2Ev
FNL:3,74,74
FNA:3,198,_ZN4xlnt13cell_iteratorC2ERKS0_
FNL:4,89,89
FNA:4,2,_ZN4xlnt13cell_iteratoraSEOS0_
FNF:5
FNH:5
DA:63,2
DA:74,198
DA:89,2
DA:202,2
DA:213,517
LF:5
LH:5
end_of_record
TN:
SF:/root/project/include/xlnt/worksheet/cell_vector.hpp
FNF:0
FNH:0
LF:0
LH:0
end_of_record
TN:
SF:/root/project/include/xlnt/worksheet/column_properties.hpp
FNL:0,70,77
FNA:0,6150,_ZN4xlnteqERKNS_17column_propertiesES2_
FNF:1
FNH:1
BRDA:73,0,0,6150
BRDA:73,0,1,0
BRDA:74,0,0,6150
BRDA:74,0,1,0
BRDA:75,0,0,6150
BRDA:75,0,1,0
BRDA:76,0,0,6150
BRDA:76,0,1,0
BRDA:76,0,2,6150
BRDA:76,0,3,0
BRF:10
BRH:5
DA:70,6150
DA:72,6150
DA:73,6150
DA:74,6150
DA:75,6150
DA:76,12300
LF:6
LH:6
end_of_record
TN:
SF:/root/project/include/xlnt/worksheet/header_footer.hpp
FNF:0
FNH:0
LF:0
LH:0
end_of_record
TN:
SF:/root/project/include/xlnt/worksheet/page_setup.hpp
FNF:0
FNH:0
LF:0
LH:0
end_of_record
TN:
SF:/root/project/include/xlnt/worksheet/pane.hpp
FNL:0,90,97
FNA:0,0,_ZNK4xlnt4paneeqERKS0_
FNF:1
FNH:0
BRDA:93,0,0,-
BRDA:93,0,1,-
BRDA:94,0,0,-
BRDA:94,0,1,-
BRDA:95,0,0,-
BRDA:95,0,1,-
BRDA:96,0,0,-
BRDA:96,0,1,-
BRDA:96,0,2,-
BRDA:96,0,3,-
BRF:10
BRH:0
DA:90,0
DA:92,0
DA:93,0
DA:94,0
DA:95,0
DA:96,0
LF:6
LH:0
end_of_record
TN:
SF:/root/project/include/xlnt/worksheet/phonetic_pr.hpp
FNF:0
FNH:0
LF:0
LH:0
end_of_record
TN:
SF:/root/project/include/xlnt/worksheet/print_options.hpp
FNL:0,60,67
FNA:0,6,_ZN4xlnteqERKNS_13print_optionsES2_
FNF:1
FNH:1
BRDA:63,0,0,6
BRDA:63,0,1,0
BRDA:64,0,0,6
BRDA:64,0,1,0
BRDA:65,0,0,6
BRDA:65,0,1,0
BRDA:66,0,0,6
BRDA:66,0,1,0
BRDA:66,0,2,6
BRDA:66,0,3,0
BRF:10
BRH:5
DA:60,6
DA:62,6
DA:63,6
DA:64,6
DA:65,6
DA:66,12
LF:6
LH:6
end_of_record
TN:
SF:/root/project/include/xlnt/worksheet/range.hpp
FNL:0,90,90
FNA:0,6,_ZN4xlnt5rangeC2ERKS0_
FNF:1
FNH:1
DA:90,6
LF:1
LH:1
end_of_record
TN:
SF:/root/project/include/xlnt/worksheet/range_iterator.hpp
FNL:0,178,178
FNA:0,2,_ZN4xlnt20const_range_iteratorC2Ev
FNL:1,58,58
FNA:1,2,_ZN4xlnt14range_iteratorC2Ev
FNL:2,70,70
FNA:2,22,_ZN4xlnt14range_iteratorC2ERKS0_
FNL:3,85,85
FNA:3,1,_ZN4xlnt14range_iteratoraSEOS0_
FNF:4
FNH:4
DA:58,2
DA:70,22
DA:85,1
DA:178,2
LF:4
LH:4
end_of_record
TN:
SF:/root/project/include/xlnt/worksheet/row_properties.hpp
FNL:0,79,88
FNA:0,6,_ZN4xlnteqERKNS_14row_propertiesES2_
FNF:1
FNH:1
BRDA:82,0,0,6
BRDA:82,0,1,0
BRDA:83,0,0,6
BRDA:83,0,1,0
BRDA:84,0,0,6
BRDA:84,0,1,0
BRDA:85,0,0,6
BRDA:85,0,1,0
BRDA:86,0,0,6
BRDA:86,0,1,0
BRDA:87,0,0,6
BRDA:87,0,1,0
BRDA:87,0,2,6
BRDA:87,0,3,0
BRF:14
BRH:7
DA:79,6
DA:81,6
DA:82,6
DA:83,6
DA:84,6
DA:85,6
DA:86,6
DA:87,12
LF:8
LH:8
end_of_record
TN:
SF:/root/project/include/xlnt/worksheet/selection.hpp
FNL:0,107,113
FNA:0,7,_ZNK4xlnt9selection5sqrefEv
FNL:1,118,121
FNA:1,41,_ZNK4xlnt9selection6sqrefsEv
FNL:2,149,152
FNA:2,42,_ZNK4xlnt9selection4paneEv
FNL:3,157,160
FNA:3,13,_ZN4xlnt9selection4paneENS_11pane_cornerE
FNL:4,166,171
FNA:4,6,_ZNK4xlnt9selectioneqERKS0_
FNL:5,47,47
FNA:5,66,_ZN4xlnt9selectionC2Ev
FNL:6,53,56
FNA:6,18,_ZN4xlnt9selectionC2ENS_11pane_cornerENS_14cell_referenceE
FNL:7,70,73
FNA:7,32,_ZNK4xlnt9selection15has_active_cellEv
FNL:8,78,81
FNA:8,35,_ZNK4xlnt9selection11active_cellEv
FNL:9,86,89
FNA:9,61,_ZN4xlnt9selection11active_cellERKNS_14cell_referenceE
FNL:10,94,97
FNA:10,39,_ZNK4xlnt9selection9has_sqrefEv
FNF:11
FNH:11
BRDA:54,0,0,18
BRDA:54,e0,1,0
BRDA:54,0,2,18
BRDA:54,e0,3,0
BRDA:109,0,0,0
BRDA:109,0,1,7
BRDA:110,0,0,-
BRDA:110,e0,1,-
BRDA:169,0,0,6
BRDA:169,0,1,0
BRDA:170,0,0,6
BRDA:170,0,1,0
BRDA:170,0,2,6
BRDA:170,0,3,0
BRF:14
BRH:6
DA:47,66
DA:53,18
DA:54,36
DA:56,18
DA:70,32
DA:72,32
DA:78,35
DA:80,35
DA:86,61
DA:88,61
DA:89,61
DA:94,39
DA:96,39
DA:107,7
DA:109,7
DA:110,0
DA:112,7
DA:118,41
DA:120,41
DA:149,42
DA:151,42
DA:157,13
DA:159,13
DA:160,13
DA:166,6
DA:168,6
DA:169,6
DA:170,12
LF:28
LH:27
end_of_record
TN:
SF:/root/project/include/xlnt/worksheet/sheet_format_properties.hpp
FNL:0,60,66
FNA:0,16,_ZN4xlnteqERKNS_23sheet_format_propertiesES2_
FNF:1
FNH:1
BRDA:63,0,0,16
BRDA:63,0,1,0
BRDA:64,0,0,16
BRDA:64,0,1,0
BRDA:65,0,0,16
BRDA:65,0,1,0
BRDA:65,0,2,16
BRDA:65,0,3,0
BRF:8
BRH:4
DA:60,16
DA:62,16
DA:63,16
DA:64,16
DA:65,32
LF:5
LH:5
end_of_record
TN:
SF:/root/project/include/xlnt/worksheet/sheet_pr.hpp
FNL:0,83,94
FNA:0,6,_ZN4xlnteqERKNS_8sheet_prES2_
FNF:1
FNH:1
BRDA:86,0,0,6
BRDA:86,0,1,0
BRDA:87,0,0,6
BRDA:87,0,1,0
BRDA:88,0,0,6
BRDA:88,0,1,0
BRDA:89,0,0,6
BRDA:89,0,1,0
BRDA:90,0,0,6
BRDA:90,0,1,0
BRDA:91,0,0,6
BRDA:91,0,1,0
BRDA:92,0,0,6
BRDA:92,0,1,0
BRDA:93,0,0,6
BRDA:93,0,1,0
BRDA:93,0,2,6
BRDA:93,0,3,0
BRF:18
BRH:9
DA:83,6
DA:85,6
DA:86,6
DA:87,6
DA:88,6
DA:89,6
DA:90,6
DA:91,6
DA:92,6
DA:93,12
LF:10
LH:10
end_of_record
TN:
SF:/root/project/include/xlnt/worksheet/sheet_view.hpp
FNL:0,103,106
FNA:0,10,_ZN4xlnt10sheet_view4paneERKNS_4paneE
FNL:1,111,114
FNA:1,7,_ZNK4xlnt10sheet_view14has_selectionsEv
FNL:2,119,122
FNA:2,84,_ZN4xlnt10sheet_view13add_selectionERKNS_9selectionE
FNL:3,127,130
FNA:3,9,_ZN4xlnt10sheet_view16clear_selectionsEv
FNL:4,135,138
FNA:4,72,_ZNK4xlnt10sheet_view10selectionsEv
FNL:5,143,146
FNA:5,11,_ZN4xlnt10sheet_view9selectionEm
FNL:6,151,154
FNA:6,13,_ZN4xlnt10sheet_view15show_grid_linesEb
FNL:7,159,162
FNA:7,54,_ZNK4xlnt10sheet_view15show_grid_linesEv
FNL:8,167,170
FNA:8,13,_ZN4xlnt10sheet_view18default_grid_colorEb
FNL:9,183,186
FNA:9,4,_ZN4xlnt10sheet_view4typeENS_15sheet_view_typeE
FNL:10,191,194
FNA:10,55,_ZNK4xlnt10sheet_view4typeEv
FNL:11,199,202
FNA:11,53,_ZNK4xlnt10sheet_view17has_top_left_cellEv
FNL:12,207,210
FNA:12,15,_ZN4xlnt10sheet_view13top_left_cellERKNS_14cell_referenceE
FNL:13,215,218
FNA:13,3,_ZNK4xlnt10sheet_view13top_left_cellEv
FNL:14,224,232
FNA:14,8,_ZNK4xlnt10sheet_vieweqERKS0_
FNL:15,55,58
FNA:15,110,_ZN4xlnt10sheet_view2idEm
FNL:16,63,66
FNA:16,53,_ZNK4xlnt10sheet_view2idEv
FNL:17,71,74
FNA:17,64,_ZNK4xlnt10sheet_view8has_paneEv
FNL:18,79,82
FNA:18,50,_ZN4xlnt10sheet_view4paneEv
FNL:19,87,90
FNA:19,3,_ZNK4xlnt10sheet_view4paneEv
FNL:20,95,98
FNA:20,2,_ZN4xlnt10sheet_view10clear_paneEv
FNF:21
FNH:21
BRDA:227,0,0,8
BRDA:227,0,1,0
BRDA:228,0,0,8
BRDA:228,0,1,0
BRDA:229,0,0,8
BRDA:229,0,1,0
BRDA:230,0,0,8
BRDA:230,0,1,0
BRDA:231,0,0,8
BRDA:231,0,1,0
BRDA:231,0,2,8
BRDA:231,0,3,0
BRF:12
BRH:6
DA:55,110
DA:57,110
DA:58,110
DA:63,53
DA:65,53
DA:71,64
DA:73,64
DA:79,50
DA:81,50
DA:87,3
DA:89,3
DA:95,2
DA:97,2
DA:98,2
DA:103,10
DA:105,10
DA:106,10
DA:111,7
DA:113,7
DA:119,84
DA:121,84
DA:122,84
DA:127,9
DA:129,9
DA:130,9
DA:135,72
DA:137,72
DA:143,11
DA:145,11
DA:151,13
DA:153,13
DA:154,13
DA:159,54
DA:161,54
DA:167,13
DA:169,13
DA:170,13
DA:183,4
DA:185,4
DA:186,4
DA:191,55
DA:193,55
DA:199,53
DA:201,53
DA:207,15
DA:209,15
DA:210,15
DA:215,3
DA:217,3
DA:224,8
DA:226,8
DA:227,8
DA:228,8
DA:229,8
DA:230,8
DA:231,16
LF:56
LH:56
end_of_record
TN:
SF:/root/project/source/cell/cell.cpp
FNL:0,1003,1006
FNA:0,0,_ZN4xlnt4cell7commentERKNSt7__cxx1112basic_stringIcSt11char_traitsIcESaIcEEES8_
FNL:1,1008,1011
FNA:1,4,_ZN4xlnt4cell7commentERKNSt7__cxx1112basic_stringIcSt11char_traitsIcESaIcEEERKNS_4fontES8_
FNL:2,1013,1033
FNA:2,34,_ZN4xlnt4cell7commentERKNS_7commentE
FNL:3,1035,1038
FNA:3,34,_ZNK4xlnt4cell5widthEv
FNL:4,1040,1043
FNA:4,0,_ZNK4xlnt4cell6heightEv
FNL:5,155,167
FNA:5,1,_ZN4xlnt4cell11error_codesB5cxx11Ev
FNL:6,169,192
FNA:6,20615,_ZN4xlnt4cell12check_stringERKNSt7__cxx1112basic_stringIcSt11char_traitsIcESaIcEEE
FNL:7,194,197
FNA:7,23778,_ZN4xlnt4cellC2EPNS_6detail9cell_implE
FNL:8,199,202
FNA:8,11216,_ZNK4xlnt4cell19garbage_collectibleEv
FNL:9,204,207
FNA:9,1,_ZN4xlnt4cell5valueEDn
FNL:10,209,213
FNA:10,10,_ZN4xlnt4cell5valueEb
FNL:11,215,219
FNA:11,15,_ZN4xlnt4cell5valueEi
FNL:12,221,225
FNA:12,2,_ZN4xlnt4cell5valueEj
FNL:13,227,231
FNA:13,2,_ZN4xlnt4cell5valueEx
FNL:14,233,237
FNA:14,2,_ZN4xlnt4cell5valueEy
FNL:15,239,243
FNA:15,2,_ZN4xlnt4cell5valueEf
FNL:16,245,249
FNA:16,7,_ZN4xlnt4cell5valueEd
FNL:17,251,254
FNA:17,10322,_ZN4xlnt4cell5valueERKNSt7__cxx1112basic_stringIcSt11char_traitsIcESaIcEEE
FNL:18,256,262
FNA:18,10293,_ZN4xlnt4cell5valueERKNS_9rich_textE
FNL:19,264,267
FNA:19,121,_ZN4xlnt4cell5valueEPKc
FNL:20,269,277
FNA:20,1,_ZN4xlnt4cell5valueES0_
FNL:21,279,284
FNA:21,3,_ZN4xlnt4cell5valueERKNS_4dateE
FNL:22,286,291
FNA:22,5,_ZN4xlnt4cell5valueERKNS_8datetimeE
FNL:23,293,298
FNA:23,2,_ZN4xlnt4cell5valueERKNS_4timeE
FNL:24,300,305
FNA:24,2,_ZN4xlnt4cell5valueERKNS_9timedeltaE
FNL:25,307,310
FNA:25,7,_ZNK4xlnt4cell3rowEv
FNL:26,312,315
FNA:26,39,_ZNK4xlnt4cell6columnEv
FNL:27,317,320
FNA:27,1,_ZNK4xlnt4cell12column_indexEv
FNL:28,322,325
FNA:28,776,_ZN4xlnt4cell6mergedEb
FNL:29,327,330
FNA:29,0,_ZNK4xlnt4cell9is_mergedEv
FNL:30,332,335
FNA:30,11223,_ZNK4xlnt4cell17phonetics_visibleEv
FNL:31,337,340
FNA:31,2,_ZN4xlnt4cell14show_phoneticsEb
FNL:32,342,347
FNA:32,7,_ZNK4xlnt4cell7is_dateEv
FNL:33,349,352
FNA:33,11383,_ZNK4xlnt4cell9referenceEv
FNL:34,354,364
FNA:34,17,_ZNK4xlnt4cell7compareERKS0_b
FNL:35,366,369
FNA:35,17,_ZNK4xlnt4celleqERKS0_
FNL:36,371,374
FNA:36,2,_ZNK4xlnt4cellneERKS0_
FNL:37,376,376
FNA:37,1,_ZN4xlnt4cellaSERKS0_
FNL:38,378,381
FNA:38,62,_ZNK4xlnt4cell9hyperlinkEv
FNL:39,383,423
FNA:39,38,_ZN4xlnt4cell9hyperlinkERKNSt7__cxx1112basic_stringIcSt11char_traitsIcESaIcEEES8_
FNL:40,398,398
FNA:40,57,_ZZN4xlnt4cell9hyperlinkERKNSt7__cxx1112basic_stringIcSt11char_traitsIcESaIcEEES8_ENKUlNS_12relationshipEE_clES9_
FNL:41,425,443
FNA:41,4,_ZN4xlnt4cell9hyperlinkES0_RKNSt7__cxx1112basic_stringIcSt11char_traitsIcESaIcEEE
FNL:42,445,464
FNA:42,3,_ZN4xlnt4cell9hyperlinkENS_5rangeERKNSt7__cxx1112basic_stringIcSt11char_traitsIcESaIcEEE
FNL:43,466,483
FNA:43,18,_ZN4xlnt4cell7formulaERKNSt7__cxx1112basic_stringIcSt11char_traitsIcESaIcEEE
FNL:44,485,488
FNA:44,12467,_ZNK4xlnt4cell11has_formulaEv
FNL:45,490,493
FNA:45,19,_ZNK4xlnt4cell7formulaB5cxx11Ev
FNL:46,495,502
FNA:46,795,_ZN4xlnt4cell13clear_formulaEv
FNL:47,504,511
FNA:47,21,_ZNK4xlnt4cell5errorB5cxx11Ev
FNL:48,513,522
FNA:48,17,_ZN4xlnt4cell5errorERKNSt7__cxx1112basic_stringIcSt11char_traitsIcESaIcEEE
FNL:49,524,527
FNA:49,1,_ZN4xlnt4cell6offsetEii
FNL:50,529,532
FNA:50,10966,_ZN4xlnt4cell9worksheetEv
FNL:51,534,537
FNA:51,265,_ZNK4xlnt4cell9worksheetEv
FNL:52,539,542
FNA:52,10855,_ZN4xlnt4cell8workbookEv
FNL:53,544,547
FNA:53,215,_ZNK4xlnt4cell8workbookEv
FNL:54,549,566
FNA:54,35,_ZNK4xlnt4cell6anchorEv
FNL:55,568,571
FNA:55,23504,_ZNK4xlnt4cell9data_typeEv
FNL:56,573,576
FNA:56,151,_ZN4xlnt4cell9data_typeENS_9cell_typeE
FNL:57,578,581
FNA:57,60,_ZNK4xlnt4cell22computed_number_formatEv
FNL:58,583,586
FNA:58,0,_ZNK4xlnt4cell13computed_fontEv
FNL:59,588,591
FNA:59,0,_ZNK4xlnt4cell13computed_fillEv
FNL:60,593,596
FNA:60,0,_ZNK4xlnt4cell15computed_borderEv
FNL:61,598,601
FNA:61,0,_ZNK4xlnt4cell18computed_alignmentEv
FNL:62,603,606
FNA:62,0,_ZNK4xlnt4cell19computed_protectionEv
FNL:63,608,614
FNA:63,768,_ZN4xlnt4cell11clear_valueEv
FNL:64,617,620
FNA:64,7,_ZNK4xlnt4cell5valueIbEET_v
FNL:65,623,626
FNA:65,24,_ZNK4xlnt4cell5valueIiEET_v
FNL:66,629,632
FNA:66,1,_ZNK4xlnt4cell5valueIxEET_v
FNL:67,635,638
FNA:67,1,_ZNK4xlnt4cell5valueIjEET_v
FNL:68,641,644
FNA:68,1,_ZNK4xlnt4cell5valueIyEET_v
FNL:69,647,650
FNA:69,1,_ZNK4xlnt4cell5valueIfEET_v
FNL:70,65,72
FNA:70,11,_ZN12_GLOBAL__N_112cast_numericERKNSt7__cxx1112basic_stringIcSt11char_traitsIcESaIcEEE
FNL:71,653,656
FNA:71,69,_ZNK4xlnt4cell5valueIdEET_v
FNL:72,659,662
FNA:72,3,_ZNK4xlnt4cell5valueINS_4timeEEET_v
FNL:73,665,668
FNA:73,0,_ZNK4xlnt4cell5valueINS_8datetimeEEET_v
FNL:74,671,674
FNA:74,0,_ZNK4xlnt4cell5valueINS_4dateEEET_v
FNL:75,677,680
FNA:75,0,_ZNK4xlnt4cell5valueINS_9timedeltaEEET_v
FNL:76,682,686
FNA:76,1,_ZN4xlnt4cell9alignmentERKNS_9alignmentE
FNL:77,688,692
FNA:77,1,_ZN4xlnt4cell6borderERKNS_6borderE
FNL:78,694,698
FNA:78,3,_ZN4xlnt4cell4fillERKNS_4fillE
FNL:79,700,704
FNA:79,23,_ZN4xlnt4cell4fontERKNS_4fontE
FNL:80,706,710
FNA:80,22,_ZN4xlnt4cell13number_formatERKNS_13number_formatE
FNL:81,712,716
FNA:81,1,_ZN4xlnt4cell10protectionERKNS_10protectionE
FNL:82,719,722
FNA:82,223,_ZNK4xlnt4cell5valueINSt7__cxx1112basic_stringIcSt11char_traitsIcESaIcEEEEET_v
FNL:83,725,733
FNA:83,226,_ZNK4xlnt4cell5valueINS_9rich_textEEET_v
FNL:84,735,738
FNA:84,112,_ZNK4xlnt4cell9has_valueEv
FNL:85,74,87
FNA:85,14,_ZN12_GLOBAL__N_115cast_percentageERKNSt7__cxx1112basic_stringIcSt11char_traitsIcESaIcEEE
FNL:86,740,761
FNA:86,60,_ZNK4xlnt4cell9to_stringB5cxx11Ev
FNL:87,763,766
FNA:87,11904,_ZNK4xlnt4cell10has_formatEv
FNL:88,768,777
FNA:88,349,_ZN4xlnt4cell6formatENS_6formatE
FNL:89,779,782
FNA:89,14,_ZNK4xlnt4cell9base_dateEv
FNL:90,784,787
FNA:90,4,_ZN4xlnteqEDnRKNS_4cellE
FNL:91,789,792
FNA:91,2,_ZN4xlnteqERKNS_4cellEDn
FNL:92,794,797
FNA:92,0,_ZN4xlntneEDnRKNS_4cellE
FNL:93,799,802
FNA:93,0,_ZN4xlntneERKNS_4cellEDn
FNL:94,804,807
FNA:94,6,_ZN4xlntlsERSoRKNS_4cellE
FNL:95,809,859
FNA:95,23,_ZN4xlnt4cell5valueERKNSt7__cxx1112basic_stringIcSt11char_traitsIcESaIcEEEb
FNL:96,861,868
FNA:96,2,_ZN4xlnt4cell12clear_formatEv
FNL:97,870,876
FNA:97,2,_ZN4xlnt4cell11clear_styleEv
FNL:98,878,888
FNA:98,260,_ZN4xlnt4cell5styleERKNS_5styleE
FNL:99,89,149
FNA:99,13,_ZN12_GLOBAL__N_19cast_timeERKNSt7__cxx1112basic_stringIcSt11char_traitsIcESaIcEEE
FNL:100,890,893
FNA:100,258,_ZN4xlnt4cell5styleERKNSt7__cxx1112basic_stringIcSt11char_traitsIcESaIcEEE
FNL:101,895,905
FNA:101,7,_ZN4xlnt4cell5styleEv
FNL:102,907,915
FNA:102,0,_ZNK4xlnt4cell5styleEv
FNL:103,917,920
FNA:103,5,_ZNK4xlnt4cell9has_styleEv
FNL:104,922,930
FNA:104,7,_ZN4xlnt4cell17modifiable_formatEv
FNL:105,932,940
FNA:105,658,_ZNK4xlnt4cell6formatEv
FNL:106,942,945
FNA:106,1,_ZNK4xlnt4cell9alignmentEv
FNL:107,947,950
FNA:107,1,_ZNK4xlnt4cell6borderEv
FNL:108,952,955
FNA:108,3,_ZNK4xlnt4cell4fillEv
FNL:109,957,960
FNA:109,7,_ZNK4xlnt4cell4fontEv
FNL:110,962,965
FNA:110,17,_ZNK4xlnt4cell13number_formatEv
FNL:111,967,970
FNA:111,1,_ZNK4xlnt4cell10protectionEv
FNL:112,972,975
FNA:112,11226,_ZNK4xlnt4cell13has_hyperlinkEv
FNL:113,979,982
FNA:113,11308,_ZN4xlnt4cell11has_commentEv
FNL:114,984,991
FNA:114,1,_ZN4xlnt4cell13clear_commentEv
FNL:115,993,1001
FNA:115,56,_ZN4xlnt4cell7commentEv
FNF:116
FNH:102
BRDA:68,0,0,11
BRDA:68,e0,1,0
BRDA:70,0,0,2
BRDA:70,0,1,9
BRDA:76,0,0,1
BRDA:76,0,1,13
BRDA:78,0,0,1
BRDA:78,e0,1,0
BRDA:78,0,2,1
BRDA:78,e0,3,0
BRDA:80,0,0,1
BRDA:80,0,1,0
BRDA:91,0,0,13
BRDA:91,e0,1,0
BRDA:97,0,0,5
BRDA:97,0,1,13
BRDA:99,0,0,5
BRDA:99,e0,1,0
BRDA:99,0,2,5
BRDA:99,e0,3,0
BRDA:104,0,0,13
BRDA:104,e0,1,0
BRDA:104,0,2,13
BRDA:104,e0,3,0
BRDA:106,0,0,4
BRDA:106,0,1,9
BRDA:106,0,2,0
BRDA:106,0,3,4
BRDA:106,0,4,9
BRDA:106,0,5,4
BRDA:113,0,0,9
BRDA:113,0,1,3
BRDA:115,0,0,8
BRDA:115,0,1,1
BRDA:115,0,2,8
BRDA:115,e0,3,0
BRDA:115,0,4,0
BRDA:115,0,5,8
BRDA:115,0,6,8
BRDA:115,0,7,1
BRDA:115,0,8,1
BRDA:115,0,9,8
BRDA:115,0,10,0
BRDA:115,0,11,0
BRDA:120,0,0,26
BRDA:120,0,1,8
BRDA:122,0,0,25
BRDA:122,0,1,1
BRDA:122,0,2,0
BRDA:122,0,3,25
BRDA:122,0,4,0
BRDA:122,0,5,1
BRDA:127,0,0,8
BRDA:127,e0,1,0
BRDA:129,0,0,8
BRDA:129,e0,1,0
BRDA:135,0,0,1
BRDA:135,0,1,2
BRDA:142,0,0,1
BRDA:142,0,1,1
BRDA:164,0,0,1
BRDA:164,0,1,0
BRDA:164,0,2,1
BRDA:164,0,3,0
BRDA:164,0,4,1
BRDA:164,e0,5,0
BRDA:164,0,6,7
BRDA:164,0,7,1
BRDA:164,0,8,0
BRDA:164,0,9,0
BRDA:164,0,10,0
BRDA:164,0,11,0
BRDA:167,0,0,1
BRDA:167,e0,1,0
BRDA:167,0,2,1
BRDA:167,e0,3,0
BRDA:167,0,4,1
BRDA:167,e0,5,0
BRDA:167,0,6,1
BRDA:167,e0,7,0
BRDA:167,0,8,1
BRDA:167,e0,9,0
BRDA:167,0,10,1
BRDA:167,e0,11,0
BRDA:167,0,12,1
BRDA:167,e0,13,0
BRDA:167,0,14,0
BRDA:167,0,15,0
BRDA:167,0,16,0
BRDA:167,0,17,0
BRDA:174,0,0,2
BRDA:174,0,1,20613
BRDA:178,0,0,1
BRDA:178,0,1,20612
BRDA:180,0,0,1
BRDA:180,e0,1,0
BRDA:183,0,0,106193
BRDA:183,0,1,20584
BRDA:185,0,0,106193
BRDA:185,0,1,0
BRDA:185,0,2,106184
BRDA:185,0,3,9
BRDA:185,0,4,106183
BRDA:185,0,5,1
BRDA:185,0,6,106182
BRDA:185,0,7,1
BRDA:185,0,8,106176
BRDA:185,0,9,6
BRDA:185,0,10,18
BRDA:185,0,11,106158
BRDA:187,0,0,29
BRDA:187,e0,1,0
BRDA:212,0,0,6
BRDA:212,0,1,4
BRDA:253,0,0,10293
BRDA:253,e0,1,29
BRDA:253,0,2,10293
BRDA:253,e0,3,0
BRDA:253,0,4,10293
BRDA:253,e0,5,0
BRDA:258,0,0,10293
BRDA:258,e0,1,0
BRDA:258,0,2,10293
BRDA:258,e0,3,0
BRDA:261,0,0,10293
BRDA:261,e0,1,0
BRDA:261,0,2,10293
BRDA:261,e0,3,0
BRDA:266,0,0,121
BRDA:266,e0,1,0
BRDA:266,0,2,121
BRDA:266,e0,3,0
BRDA:283,0,0,3
BRDA:283,e0,1,0
BRDA:283,0,2,3
BRDA:283,e0,3,0
BRDA:290,0,0,5
BRDA:290,e0,1,0
BRDA:290,0,2,5
BRDA:290,e0,3,0
BRDA:297,0,0,2
BRDA:297,e0,1,0
BRDA:297,0,2,2
BRDA:297,e0,3,0
BRDA:304,0,0,2
BRDA:304,e0,1,0
BRDA:304,0,2,2
BRDA:304,e0,3,0
BRDA:304,0,4,2
BRDA:304,e0,5,0
BRDA:345,0,0,4
BRDA:345,0,1,0
BRDA:346,0,0,4
BRDA:346,0,1,3
BRDA:346,0,2,4
BRDA:346,e0,3,0
BRDA:346,0,4,4
BRDA:346,e0,5,0
BRDA:346,0,6,3
BRDA:346,0,7,1
BRDA:346,0,8,4
BRDA:346,0,9,3
BRDA:346,0,10,0
BRDA:346,0,11,0
BRDA:351,0,0,11383
BRDA:351,e0,1,0
BRDA:356,0,0,17
BRDA:356,0,1,0
BRDA:380,0,0,61
BRDA:380,e0,1,1
BRDA:380,0,2,61
BRDA:380,e0,3,0
BRDA:385,0,0,1
BRDA:385,0,1,37
BRDA:387,0,0,1
BRDA:387,e0,1,0
BRDA:390,0,0,37
BRDA:390,e0,1,0
BRDA:391,0,0,37
BRDA:391,e0,1,0
BRDA:391,0,2,37
BRDA:391,e0,3,0
BRDA:393,0,0,37
BRDA:393,e0,1,0
BRDA:396,0,0,37
BRDA:396,e0,1,0
BRDA:396,0,2,37
BRDA:396,e0,3,0
BRDA:397,0,0,37
BRDA:397,e0,1,0
BRDA:399,0,0,30
BRDA:399,0,1,7
BRDA:401,0,0,30
BRDA:401,e0,1,0
BRDA:401,0,2,30
BRDA:401,e0,3,0
BRDA:406,0,0,7
BRDA:406,e0,1,0
BRDA:406,0,2,7
BRDA:406,e0,3,0
BRDA:406,0,4,7
BRDA:406,e0,5,0
BRDA:408,0,0,7
BRDA:408,e0,1,0
BRDA:409,0,0,7
BRDA:409,e0,1,0
BRDA:411,0,0,7
BRDA:411,e0,1,0
BRDA:411,0,2,7
BRDA:411,e0,3,0
BRDA:411,0,4,7
BRDA:411,e0,5,0
BRDA:414,0,0,31
BRDA:414,0,1,6
BRDA:416,0,0,31
BRDA:416,e0,1,0
BRDA:416,0,2,31
BRDA:416,e0,3,0
BRDA:420,0,0,6
BRDA:420,e0,1,0
BRDA:420,0,2,3
BRDA:420,0,3,3
BRDA:420,0,4,6
BRDA:420,e0,5,0
BRDA:421,0,0,6
BRDA:421,e0,1,0
BRDA:421,0,2,6
BRDA:421,e0,3,0
BRDA:421,0,4,6
BRDA:421,e0,5,0
BRDA:428,0,0,4
BRDA:428,e0,1,0
BRDA:428,0,2,4
BRDA:428,e0,3,0
BRDA:428,0,4,4
BRDA:428,e0,5,0
BRDA:428,0,6,4
BRDA:428,e0,7,0
BRDA:428,0,8,4
BRDA:428,e0,9,0
BRDA:428,0,10,4
BRDA:428,e0,11,0
BRDA:430,0,0,4
BRDA:430,e0,1,0
BRDA:431,0,0,4
BRDA:431,e0,1,0
BRDA:432,0,0,4
BRDA:432,e0,1,0
BRDA:432,0,2,4
BRDA:432,e0,3,0
BRDA:432,0,4,4
BRDA:432,e0,5,0
BRDA:432,0,6,4
BRDA:432,e0,7,0
BRDA:432,0,8,4
BRDA:432,e0,9,0
BRDA:434,0,0,1
BRDA:434,0,1,3
BRDA:436,0,0,1
BRDA:436,e0,1,0
BRDA:436,0,2,1
BRDA:436,e0,3,0
BRDA:440,0,0,3
BRDA:440,e0,1,0
BRDA:440,0,2,2
BRDA:440,0,3,1
BRDA:440,0,4,3
BRDA:440,e0,5,0
BRDA:441,0,0,3
BRDA:441,e0,1,0
BRDA:441,0,2,3
BRDA:441,e0,3,0
BRDA:441,0,4,3
BRDA:441,e0,5,0
BRDA:448,0,0,3
BRDA:448,e0,1,0
BRDA:448,0,2,3
BRDA:448,e0,3,0
BRDA:448,0,4,3
BRDA:448,e0,5,0
BRDA:448,0,6,3
BRDA:448,e0,7,0
BRDA:448,0,8,3
BRDA:448,e0,9,0
BRDA:448,0,10,3
BRDA:448,e0,11,0
BRDA:450,0,0,3
BRDA:450,e0,1,0
BRDA:451,0,0,3
BRDA:451,e0,1,0
BRDA:452,0,0,3
BRDA:452,e0,1,0
BRDA:452,0,2,3
BRDA:452,e0,3,0
BRDA:452,0,4,3
BRDA:452,e0,5,0
BRDA:452,0,6,3
BRDA:452,e0,7,0
BRDA:452,0,8,3
BRDA:452,e0,9,0
BRDA:455,0,0,1
BRDA:455,0,1,2
BRDA:457,0,0,1
BRDA:457,e0,1,0
BRDA:457,0,2,1
BRDA:457,e0,3,0
BRDA:461,0,0,2
BRDA:461,e0,1,0
BRDA:461,0,2,1
BRDA:461,0,3,1
BRDA:461,0,4,2
BRDA:461,e0,5,0
BRDA:462,0,0,2
BRDA:462,e0,1,0
BRDA:462,0,2,2
BRDA:462,e0,3,0
BRDA:462,0,4,2
BRDA:462,e0,5,0
BRDA:468,0,0,1
BRDA:468,0,1,17
BRDA:473,0,0,8
BRDA:473,0,1,9
BRDA:475,0,0,8
BRDA:475,e0,1,0
BRDA:482,0,0,17
BRDA:482,e0,1,0
BRDA:482,0,2,17
BRDA:482,e0,3,0
BRDA:497,0,0,18
BRDA:497,0,1,777
BRDA:500,0,0,18
BRDA:500,e0,1,0
BRDA:500,0,2,18
BRDA:500,e0,3,0
BRDA:506,0,0,7
BRDA:506,0,1,14
BRDA:508,0,0,7
BRDA:508,e0,1,0
BRDA:508,0,2,7
BRDA:508,e0,3,0
BRDA:515,0,0,16
BRDA:515,0,1,1
BRDA:515,0,2,1
BRDA:515,0,3,15
BRDA:515,0,4,2
BRDA:515,0,5,15
BRDA:517,0,0,2
BRDA:517,e0,1,0
BRDA:526,0,0,1
BRDA:526,e0,1,0
BRDA:526,0,2,1
BRDA:526,e0,3,0
BRDA:526,0,4,1
BRDA:526,e0,5,0
BRDA:526,0,6,1
BRDA:526,e0,7,0
BRDA:541,0,0,10855
BRDA:541,e0,1,0
BRDA:541,0,2,10855
BRDA:541,e0,3,0
BRDA:546,0,0,215
BRDA:546,e0,1,0
BRDA:546,0,2,215
BRDA:546,e0,3,0
BRDA:553,0,0,35
BRDA:553,e0,1,0
BRDA:553,0,2,35
BRDA:553,e0,3,0
BRDA:553,0,4,35
BRDA:553,e0,5,0
BRDA:553,0,6,35
BRDA:553,e0,7,0
BRDA:553,0,8,0
BRDA:553,0,9,35
BRDA:555,0,0,-
BRDA:555,e0,1,-
BRDA:555,0,2,-
BRDA:555,e0,3,-
BRDA:555,0,4,-
BRDA:555,e0,5,-
BRDA:560,0,0,16
BRDA:560,0,1,35
BRDA:562,0,0,16
BRDA:562,e0,1,0
BRDA:562,0,2,16
BRDA:562,e0,3,0
BRDA:605,0,0,-
BRDA:605,e0,1,-
BRDA:684,0,0,0
BRDA:684,0,1,1
BRDA:684,0,2,0
BRDA:684,e0,3,0
BRDA:684,0,4,1
BRDA:684,e0,5,0
BRDA:684,0,6,1
BRDA:684,e0,7,0
BRDA:684,0,8,1
BRDA:684,0,9,0
BRDA:684,0,10,0
BRDA:684,0,11,0
BRDA:685,0,0,1
BRDA:685,e0,1,0
BRDA:685,0,2,1
BRDA:685,e0,3,0
BRDA:690,0,0,0
BRDA:690,0,1,1
BRDA:690,0,2,0
BRDA:690,e0,3,0
BRDA:690,0,4,1
BRDA:690,e0,5,0
BRDA:690,0,6,1
BRDA:690,e0,7,0
BRDA:690,0,8,1
BRDA:690,0,9,0
BRDA:690,0,10,0
BRDA:690,0,11,0
BRDA:691,0,0,1
BRDA:691,e0,1,0
BRDA:691,0,2,1
BRDA:691,e0,3,0
BRDA:696,0,0,0
BRDA:696,0,1,3
BRDA:696,0,2,0
BRDA:696,e0,3,0
BRDA:696,0,4,3
BRDA:696,e0,5,0
BRDA:696,0,6,3
BRDA:696,e0,7,0
BRDA:696,0,8,3
BRDA:696,0,9,0
BRDA:696,0,10,0
BRDA:696,0,11,0
BRDA:697,0,0,3
BRDA:697,e0,1,0
BRDA:697,0,2,3
BRDA:697,e0,3,0
BRDA:702,0,0,1
BRDA:702,0,1,22
BRDA:702,0,2,1
BRDA:702,e0,3,0
BRDA:702,0,4,22
BRDA:702,e0,5,0
BRDA:702,0,6,22
BRDA:702,e0,7,0
BRDA:702,0,8,22
BRDA:702,0,9,1
BRDA:702,0,10,0
BRDA:702,0,11,0
BRDA:703,0,0,23
BRDA:703,e0,1,0
BRDA:703,0,2,23
BRDA:703,e0,3,0
BRDA:708,0,0,4
BRDA:708,0,1,18
BRDA:708,0,2,4
BRDA:708,e0,3,0
BRDA:708,0,4,18
BRDA:708,e0,5,0
BRDA:708,0,6,18
BRDA:708,e0,7,0
BRDA:708,0,8,18
BRDA:708,0,9,4
BRDA:708,0,10,0
BRDA:708,0,11,0
BRDA:709,0,0,22
BRDA:709,e0,1,0
BRDA:709,0,2,22
BRDA:709,e0,3,0
BRDA:714,0,0,0
BRDA:714,0,1,1
BRDA:714,0,2,0
BRDA:714,e0,3,0
BRDA:714,0,4,1
BRDA:714,e0,5,0
BRDA:714,0,6,1
BRDA:714,e0,7,0
BRDA:714,0,8,1
BRDA:714,0,9,0
BRDA:714,0,10,0
BRDA:714,0,11,0
BRDA:715,0,0,1
BRDA:715,e0,1,0
BRDA:715,0,2,1
BRDA:715,e0,3,0
BRDA:721,0,0,223
BRDA:721,e0,1,0
BRDA:721,0,2,223
BRDA:721,e0,3,0
BRDA:727,0,0,201
BRDA:727,0,1,25
BRDA:729,0,0,201
BRDA:729,e0,1,0
BRDA:729,0,2,201
BRDA:729,e0,3,0
BRDA:729,0,4,201
BRDA:729,e0,5,0
BRDA:742,0,0,60
BRDA:742,e0,1,0
BRDA:744,0,0,2
BRDA:744,0,1,6
BRDA:744,0,2,48
BRDA:744,0,3,4
BRDA:744,0,4,0
BRDA:747,0,0,2
BRDA:747,e0,1,0
BRDA:750,0,0,6
BRDA:750,e0,1,0
BRDA:750,0,2,6
BRDA:750,e0,3,0
BRDA:755,0,0,48
BRDA:755,e0,1,0
BRDA:755,0,2,48
BRDA:755,e0,3,0
BRDA:757,0,0,2
BRDA:757,0,1,2
BRDA:757,0,2,4
BRDA:757,e0,3,0
BRDA:760,0,0,-
BRDA:760,e0,1,-
BRDA:770,0,0,8
BRDA:770,0,1,341
BRDA:772,0,0,8
BRDA:772,0,1,0
BRDA:781,0,0,14
BRDA:781,e0,1,0
BRDA:781,0,2,14
BRDA:781,e0,3,0
BRDA:806,0,0,6
BRDA:806,e0,1,0
BRDA:806,0,2,6
BRDA:806,e0,3,0
BRDA:811,0,0,23
BRDA:811,e0,1,0
BRDA:813,0,0,23
BRDA:813,0,1,0
BRDA:813,0,2,0
BRDA:813,0,3,23
BRDA:813,0,4,0
BRDA:813,0,5,23
BRDA:818,0,0,3
BRDA:818,0,1,20
BRDA:818,0,2,2
BRDA:818,0,3,1
BRDA:818,0,4,2
BRDA:818,0,5,21
BRDA:820,0,0,2
BRDA:820,e0,1,0
BRDA:824,0,0,7
BRDA:824,0,1,14
BRDA:824,0,2,7
BRDA:824,0,3,0
BRDA:824,0,4,7
BRDA:824,0,5,14
BRDA:826,0,0,7
BRDA:826,e0,1,0
BRDA:830,0,0,14
BRDA:830,e0,1,0
BRDA:832,0,0,1
BRDA:832,0,1,13
BRDA:836,0,0,1
BRDA:836,e0,1,0
BRDA:836,0,2,1
BRDA:836,e0,3,0
BRDA:840,0,0,13
BRDA:840,e0,1,0
BRDA:842,0,0,3
BRDA:842,0,1,10
BRDA:845,0,0,3
BRDA:845,e0,1,0
BRDA:845,0,2,3
BRDA:845,e0,3,0
BRDA:846,0,0,3
BRDA:846,e0,1,0
BRDA:850,0,0,10
BRDA:850,e0,1,0
BRDA:852,0,0,8
BRDA:852,0,1,2
BRDA:863,0,0,2
BRDA:863,0,1,0
BRDA:865,0,0,2
BRDA:865,0,1,0
BRDA:872,0,0,2
BRDA:872,0,1,0
BRDA:874,0,0,2
BRDA:874,e0,1,0
BRDA:874,0,2,2
BRDA:874,e0,3,0
BRDA:880,0,0,2
BRDA:880,0,1,258
BRDA:880,0,2,2
BRDA:880,e0,3,0
BRDA:880,0,4,258
BRDA:880,e0,5,0
BRDA:880,0,6,258
BRDA:880,e0,7,0
BRDA:880,0,8,258
BRDA:880,0,9,2
BRDA:880,0,10,0
BRDA:880,0,11,0
BRDA:882,0,0,260
BRDA:882,e0,1,0
BRDA:882,0,2,260
BRDA:882,e0,3,0
BRDA:883,0,0,260
BRDA:883,e0,1,0
BRDA:883,0,2,260
BRDA:883,e0,3,0
BRDA:884,0,0,260
BRDA:884,e0,1,0
BRDA:884,0,2,260
BRDA:884,e0,3,0
BRDA:885,0,0,260
BRDA:885,e0,1,0
BRDA:885,0,2,260
BRDA:885,e0,3,0
BRDA:887,0,0,260
BRDA:887,e0,1,0
BRDA:887,0,2,260
BRDA:887,e0,3,0
BRDA:892,0,0,258
BRDA:892,e0,1,0
BRDA:892,0,2,257
BRDA:892,e0,3,1
BRDA:892,0,4,257
BRDA:892,e0,5,0
BRDA:897,0,0,7
BRDA:897,0,1,0
BRDA:897,0,2,7
BRDA:897,e0,3,0
BRDA:897,0,4,7
BRDA:897,e0,5,0
BRDA:897,0,6,1
BRDA:897,0,7,6
BRDA:897,0,8,1
BRDA:897,0,9,6
BRDA:899,0,0,1
BRDA:899,e0,1,0
BRDA:902,0,0,6
BRDA:902,e0,1,0
BRDA:904,0,0,6
BRDA:904,e0,1,0
BRDA:909,0,0,-
BRDA:909,0,1,-
BRDA:909,0,2,-
BRDA:909,e0,3,-
BRDA:909,0,4,-
BRDA:909,e0,5,-
BRDA:909,0,6,-
BRDA:909,0,7,-
BRDA:909,0,8,-
BRDA:909,0,9,-
BRDA:911,0,0,-
BRDA:911,e0,1,-
BRDA:914,0,0,-
BRDA:914,e0,1,-
BRDA:914,0,2,-
BRDA:914,e0,3,-
BRDA:919,0,0,4
BRDA:919,0,1,1
BRDA:919,0,2,4
BRDA:919,e0,3,0
BRDA:919,0,4,4
BRDA:919,e0,5,0
BRDA:919,0,6,2
BRDA:919,0,7,2
BRDA:924,0,0,0
BRDA:924,0,1,7
BRDA:926,0,0,-
BRDA:926,e0,1,-
BRDA:929,0,0,7
BRDA:929,e0,1,0
BRDA:929,0,2,7
BRDA:929,e0,3,0
BRDA:934,0,0,0
BRDA:934,0,1,658
BRDA:936,0,0,-
BRDA:936,e0,1,-
BRDA:939,0,0,658
BRDA:939,e0,1,0
BRDA:939,0,2,658
BRDA:939,e0,3,0
BRDA:944,0,0,1
BRDA:944,e0,1,0
BRDA:944,0,2,1
BRDA:944,e0,3,0
BRDA:949,0,0,1
BRDA:949,e0,1,0
BRDA:949,0,2,1
BRDA:949,e0,3,0
BRDA:954,0,0,3
BRDA:954,e0,1,0
BRDA:954,0,2,3
BRDA:954,e0,3,0
BRDA:959,0,0,7
BRDA:959,e0,1,0
BRDA:959,0,2,7
BRDA:959,e0,3,0
BRDA:964,0,0,17
BRDA:964,e0,1,0
BRDA:964,0,2,17
BRDA:964,e0,3,0
BRDA:969,0,0,1
BRDA:969,e0,1,0
BRDA:969,0,2,1
BRDA:969,e0,3,0
BRDA:986,0,0,1
BRDA:986,0,1,0
BRDA:988,0,0,1
BRDA:988,e0,1,0
BRDA:988,0,2,1
BRDA:988,e0,3,0
BRDA:988,0,4,1
BRDA:988,e0,5,0
BRDA:995,0,0,2
BRDA:995,0,1,54
BRDA:997,0,0,2
BRDA:997,e0,1,0
BRDA:997,0,2,2
BRDA:997,e0,3,0
BRDA:1005,0,0,-
BRDA:1005,e0,1,-
BRDA:1005,0,2,-
BRDA:1005,e0,3,-
BRDA:1010,0,0,4
BRDA:1010,e0,1,0
BRDA:1010,0,2,4
BRDA:1010,e0,3,0
BRDA:1010,0,4,4
BRDA:1010,e0,5,0
BRDA:1015,0,0,0
BRDA:1015,0,1,34
BRDA:1017,0,0,-
BRDA:1017,e0,1,-
BRDA:1017,0,2,-
BRDA:1017,e0,3,-
BRDA:1021,0,0,34
BRDA:1021,e0,1,0
BRDA:1021,0,2,34
BRDA:1021,e0,3,0
BRDA:1021,0,4,34
BRDA:1021,e0,5,0
BRDA:1021,0,6,34
BRDA:1021,e0,7,0
BRDA:1022,0,0,34
BRDA:1022,e0,1,0
BRDA:1022,0,2,34
BRDA:1022,e0,3,0
BRDA:1022,0,4,34
BRDA:1022,e0,5,0
BRDA:1026,0,0,34
BRDA:1026,e0,1,0
BRDA:1027,0,0,34
BRDA:1027,e0,1,0
BRDA:1030,0,0,34
BRDA:1030,e0,1,0
BRDA:1030,0,2,34
BRDA:1030,e0,3,0
BRDA:1032,0,0,34
BRDA:1032,e0,1,0
BRDA:1032,0,2,34
BRDA:1032,e0,3,0
BRDA:1037,0,0,34
BRDA:1037,e0,1,0
BRDA:1037,0,2,34
BRDA:1037,e0,3,0
BRDA:1042,0,0,-
BRDA:1042,e0,1,-
BRDA:1042,0,2,-
BRDA:1042,e0,3,-
BRF:769
BRH:415
DA:65,11
DA:67,11
DA:68,11
DA:69,11
DA:70,11
DA:71,11
DA:74,14
DA:76,14
DA:78,1
DA:80,1
DA:82,1
DA:86,13
DA:89,13
DA:91,13
DA:93,13
DA:94,13
DA:95,13
DA:97,18
DA:99,5
DA:100,5
DA:101,5
DA:104,13
DA:106,13
DA:108,9
DA:111,4
DA:113,12
DA:115,9
DA:117,1
DA:120,34
DA:122,26
DA:124,0
DA:127,8
DA:129,8
DA:132,3
DA:133,3
DA:135,3
DA:137,1
DA:138,1
DA:139,1
DA:140,1
DA:142,2
DA:144,1
DA:145,1
DA:148,3
DA:149,13
DA:155,1
DA:158,0
DA:159,0
DA:160,0
DA:161,0
DA:162,0
DA:163,0
DA:164,10
DA:166,1
DA:167,1
DA:169,20615
DA:172,20615
DA:174,20615
DA:176,2
DA:178,20613
DA:180,1
DA:183,126777
DA:185,106193
DA:187,29
DA:191,20584
DA:192,29
DA:194,23778
DA:195,23778
DA:197,23778
DA:199,11216
DA:201,11216
DA:204,1
DA:206,1
DA:207,1
DA:209,10
DA:211,10
DA:212,10
DA:213,10
DA:215,15
DA:217,15
DA:218,15
DA:219,15
DA:221,2
DA:223,2
DA:224,2
DA:225,2
DA:227,2
DA:229,2
DA:230,2
DA:231,2
DA:233,2
DA:235,2
DA:236,2
DA:237,2
DA:239,2
DA:241,2
DA:242,2
DA:243,2
DA:245,7
DA:247,7
DA:248,7
DA:249,7
DA:251,10322
DA:253,10322
DA:254,10293
DA:256,10293
DA:258,10293
DA:260,10293
DA:261,10293
DA:262,10293
DA:264,121
DA:266,121
DA:267,121
DA:269,1
DA:271,1
DA:272,1
DA:273,1
DA:274,1
DA:275,1
DA:276,1
DA:277,1
DA:279,3
DA:281,3
DA:282,3
DA:283,3
DA:284,3
DA:286,5
DA:288,5
DA:289,5
DA:290,5
DA:291,5
DA:293,2
DA:295,2
DA:296,2
DA:297,2
DA:298,2
DA:300,2
DA:302,2
DA:303,2
DA:304,2
DA:305,2
DA:307,7
DA:309,7
DA:312,39
DA:314,39
DA:317,1
DA:319,1
DA:322,776
DA:324,776
DA:325,776
DA:327,0
DA:329,0
DA:332,11223
DA:334,11223
DA:337,2
DA:339,2
DA:340,2
DA:342,7
DA:344,7
DA:345,4
DA:346,11
DA:349,11383
DA:351,11383
DA:354,17
DA:356,17
DA:358,17
DA:362,0
DA:366,17
DA:368,17
DA:371,2
DA:373,2
DA:376,1
DA:378,62
DA:380,62
DA:383,38
DA:385,38
DA:387,1
DA:390,37
DA:391,37
DA:393,37
DA:396,37
DA:397,37
DA:398,57
DA:399,37
DA:401,30
DA:406,14
DA:408,14
DA:409,7
DA:411,7
DA:412,7
DA:414,37
DA:416,31
DA:420,6
DA:421,6
DA:423,37
DA:425,4
DA:428,4
DA:430,4
DA:431,8
DA:432,28
DA:434,4
DA:436,1
DA:440,3
DA:441,3
DA:443,4
DA:445,3
DA:448,3
DA:450,3
DA:451,6
DA:452,21
DA:455,3
DA:457,1
DA:461,2
DA:462,2
DA:464,3
DA:466,18
DA:468,18
DA:470,1
DA:473,17
DA:475,8
DA:479,9
DA:482,17
DA:485,12467
DA:487,12467
DA:490,19
DA:492,19
DA:495,795
DA:497,795
DA:499,18
DA:500,18
DA:502,795
DA:504,21
DA:506,21
DA:508,21
DA:510,14
DA:513,17
DA:515,17
DA:517,2
DA:520,15
DA:521,15
DA:522,15
DA:524,1
DA:526,1
DA:529,10966
DA:531,10966
DA:534,265
DA:536,265
DA:539,10855
DA:541,10855
DA:544,215
DA:546,215
DA:549,35
DA:551,35
DA:553,35
DA:555,0
DA:558,35
DA:560,51
DA:562,16
DA:565,35
DA:568,23504
DA:570,23504
DA:573,151
DA:575,151
DA:576,151
DA:578,60
DA:580,60
DA:583,0
DA:585,0
DA:588,0
DA:590,0
DA:593,0
DA:595,0
DA:598,0
DA:600,0
DA:603,0
DA:605,0
DA:608,768
DA:610,768
DA:611,768
DA:612,768
DA:613,768
DA:614,768
DA:617,7
DA:619,7
DA:623,24
DA:625,24
DA:629,1
DA:631,1
DA:635,1
DA:637,1
DA:641,1
DA:643,1
DA:647,1
DA:649,1
DA:653,69
DA:655,69
DA:659,3
DA:661,3
DA:665,0
DA:667,0
DA:671,0
DA:673,0
DA:677,0
DA:679,0
DA:682,1
DA:684,1
DA:685,1
DA:686,1
DA:688,1
DA:690,1
DA:691,1
DA:692,1
DA:694,3
DA:696,3
DA:697,3
DA:698,3
DA:700,23
DA:702,23
DA:703,23
DA:704,23
DA:706,22
DA:708,22
DA:709,22
DA:710,22
DA:712,1
DA:714,1
DA:715,1
DA:716,1
DA:719,223
DA:721,223
DA:725,226
DA:727,226
DA:729,201
DA:732,25
DA:735,112
DA:737,112
DA:740,60
DA:742,60
DA:744,60
DA:746,2
DA:747,4
DA:748,6
DA:750,6
DA:751,48
DA:755,48
DA:756,4
DA:757,8
DA:760,0
DA:761,60
DA:763,11904
DA:765,11904
DA:768,349
DA:770,349
DA:772,8
DA:775,349
DA:776,349
DA:777,349
DA:779,14
DA:781,14
DA:784,4
DA:786,4
DA:789,2
DA:791,2
DA:794,0
DA:796,0
DA:799,0
DA:801,0
DA:804,6
DA:806,6
DA:809,23
DA:811,23
DA:813,23
DA:815,9
DA:818,23
DA:820,2
DA:821,2
DA:824,21
DA:826,7
DA:827,7
DA:830,14
DA:832,14
DA:834,1
DA:835,1
DA:836,1
DA:840,13
DA:842,13
DA:844,3
DA:845,3
DA:846,3
DA:850,10
DA:852,10
DA:854,8
DA:855,8
DA:861,2
DA:863,2
DA:865,2
DA:866,2
DA:868,2
DA:870,2
DA:872,2
DA:874,2
DA:876,2
DA:878,260
DA:880,260
DA:882,260
DA:883,260
DA:884,260
DA:885,260
DA:887,260
DA:888,260
DA:890,258
DA:892,259
DA:893,257
DA:895,7
DA:897,7
DA:899,1
DA:902,6
DA:904,12
DA:907,0
DA:909,0
DA:911,0
DA:914,0
DA:917,5
DA:919,5
DA:922,7
DA:924,7
DA:926,0
DA:929,7
DA:932,658
DA:934,658
DA:936,0
DA:939,658
DA:942,1
DA:944,1
DA:947,1
DA:949,1
DA:952,3
DA:954,3
DA:957,7
DA:959,7
DA:962,17
DA:964,17
DA:967,1
DA:969,1
DA:972,11226
DA:974,11226
DA:979,11308
DA:981,11308
DA:984,1
DA:986,1
DA:988,1
DA:989,1
DA:991,1
DA:993,56
DA:995,56
DA:997,6
DA:1000,54
DA:1003,0
DA:1005,0
DA:1006,0
DA:1008,4
DA:1010,4
DA:1011,4
DA:1013,34
DA:1015,34
DA:1017,0
DA:1021,34
DA:1022,34
DA:1026,34
DA:1027,34
DA:1028,34
DA:1030,34
DA:1032,34
DA:1033,34
DA:1035,34
DA:1037,34
DA:1040,0
DA:1042,0
LF:478
LH:434
end_of_record
TN:
SF:/root/project/source/cell/cell_reference.cpp
FNL:0,106,109
FNA:0,0,_ZNK4xlnt14cell_reference8to_rangeEv
FNL:1,111,115
FNA:1,12,_ZN4xlnt14cell_reference15split_referenceERKNSt7__cxx1112basic_stringIcSt11char_traitsIcESaIcEEE
FNL:2,117,196
FNA:2,1462,_ZN4xlnt14cell_reference15split_referenceERKNSt7__cxx1112basic_stringIcSt11char_traitsIcESaIcEEERbS9_
FNL:3,198,201
FNA:3,3,_ZNK4xlnt14cell_reference15column_absoluteEv
FNL:4,203,206
FNA:4,10,_ZN4xlnt14cell_reference15column_absoluteEb
FNL:5,208,211
FNA:5,3,_ZNK4xlnt14cell_reference12row_absoluteEv
FNL:6,213,216
FNA:6,10,_ZN4xlnt14cell_reference12row_absoluteEb
FNL:7,218,221
FNA:7,106242,_ZNK4xlnt14cell_reference6columnEv
FNL:8,223,226
FNA:8,1448,_ZN4xlnt14cell_reference6columnERKNSt7__cxx1112basic_stringIcSt11char_traitsIcESaIcEEE
FNL:9,228,231
FNA:9,120303,_ZNK4xlnt14cell_reference12column_indexEv
FNL:10,233,236
FNA:10,17630,_ZN4xlnt14cell_reference12column_indexENS_8column_tE
FNL:11,238,241
FNA:11,153997,_ZNK4xlnt14cell_reference3rowEv
FNL:12,243,246
FNA:12,3722,_ZN4xlnt14cell_reference3rowEj
FNL:13,248,251
FNA:13,38,_ZNK4xlnt14cell_referenceeqERKNSt7__cxx1112basic_stringIcSt11char_traitsIcESaIcEEE
FNL:14,253,256
FNA:14,36,_ZNK4xlnt14cell_referenceeqEPKc
FNL:15,258,261
FNA:15,1,_ZNK4xlnt14cell_referenceneERKS0_
FNL:16,263,266
FNA:16,1,_ZNK4xlnt14cell_referenceneERKNSt7__cxx1112basic_stringIcSt11char_traitsIcESaIcEEE
FNL:17,268,271
FNA:17,1,_ZNK4xlnt14cell_referenceneEPKc
FNL:18,273,280
FNA:18,39,_ZNK4xlnt14cell_reference11make_offsetEii
FNL:19,282,288
FNA:19,59592,_ZNK4xlnt14cell_referenceeqERKS0_
FNL:20,37,40
FNA:20,4,_ZNK4xlnt19cell_reference_hashclERKNS_14cell_referenceE
FNL:21,42,48
FNA:21,10,_ZN4xlnt14cell_reference13make_absoluteEbb
FNL:22,50,53
FNA:22,8,_ZN4xlnt14cell_referenceC2Ev
FNL:23,55,61
FNA:23,1450,_ZN4xlnt14cell_referenceC2ERKNSt7__cxx1112basic_stringIcSt11char_traitsIcESaIcEEE
FNL:24,63,66
FNA:24,735,_ZN4xlnt14cell_referenceC2EPKc
FNL:25,68,78
FNA:25,74310,_ZN4xlnt14cell_referenceC2ENS_8column_tEj
FNL:26,80,83
FNA:26,1,_ZNK4xlnt14cell_referencecmERKS0_
FNL:27,85,104
FNA:27,11679,_ZNK4xlnt14cell_reference9to_stringB5cxx11Ev
FNF:28
FNH:27
BRDA:51,0,0,8
BRDA:51,e0,1,0
BRDA:51,0,2,8
BRDA:51,e0,3,0
BRDA:57,0,0,1448
BRDA:57,e0,1,2
BRDA:59,0,0,1448
BRDA:59,e0,1,0
BRDA:64,0,0,735
BRDA:64,e0,1,0
BRDA:64,0,2,733
BRDA:64,e0,3,2
BRDA:72,0,0,74309
BRDA:72,e0,1,0
BRDA:72,0,2,74309
BRDA:72,0,3,0
BRDA:73,0,0,74309
BRDA:73,e0,1,0
BRDA:73,0,2,74309
BRDA:73,0,3,0
BRDA:74,0,0,74309
BRDA:74,0,1,1
BRDA:74,0,2,74309
BRDA:74,e0,3,0
BRDA:74,0,4,74309
BRDA:74,e0,5,0
BRDA:74,0,6,0
BRDA:74,0,7,74309
BRDA:74,0,8,1
BRDA:74,0,9,74309
BRDA:76,0,0,1
BRDA:76,e0,1,0
BRDA:89,0,0,8
BRDA:89,0,1,11671
BRDA:91,0,0,8
BRDA:91,e0,1,0
BRDA:94,0,0,11679
BRDA:94,e0,1,0
BRDA:94,0,2,11679
BRDA:94,e0,3,0
BRDA:96,0,0,8
BRDA:96,0,1,11671
BRDA:98,0,0,8
BRDA:98,e0,1,0
BRDA:101,0,0,11679
BRDA:101,e0,1,0
BRDA:114,0,0,4
BRDA:114,e0,1,8
BRDA:128,0,0,3197
BRDA:128,0,1,1454
BRDA:132,0,0,1506
BRDA:132,0,1,1691
BRDA:134,0,0,1499
BRDA:134,0,1,7
BRDA:136,0,0,1499
BRDA:136,e0,1,0
BRDA:140,0,0,7
BRDA:140,e0,1,0
BRDA:143,0,0,16
BRDA:143,0,1,1675
BRDA:145,0,0,16
BRDA:145,0,1,0
BRDA:147,0,0,8
BRDA:147,0,1,8
BRDA:149,0,0,8
BRDA:149,e0,1,0
BRDA:159,0,0,1452
BRDA:159,0,1,223
BRDA:163,0,0,1
BRDA:163,0,1,222
BRDA:165,0,0,1
BRDA:165,e0,1,0
BRDA:170,0,0,1454
BRDA:170,e0,1,0
BRDA:172,0,0,2
BRDA:172,0,1,1452
BRDA:174,0,0,2
BRDA:174,e0,1,0
BRDA:177,0,0,1452
BRDA:177,e0,1,0
BRDA:177,0,2,8
BRDA:177,0,3,1444
BRDA:180,0,0,8
BRDA:180,e0,1,0
BRDA:183,0,0,1452
BRDA:183,e0,1,0
BRDA:183,0,2,8
BRDA:183,0,3,1444
BRDA:186,0,0,8
BRDA:186,e0,1,0
BRDA:190,0,0,1452
BRDA:190,e0,1,0
BRDA:190,0,2,0
BRDA:190,0,3,1452
BRDA:192,0,0,-
BRDA:192,e0,1,-
BRDA:195,0,0,1452
BRDA:195,e0,1,0
BRDA:225,0,0,1448
BRDA:225,e0,1,0
BRDA:250,0,0,38
BRDA:250,e0,1,0
BRDA:250,0,2,38
BRDA:250,e0,3,0
BRDA:255,0,0,36
BRDA:255,e0,1,0
BRDA:255,0,2,36
BRDA:255,e0,3,0
BRDA:265,0,0,1
BRDA:265,e0,1,0
BRDA:265,0,2,1
BRDA:265,e0,3,0
BRDA:270,0,0,1
BRDA:270,e0,1,0
BRDA:270,0,2,1
BRDA:270,e0,3,0
BRDA:279,0,0,39
BRDA:279,e0,1,0
BRDA:279,0,2,39
BRDA:279,e0,3,0
BRDA:285,0,0,57861
BRDA:285,0,1,283
BRDA:286,0,0,57861
BRDA:286,0,1,0
BRDA:287,0,0,58144
BRDA:287,0,1,1448
BRDA:287,0,2,57861
BRDA:287,0,3,0
BRF:128
BRH:82
DA:37,4
DA:39,4
DA:42,10
DA:44,10
DA:45,10
DA:47,10
DA:50,8
DA:51,8
DA:53,8
DA:55,1450
DA:57,1450
DA:59,1448
DA:60,1448
DA:61,1448
DA:63,735
DA:64,737
DA:66,733
DA:68,74310
DA:69,74310
DA:71,148620
DA:72,74309
DA:73,74309
DA:74,148619
DA:76,1
DA:78,74309
DA:80,1
DA:82,1
DA:85,11679
DA:87,11679
DA:89,11679
DA:91,8
DA:94,11679
DA:96,11679
DA:98,8
DA:101,11679
DA:103,11679
DA:104,0
DA:106,0
DA:108,0
DA:111,12
DA:114,16
DA:117,1462
DA:120,1462
DA:121,1462
DA:124,1462
DA:126,1462
DA:128,4651
DA:130,3197
DA:132,3197
DA:134,1506
DA:136,1499
DA:140,7
DA:143,1691
DA:145,16
DA:147,16
DA:149,8
DA:153,8
DA:159,1675
DA:161,1452
DA:163,223
DA:165,1
DA:170,1454
DA:172,1454
DA:174,2
DA:177,1452
DA:179,8
DA:180,8
DA:183,1452
DA:185,8
DA:186,8
DA:189,1452
DA:190,1452
DA:192,0
DA:195,2904
DA:196,1464
DA:198,3
DA:200,3
DA:203,10
DA:205,10
DA:206,10
DA:208,3
DA:210,3
DA:213,10
DA:215,10
DA:216,10
DA:218,106242
DA:220,106242
DA:223,1448
DA:225,1448
DA:226,1448
DA:228,120303
DA:230,120303
DA:233,17630
DA:235,17630
DA:236,17630
DA:238,153997
DA:240,153997
DA:243,3722
DA:245,3722
DA:246,3722
DA:248,38
DA:250,38
DA:253,36
DA:255,72
DA:258,1
DA:260,1
DA:263,1
DA:265,1
DA:268,1
DA:270,2
DA:273,39
DA:276,39
DA:277,39
DA:279,39
DA:282,59592
DA:284,59592
DA:285,58144
DA:286,57861
DA:287,117736
LF:119
LH:115
end_of_record
TN:
SF:/root/project/source/cell/comment.cpp
FNL:0,102,105
FNA:0,16,_ZNK4xlnt7comment6heightEv
FNL:1,107,114
FNA:1,2,_ZNK4xlnt7commenteqERKS0_
FNL:2,116,119
FNA:2,0,_ZNK4xlnt7commentneERKS0_
FNL:3,29,32
FNA:3,34,_ZN4xlnt7commentC2Ev
FNL:4,34,37
FNA:4,32,_ZN4xlnt7commentC2ERKNS_9rich_textERKNSt7__cxx1112basic_stringIcSt11char_traitsIcESaIcEEE
FNL:5,39,43
FNA:5,37,_ZN4xlnt7commentC2ERKNSt7__cxx1112basic_stringIcSt11char_traitsIcESaIcEEES8_
FNL:6,45,48
FNA:6,16,_ZNK4xlnt7comment4textEv
FNL:7,50,53
FNA:7,2,_ZNK4xlnt7comment10plain_textB5cxx11Ev
FNL:8,55,58
FNA:8,34,_ZNK4xlnt7comment6authorB5cxx11Ev
FNL:9,60,63
FNA:9,0,_ZN4xlnt7comment4hideEv
FNL:10,65,68
FNA:10,0,_ZN4xlnt7comment4showEv
FNL:11,70,74
FNA:11,34,_ZN4xlnt7comment8positionEii
FNL:12,76,80
FNA:12,1,_ZN4xlnt7comment4sizeEii
FNL:13,82,85
FNA:13,16,_ZNK4xlnt7comment7visibleEv
FNL:14,87,90
FNA:14,16,_ZNK4xlnt7comment4leftEv
FNL:15,92,95
FNA:15,16,_ZNK4xlnt7comment3topEv
FNL:16,97,100
FNA:16,16,_ZNK4xlnt7comment5widthEv
FNF:17
FNH:14
BRDA:30,0,0,34
BRDA:30,e0,1,0
BRDA:30,0,2,34
BRDA:30,e0,3,0
BRDA:30,0,4,34
BRDA:30,e0,5,0
BRDA:35,0,0,32
BRDA:35,e0,1,0
BRDA:40,0,0,37
BRDA:40,e0,1,0
BRDA:42,0,0,37
BRDA:42,e0,1,0
BRDA:111,0,0,2
BRDA:111,0,1,0
BRDA:112,0,0,2
BRDA:112,0,1,0
BRDA:113,0,0,2
BRDA:113,0,1,0
BRDA:113,0,2,2
BRDA:113,0,3,0
BRF:20
BRH:10
DA:29,34
DA:30,102
DA:32,34
DA:34,32
DA:35,32
DA:37,32
DA:39,37
DA:40,37
DA:42,37
DA:43,37
DA:45,16
DA:47,16
DA:50,2
DA:52,2
DA:55,34
DA:57,34
DA:60,0
DA:62,0
DA:63,0
DA:65,0
DA:67,0
DA:68,0
DA:70,34
DA:72,34
DA:73,34
DA:74,34
DA:76,1
DA:78,1
DA:79,1
DA:80,1
DA:82,16
DA:84,16
DA:87,16
DA:89,16
DA:92,16
DA:94,16
DA:97,16
DA:99,16
DA:102,16
DA:104,16
DA:107,2
DA:110,2
DA:111,2
DA:112,2
DA:113,4
DA:116,0
DA:118,0
LF:47
LH:39
end_of_record
TN:
SF:/root/project/source/cell/hyperlink.cpp
FNL:0,102,105
FNA:0,0,_ZNK4xlnt9hyperlink12has_locationEv
FNL:1,107,110
FNA:1,0,_ZN4xlnt9hyperlink8locationERKNSt7__cxx1112basic_stringIcSt11char_traitsIcESaIcEEE
FNL:2,112,115
FNA:2,0,_ZNK4xlnt9hyperlink8locationB5cxx11Ev
FNL:3,32,35
FNA:3,61,_ZN4xlnt9hyperlinkC2EPNS_6detail14hyperlink_implE
FNL:4,37,45
FNA:4,19,_ZNK4xlnt9hyperlink12relationshipEv
FNL:5,47,55
FNA:5,6,_ZNK4xlnt9hyperlink3urlB5cxx11Ev
FNL:6,57,65
FNA:6,9,_ZNK4xlnt9hyperlink12target_rangeB5cxx11Ev
FNL:7,67,70
FNA:7,61,_ZNK4xlnt9hyperlink8externalEv
FNL:8,72,75
FNA:8,0,_ZNK4xlnt9hyperlink11has_displayEv
FNL:9,77,80
FNA:9,0,_ZN4xlnt9hyperlink7displayERKNSt7__cxx1112basic_stringIcSt11char_traitsIcESaIcEEE
FNL:10,82,85
FNA:10,24,_ZNK4xlnt9hyperlink7displayB5cxx11Ev
FNL:11,87,90
FNA:11,0,_ZNK4xlnt9hyperlink11has_tooltipEv
FNL:12,92,95
FNA:12,0,_ZN4xlnt9hyperlink7tooltipERKNSt7__cxx1112basic_stringIcSt11char_traitsIcESaIcEEE
FNL:13,97,100
FNA:13,0,_ZNK4xlnt9hyperlink7tooltipB5cxx11Ev
FNF:14
FNH:6
BRDA:39,0,0,0
BRDA:39,0,1,19
BRDA:41,0,0,-
BRDA:41,e0,1,-
BRDA:41,0,2,-
BRDA:41,e0,3,-
BRDA:49,0,0,0
BRDA:49,0,1,6
BRDA:51,0,0,-
BRDA:51,e0,1,-
BRDA:51,0,2,-
BRDA:51,e0,3,-
BRDA:59,0,0,0
BRDA:59,0,1,9
BRDA:61,0,0,-
BRDA:61,e0,1,-
BRDA:61,0,2,-
BRDA:61,e0,3,-
BRF:18
BRH:3
DA:32,61
DA:33,61
DA:35,61
DA:37,19
DA:39,19
DA:41,0
DA:44,19
DA:47,6
DA:49,6
DA:51,0
DA:54,6
DA:57,9
DA:59,9
DA:61,0
DA:64,9
DA:67,61
DA:69,61
DA:72,0
DA:74,0
DA:77,0
DA:79,0
DA:80,0
DA:82,24
DA:84,24
DA:87,0
DA:89,0
DA:92,0
DA:94,0
DA:95,0
DA:97,0
DA:99,0
DA:102,0
DA:104,0
DA:107,0
DA:109,0
DA:110,0
DA:112,0
DA:114,0
LF:38
LH:16
end_of_record
TN:
SF:/root/project/source/cell/index_types.cpp
FNL:0,103,106
FNA:0,1520,_ZN4xlnt8column_tC2ERKNSt7__cxx1112basic_stringIcSt11char_traitsIcESaIcEEE
FNL:1,108,111
FNA:1,61,_ZN4xlnt8column_tC2EPKc
FNL:2,113,116
FNA:2,11683,_ZNK4xlnt8column_t13column_stringB5cxx11Ev
FNL:3,118,121
FNA:3,1,_ZN4xlnt8column_taSERKNSt7__cxx1112basic_stringIcSt11char_traitsIcESaIcEEE
FNL:4,123,126
FNA:4,1,_ZN4xlnt8column_taSEPKc
FNL:5,128,131
FNA:5,142775,_ZNK4xlnt8column_teqERKS0_
FNL:6,133,136
FNA:6,1,_ZNK4xlnt8column_tneERKS0_
FNL:7,138,141
FNA:7,74316,_ZNK4xlnt8column_teqEi
FNL:8,143,146
FNA:8,2,_ZNK4xlnt8column_teqEj
FNL:9,148,151
FNA:9,2,_ZNK4xlnt8column_teqERKNSt7__cxx1112basic_stringIcSt11char_traitsIcESaIcEEE
FNL:10,153,156
FNA:10,16,_ZNK4xlnt8column_teqEPKc
FNL:11,158,161
FNA:11,1,_ZNK4xlnt8column_tneEi
FNL:12,163,166
FNA:12,1,_ZNK4xlnt8column_tneEj
FNL:13,168,171
FNA:13,1,_ZNK4xlnt8column_tneERKNSt7__cxx1112basic_stringIcSt11char_traitsIcESaIcEEE
FNL:14,173,176
FNA:14,1,_ZNK4xlnt8column_tneEPKc
FNL:15,178,181
FNA:15,11725,_ZNK4xlnt8column_tgtERKS0_
FNL:16,183,186
FNA:16,3,_ZNK4xlnt8column_tgeERKS0_
FNL:17,188,191
FNA:17,126857,_ZNK4xlnt8column_tltERKS0_
FNL:18,193,196
FNA:18,137172,_ZNK4xlnt8column_tleERKS0_
FNL:19,198,201
FNA:19,1,_ZNK4xlnt8column_tgtERKj
FNL:20,203,206
FNA:20,1,_ZNK4xlnt8column_tgeERKj
FNL:21,208,211
FNA:21,1,_ZNK4xlnt8column_tltERKj
FNL:22,213,216
FNA:22,1,_ZNK4xlnt8column_tleERKj
FNL:23,218,222
FNA:23,40545,_ZN4xlnt8column_tppEv
FNL:24,224,228
FNA:24,2,_ZN4xlnt8column_tmmEv
FNL:25,230,235
FNA:25,1555,_ZN4xlnt8column_tppEi
FNL:26,237,242
FNA:26,1,_ZN4xlnt8column_tmmEi
FNL:27,244,248
FNA:27,3,_ZN4xlntplENS_8column_tERKS0_
FNL:28,250,254
FNA:28,149,_ZN4xlntmiENS_8column_tERKS0_
FNL:29,256,260
FNA:29,3,_ZN4xlnt8column_tpLERKS0_
FNL:30,262,266
FNA:30,149,_ZN4xlnt8column_tmIERKS0_
FNL:31,268,271
FNA:31,11685,_ZN4xlntgtERKjRKNS_8column_tE
FNL:32,273,276
FNA:32,2,_ZN4xlntgeERKjRKNS_8column_tE
FNL:33,278,281
FNA:33,11684,_ZN4xlntltERKjRKNS_8column_tE
FNL:34,283,286
FNA:34,2,_ZN4xlntleERKjRKNS_8column_tE
FNL:35,288,292
FNA:35,0,_ZN4xlnt4swapERNS_8column_tES1_
FNL:36,294,298
FNA:36,46353,_ZNK4xlnt11column_hashclERKNS_8column_tE
FNL:37,33,57
FNA:37,1523,_ZN4xlnt8column_t24column_index_from_stringERKNSt7__cxx1112basic_stringIcSt11char_traitsIcESaIcEEE
FNL:38,63,91
FNA:38,11684,_ZN4xlnt8column_t24column_string_from_indexB5cxx11Ej
FNL:39,93,96
FNA:39,1452,_ZN4xlnt8column_tC2Ev
FNL:40,98,101
FNA:40,294694,_ZN4xlnt8column_tC2Ej
FNF:41
FNH:40
BRDA:35,0,0,1522
BRDA:35,0,1,1
BRDA:35,0,2,1
BRDA:35,0,3,1521
BRDA:35,0,4,2
BRDA:35,0,5,1521
BRDA:37,0,0,2
BRDA:37,e0,1,0
BRDA:43,0,0,1539
BRDA:43,0,1,1520
BRDA:45,0,0,1
BRDA:45,0,1,1538
BRDA:47,0,0,1
BRDA:47,e0,1,0
BRDA:67,0,0,11684
BRDA:67,e0,1,0
BRDA:67,0,2,11683
BRDA:67,0,3,1
BRDA:67,0,4,11683
BRDA:67,e0,5,0
BRDA:67,0,6,0
BRDA:67,0,7,11683
BRDA:67,0,8,1
BRDA:67,0,9,11683
BRDA:69,0,0,1
BRDA:69,e0,1,0
BRDA:73,0,0,11683
BRDA:73,e0,1,0
BRDA:75,0,0,19086
BRDA:75,0,1,11683
BRDA:80,0,0,300
BRDA:80,0,1,18786
BRDA:86,0,0,19086
BRDA:86,e0,1,0
BRDA:86,0,2,19086
BRDA:86,e0,3,0
BRDA:109,0,0,61
BRDA:109,e0,1,0
BRDA:109,0,2,61
BRDA:109,e0,3,0
BRDA:120,0,0,1
BRDA:120,e0,1,0
BRDA:125,0,0,1
BRDA:125,e0,1,0
BRDA:150,0,0,2
BRDA:150,e0,1,0
BRDA:155,0,0,16
BRDA:155,e0,1,0
BRF:48
BRH:33
DA:33,1523
DA:35,1523
DA:37,2
DA:40,1521
DA:41,1521
DA:43,3059
DA:45,1539
DA:47,1
DA:50,1538
DA:52,1538
DA:53,1538
DA:56,1520
DA:63,11684
DA:67,11684
DA:69,1
DA:72,11683
DA:73,11683
DA:75,30769
DA:77,19086
DA:80,19086
DA:82,300
DA:83,300
DA:86,19086
DA:87,19086
DA:90,11683
DA:91,0
DA:93,1452
DA:94,1452
DA:96,1452
DA:98,294694
DA:99,294694
DA:101,294694
DA:103,1520
DA:104,1520
DA:106,1520
DA:108,61
DA:109,61
DA:111,61
DA:113,11683
DA:115,11683
DA:118,1
DA:120,1
DA:123,1
DA:125,1
DA:128,142775
DA:130,142775
DA:133,1
DA:135,1
DA:138,74316
DA:140,74316
DA:143,2
DA:145,2
DA:148,2
DA:150,2
DA:153,16
DA:155,16
DA:158,1
DA:160,1
DA:163,1
DA:165,1
DA:168,1
DA:170,1
DA:173,1
DA:175,1
DA:178,11725
DA:180,11725
DA:183,3
DA:185,3
DA:188,126857
DA:190,126857
DA:193,137172
DA:195,137172
DA:198,1
DA:200,1
DA:203,1
DA:205,1
DA:208,1
DA:210,1
DA:213,1
DA:215,1
DA:218,40545
DA:220,40545
DA:221,40545
DA:224,2
DA:226,2
DA:227,2
DA:230,1555
DA:232,1555
DA:233,1555
DA:234,1555
DA:237,1
DA:239,1
DA:240,1
DA:241,1
DA:244,3
DA:246,3
DA:247,3
DA:250,149
DA:252,149
DA:253,149
DA:256,3
DA:258,3
DA:259,3
DA:262,149
DA:264,149
DA:265,149
DA:268,11685
DA:270,11685
DA:273,2
DA:275,2
DA:278,11684
DA:280,11684
DA:283,2
DA:285,2
DA:288,0
DA:291,0
DA:292,0
DA:294,46353
DA:297,46353
LF:119
LH:115
end_of_record
TN:
SF:/root/project/source/cell/phonetic_run.cpp
FNL:0,30,33
FNA:0,0,_ZNK4xlnt12phonetic_runeqERKS0_
FNL:1,35,38
FNA:1,0,_ZNK4xlnt12phonetic_runneERKS0_
FNF:2
FNH:0
BRDA:32,0,0,-
BRDA:32,e0,1,-
BRF:2
BRH:0
DA:30,0
DA:32,0
DA:35,0
DA:37,0
LF:4
LH:0
end_of_record
TN:
SF:/root/project/source/cell/rich_text.cpp
FNL:0,102,105
FNA:0,11227,_ZN4xlnt9rich_text7add_runERKNS_13rich_text_runE
FNL:1,107,110
FNA:1,458,_ZNK4xlnt9rich_text13phonetic_runsEv
FNL:2,112,115
FNA:2,0,_ZN4xlnt9rich_text13phonetic_runsERKSt6vectorINS_12phonetic_runESaIS2_EE
FNL:3,117,120
FNA:3,3,_ZN4xlnt9rich_text16add_phonetic_runERKNS_12phonetic_runE
FNL:4,122,125
FNA:4,453,_ZNK4xlnt9rich_text23has_phonetic_propertiesEv
FNL:5,127,130
FNA:5,11,_ZNK4xlnt9rich_text19phonetic_propertiesEv
FNL:6,132,135
FNA:6,35,_ZN4xlnt9rich_text19phonetic_propertiesERKNS_11phonetic_prE
FNL:7,137,156
FNA:7,9950,_ZNK4xlnt9rich_texteqERKS0_
FNL:8,158,161
FNA:8,6,_ZNK4xlnt9rich_texteqERKNSt7__cxx1112basic_stringIcSt11char_traitsIcESaIcEEE
FNL:9,163,166
FNA:9,6,_ZNK4xlnt9rich_textneERKS0_
FNL:10,168,171
FNA:10,0,_ZNK4xlnt9rich_textneERKNSt7__cxx1112basic_stringIcSt11char_traitsIcESaIcEEE
FNL:11,31,34
FNA:11,10327,_ZN12_GLOBAL__N_123has_trailing_whitespaceERKNSt7__cxx1112basic_stringIcSt11char_traitsIcESaIcEEE
FNL:12,39,42
FNA:12,10323,_ZN4xlnt9rich_textC2ERKNSt7__cxx1112basic_stringIcSt11char_traitsIcESaIcEEE
FNL:13,44,47
FNA:13,4,_ZN4xlnt9rich_textC2ERKNSt7__cxx1112basic_stringIcSt11char_traitsIcESaIcEEERKNS_4fontE
FNL:14,49,52
FNA:14,17833,_ZN4xlnt9rich_textC2ERKS0_
FNL:15,54,61
FNA:15,17982,_ZN4xlnt9rich_textaSERKS0_
FNL:16,63,66
FNA:16,10327,_ZN4xlnt9rich_textC2ERKNS_13rich_text_runE
FNL:17,68,73
FNA:17,19528,_ZN4xlnt9rich_text5clearEv
FNL:18,75,79
FNA:18,778,_ZN4xlnt9rich_text10plain_textERKNSt7__cxx1112basic_stringIcSt11char_traitsIcESaIcEEEb
FNL:19,81,90
FNA:19,11010,_ZNK4xlnt9rich_text10plain_textB5cxx11Ev
FNL:20,89,89
FNA:20,36,_ZZNK4xlnt9rich_text10plain_textB5cxx11EvENKUlRKNSt7__cxx1112basic_stringIcSt11char_traitsIcESaIcEEERKNS_13rich_text_runEE_clES8_SB_
FNL:21,92,95
FNA:21,12752,_ZNK4xlnt9rich_text4runsEv
FNL:22,97,100
FNA:22,1,_ZN4xlnt9rich_text4runsERKSt6vectorINS_13rich_text_runESaIS2_EE
FNF:23
FNH:21
BRDA:33,0,0,10326
BRDA:33,0,1,1
BRDA:33,0,2,10325
BRDA:33,0,3,1
BRDA:33,0,4,0
BRDA:33,0,5,10325
BRDA:40,0,0,10323
BRDA:40,e0,1,0
BRDA:40,0,2,10323
BRDA:40,e0,3,0
BRDA:40,0,4,0
BRDA:40,0,5,0
BRDA:40,0,6,0
BRDA:40,0,7,0
BRDA:45,0,0,4
BRDA:45,e0,1,0
BRDA:45,0,2,4
BRDA:45,e0,3,0
BRDA:45,0,4,4
BRDA:45,e0,5,0
BRDA:45,0,6,0
BRDA:45,0,7,0
BRDA:45,0,8,0
BRDA:45,0,9,0
BRDA:51,0,0,17833
BRDA:51,e0,1,0
BRDA:65,0,0,10327
BRDA:65,e0,1,0
BRDA:78,0,0,778
BRDA:78,e0,1,0
BRDA:78,0,2,778
BRDA:78,e0,3,0
BRDA:78,0,4,0
BRDA:78,0,5,0
BRDA:78,0,6,0
BRDA:78,0,7,0
BRDA:83,0,0,10997
BRDA:83,0,1,13
BRDA:85,0,0,10997
BRDA:85,e0,1,0
BRDA:89,0,0,13
BRDA:89,e0,1,0
BRDA:139,0,0,1
BRDA:139,0,1,9949
BRDA:141,0,0,9946
BRDA:141,0,1,9944
BRDA:143,0,0,5
BRDA:143,0,1,9941
BRDA:146,0,0,2
BRDA:146,0,1,9942
BRDA:148,0,0,0
BRDA:148,0,1,9942
BRDA:150,0,0,-
BRDA:150,0,1,-
BRDA:153,0,0,0
BRDA:153,0,1,9942
BRDA:160,0,0,6
BRDA:160,e0,1,0
BRDA:160,0,2,6
BRDA:160,e0,3,0
BRF:60
BRH:30
DA:31,10327
DA:33,10327
DA:39,10323
DA:40,10323
DA:42,10323
DA:44,4
DA:45,4
DA:47,4
DA:49,17833
DA:51,17833
DA:52,17833
DA:54,17982
DA:56,17982
DA:57,17982
DA:58,17982
DA:59,17982
DA:60,17982
DA:63,10327
DA:65,10327
DA:66,10327
DA:68,19528
DA:70,19528
DA:71,19528
DA:72,19528
DA:73,19528
DA:75,778
DA:77,778
DA:78,778
DA:79,778
DA:81,11010
DA:83,11010
DA:85,10997
DA:88,26
DA:89,49
DA:92,12752
DA:94,12752
DA:97,1
DA:99,1
DA:100,1
DA:102,11227
DA:104,11227
DA:105,11227
DA:107,458
DA:109,458
DA:112,0
DA:114,0
DA:115,0
DA:117,3
DA:119,3
DA:120,3
DA:122,453
DA:124,453
DA:127,11
DA:129,11
DA:132,35
DA:134,35
DA:135,35
DA:137,9950
DA:139,9950
DA:141,19890
DA:143,9946
DA:146,9944
DA:148,9942
DA:150,0
DA:153,9942
DA:155,9942
DA:158,6
DA:160,6
DA:163,6
DA:165,6
DA:168,0
DA:170,0
LF:72
LH:66
end_of_record
TN:
SF:/root/project/source/cell/rich_text_run.cpp
FNL:0,29,32
FNA:0,9950,_ZNK4xlnt13rich_text_runeqERKS0_
FNL:1,34,37
FNA:1,9946,_ZNK4xlnt13rich_text_runneERKS0_
FNF:2
FNH:2
BRDA:31,0,0,9950
BRDA:31,0,1,0
BRDA:31,0,2,9945
BRDA:31,0,3,5
BRF:4
BRH:3
DA:29,9950
DA:31,9950
DA:34,9946
DA:36,9946
LF:4
LH:4
end_of_record
TN:
SF:/root/project/source/detail/binary.hpp
FNL:0,134,137
FNA:0,5095,_ZNK4xlnt6detail13binary_readerIhE5countEv
FNA:0,8547,_ZNK4xlnt6detail13binary_readerIiE5countEv
FNL:1,139,142
FNA:1,5095,_ZNK4xlnt6detail13binary_readerIhE5bytesEv
FNA:1,8547,_ZNK4xlnt6detail13binary_readerIiE5bytesEv
FNL:2,155,158
FNA:2,265,_ZN4xlnt6detail13binary_writerIhEC2ERSt6vectorIhSaIhEE
FNA:2,66,_ZN4xlnt6detail13binary_writerIiEC2ERSt6vectorIiSaIiEE
FNL:3,165,167
FNA:3,265,_ZN4xlnt6detail13binary_writerIhED2Ev
FNA:3,66,_ZN4xlnt6detail13binary_writerIiED2Ev
FNL:4,194,198
FNA:4,26,_ZN4xlnt6detail13binary_writerIhE6assignIDsEEvRKNSt7__cxx1112basic_stringIT_St11char_traitsIS6_ESaIS6_EEE
FNL:5,205,208
FNA:5,2914,_ZNK4xlnt6detail13binary_writerIhE6offsetEv
FNA:5,175,_ZNK4xlnt6detail13binary_writerIiE6offsetEv
FNL:6,210,214
FNA:6,2302,_ZN4xlnt6detail13binary_writerIhE5resetEv
FNL:7,217,229
FNA:7,0,_ZN4xlnt6detail13binary_writerIhE5writeIjEEvT_
FNA:7,0,_ZN4xlnt6detail13binary_writerIhE5writeItEEvT_
FNA:7,51,_ZN4xlnt6detail13binary_writerIiE5writeIiEEvT_
FNL:8,231,234
FNA:8,5854,_ZNK4xlnt6detail13binary_writerIhE5countEv
FNA:8,248,_ZNK4xlnt6detail13binary_writerIiE5countEv
FNL:9,236,239
FNA:9,2940,_ZNK4xlnt6detail13binary_writerIhE5bytesEv
FNA:9,124,_ZNK4xlnt6detail13binary_writerIiE5bytesEv
FNL:10,241,244
FNA:10,26,_ZN4xlnt6detail13binary_writerIhE6resizeEmh
FNL:11,246,249
FNA:11,2914,_ZN4xlnt6detail13binary_writerIhE6extendEmh
FNA:11,124,_ZN4xlnt6detail13binary_writerIiE6extendEmh
FNL:12,257,261
FNA:12,2719,_ZN4xlnt6detail13binary_writerIhE6appendIhEEvRKSt6vectorIT_SaIS5_EE
FNA:12,73,_ZN4xlnt6detail13binary_writerIiE6appendIhEEvRKSt6vectorIT_SaIS5_EE
FNL:13,264,281
FNA:13,2914,_ZN4xlnt6detail13binary_writerIhE6appendIhEEvRNS0_13binary_readerIT_EEm
FNA:13,73,_ZN4xlnt6detail13binary_writerIiE6appendIhEEvRNS0_13binary_readerIT_EEm
FNL:14,289,296
FNA:14,26,_ZN4xlnt6detail15string_to_bytesIDsEESt6vectorIhSaIhEERKNSt7__cxx1112basic_stringIT_St11char_traitsIS7_ESaIS7_EEE
FNL:15,299,305
FNA:15,187,_ZN4xlnt6detail4readIjEET_RSi
FNA:15,17,_ZN4xlnt6detail4readImEET_RSi
FNA:15,44,_ZN4xlnt6detail4readItEET_RSi
FNL:16,308,315
FNA:16,45,_ZN4xlnt6detail11read_vectorIhEESt6vectorIT_SaIS3_EERSim
FNL:17,318,325
FNA:17,15,_ZN4xlnt6detail11read_stringIDsEENSt7__cxx1112basic_stringIT_St11char_traitsIS4_ESaIS4_EEERSim
FNL:18,45,50
FNA:18,4021,_ZN4xlnt6detail13binary_readerIhEC2ERKSt6vectorIhSaIhEE
FNA:18,2107,_ZN4xlnt6detail13binary_readerIiEC2ERKSt6vectorIiSaIiEE
FNL:19,70,72
FNA:19,4021,_ZN4xlnt6detail13binary_readerIhED2Ev
FNA:19,2107,_ZN4xlnt6detail13binary_readerIiED2Ev
FNL:20,74,77
FNA:20,5095,_ZNK4xlnt6detail13binary_readerIhE4dataEv
FNA:20,8547,_ZNK4xlnt6detail13binary_readerIiE4dataEv
FNL:21,79,82
FNA:21,303,_ZN4xlnt6detail13binary_readerIhE6offsetEm
FNA:21,15,_ZN4xlnt6detail13binary_readerIiE6offsetEm
FNL:22,84,87
FNA:22,10298,_ZNK4xlnt6detail13binary_readerIhE6offsetEv
FNA:22,17094,_ZNK4xlnt6detail13binary_readerIiE6offsetEv
FNL:23,89,92
FNA:23,986,_ZN4xlnt6detail13binary_readerIhE5resetEv
FNF:24
FNH:24
BRDA:76,0,0,0
BRDA:76,0,1,13642
BRDA:136,0,0,13642
BRDA:136,0,1,0
BRDA:222,0,0,51
BRDA:222,0,1,0
BRDA:248,0,0,124
BRDA:248,e0,1,0
BRDA:260,0,0,2792
BRDA:260,e0,1,0
BRDA:269,0,0,2987
BRDA:269,0,1,0
BRDA:274,0,0,0
BRDA:274,0,1,2987
BRDA:276,0,0,-
BRDA:276,e0,1,-
BRDA:276,0,2,-
BRDA:276,e0,3,-
BRDA:293,0,0,26
BRDA:293,e0,1,0
BRDA:302,0,0,248
BRDA:302,e0,1,0
BRDA:310,0,0,45
BRDA:310,e0,1,0
BRDA:311,0,0,45
BRDA:311,e0,1,0
BRDA:320,0,0,15
BRDA:320,e0,1,0
BRDA:321,0,0,15
BRDA:321,e0,1,0
BRF:30
BRH:13
DA:45,6128
DA:46,6128
DA:47,6128
DA:48,6128
DA:50,6128
DA:70,6128
DA:72,6128
DA:74,13642
DA:76,13642
DA:79,318
DA:81,318
DA:82,318
DA:84,27392
DA:86,27392
DA:89,986
DA:91,986
DA:92,986
DA:134,13642
DA:136,13642
DA:139,13642
DA:141,13642
DA:155,331
DA:156,331
DA:158,331
DA:165,331
DA:167,331
DA:194,26
DA:196,26
DA:197,26
DA:198,26
DA:205,3089
DA:207,3089
DA:210,2302
DA:212,2302
DA:213,2302
DA:214,2302
DA:217,51
DA:219,51
DA:220,51
DA:222,51
DA:224,51
DA:227,51
DA:228,51
DA:229,51
DA:231,6102
DA:233,6102
DA:236,3064
DA:238,3064
DA:241,26
DA:243,26
DA:244,26
DA:246,3038
DA:248,3038
DA:249,3038
DA:257,2792
DA:259,2792
DA:260,2792
DA:261,2792
DA:264,2987
DA:266,2987
DA:267,2987
DA:269,2987
DA:271,2987
DA:274,2987
DA:276,0
DA:279,2987
DA:280,2987
DA:281,2987
DA:289,26
DA:291,26
DA:292,26
DA:293,26
DA:295,26
DA:296,26
DA:299,248
DA:302,248
DA:304,248
DA:308,45
DA:310,45
DA:311,45
DA:314,45
DA:315,0
DA:318,15
DA:320,15
DA:321,15
DA:322,15
DA:324,15
DA:325,0
LF:88
LH:85
end_of_record
TN:
SF:/root/project/source/detail/constants.cpp
FNL:0,104,107
FNA:0,0,_ZN4xlnt9constants8part_appEv
FNL:1,109,112
FNA:1,0,_ZN4xlnt9constants13part_workbookEv
FNL:2,114,117
FNA:2,0,_ZN4xlnt9constants11part_stylesEv
FNL:3,119,122
FNA:3,0,_ZN4xlnt9constants10part_themeEv
FNL:4,124,127
FNA:4,0,_ZN4xlnt9constants19part_shared_stringsEv
FNL:5,129,167
FNA:5,5776,_ZN4xlnt9constants10namespacesB5cxx11Ev
FNL:6,169,179
FNA:6,2888,_ZN4xlnt9constants2nsERKNSt7__cxx1112basic_stringIcSt11char_traitsIcESaIcEEE
FNL:7,33,36
FNA:7,346,_ZN4xlnt9constants7min_rowEv
FNL:8,38,41
FNA:8,74492,_ZN4xlnt9constants7max_rowEv
FNL:9,43,46
FNA:9,12198,_ZN4xlnt9constants10min_columnEv
FNL:10,48,51
FNA:10,86379,_ZN4xlnt9constants10max_columnEv
FNL:11,53,56
FNA:11,521,_ZN4xlnt9constants24max_elements_for_reserveEv
FNL:12,59,62
FNA:12,0,_ZN4xlnt9constants18package_propertiesEv
FNL:13,64,67
FNA:13,7,_ZN4xlnt9constants10package_xlEv
FNL:14,69,72
FNA:14,0,_ZN4xlnt9constants17package_root_relsEv
FNL:15,74,77
FNA:15,0,_ZN4xlnt9constants13package_themeEv
FNL:16,79,82
FNA:16,0,_ZN4xlnt9constants18package_worksheetsEv
FNL:17,84,87
FNA:17,0,_ZN4xlnt9constants16package_drawingsEv
FNL:18,89,92
FNA:18,0,_ZN4xlnt9constants18part_content_typesEv
FNL:19,94,97
FNA:19,0,_ZN4xlnt9constants23part_root_relationshipsEv
FNL:20,99,102
FNA:20,0,_ZN4xlnt9constants9part_coreEv
FNF:21
FNH:8
BRDA:45,0,0,12198
BRDA:45,e0,1,0
BRDA:50,0,0,86379
BRDA:50,e0,1,0
BRDA:61,0,0,-
BRDA:61,e0,1,-
BRDA:61,0,2,-
BRDA:61,e0,3,-
BRDA:66,0,0,7
BRDA:66,e0,1,0
BRDA:66,0,2,7
BRDA:66,e0,3,0
BRDA:71,0,0,-
BRDA:71,e0,1,-
BRDA:71,0,2,-
BRDA:71,e0,3,-
BRDA:76,0,0,-
BRDA:76,e0,1,-
BRDA:76,0,2,-
BRDA:76,e0,3,-
BRDA:76,0,4,-
BRDA:76,e0,5,-
BRDA:81,0,0,-
BRDA:81,e0,1,-
BRDA:81,0,2,-
BRDA:81,e0,3,-
BRDA:81,0,4,-
BRDA:81,e0,5,-
BRDA:86,0,0,-
BRDA:86,e0,1,-
BRDA:86,0,2,-
BRDA:86,e0,3,-
BRDA:86,0,4,-
BRDA:86,e0,5,-
BRDA:91,0,0,-
BRDA:91,e0,1,-
BRDA:91,0,2,-
BRDA:91,e0,3,-
BRDA:96,0,0,-
BRDA:96,e0,1,-
BRDA:96,0,2,-
BRDA:96,e0,3,-
BRDA:96,0,4,-
BRDA:96,e0,5,-
BRDA:101,0,0,-
BRDA:101,e0,1,-
BRDA:101,0,2,-
BRDA:101,e0,3,-
BRDA:101,0,4,-
BRDA:101,e0,5,-
BRDA:106,0,0,-
BRDA:106,e0,1,-
BRDA:106,0,2,-
BRDA:106,e0,3,-
BRDA:106,0,4,-
BRDA:106,e0,5,-
BRDA:111,0,0,-
BRDA:111,e0,1,-
BRDA:111,0,2,-
BRDA:111,e0,3,-
BRDA:111,0,4,-
BRDA:111,e0,5,-
BRDA:116,0,0,-
BRDA:116,e0,1,-
BRDA:116,0,2,-
BRDA:116,e0,3,-
BRDA:116,0,4,-
BRDA:116,e0,5,-
BRDA:121,0,0,-
BRDA:121,e0,1,-
BRDA:121,0,2,-
BRDA:121,e0,3,-
BRDA:121,0,4,-
BRDA:121,e0,5,-
BRDA:126,0,0,-
BRDA:126,e0,1,-
BRDA:126,0,2,-
BRDA:126,e0,3,-
BRDA:126,0,4,-
BRDA:126,e0,5,-
BRDA:164,0,0,4
BRDA:164,0,1,5772
BRDA:164,0,2,4
BRDA:164,0,3,0
BRDA:164,0,4,4
BRDA:164,e0,5,0
BRDA:164,0,6,112
BRDA:164,0,7,4
BRDA:164,0,8,0
BRDA:164,0,9,0
BRDA:164,0,10,0
BRDA:164,0,11,0
BRDA:167,0,0,4
BRDA:167,e0,1,0
BRDA:167,0,2,4
BRDA:167,e0,3,0
BRDA:167,0,4,4
BRDA:167,e0,5,0
BRDA:167,0,6,4
BRDA:167,e0,7,0
BRDA:167,0,8,4
BRDA:167,e0,9,0
BRDA:167,0,10,4
BRDA:167,e0,11,0
BRDA:167,0,12,4
BRDA:167,e0,13,0
BRDA:167,0,14,4
BRDA:167,e0,15,0
BRDA:167,0,16,4
BRDA:167,e0,17,0
BRDA:167,0,18,4
BRDA:167,e0,19,0
BRDA:167,0,20,4
BRDA:167,e0,21,0
BRDA:167,0,22,4
BRDA:167,e0,23,0
BRDA:167,0,24,4
BRDA:167,e0,25,0
BRDA:167,0,26,4
BRDA:167,e0,27,0
BRDA:167,0,28,4
BRDA:167,e0,29,0
BRDA:167,0,30,4
BRDA:167,e0,31,0
BRDA:167,0,32,4
BRDA:167,e0,33,0
BRDA:167,0,34,4
BRDA:167,e0,35,0
BRDA:167,0,36,4
BRDA:167,e0,37,0
BRDA:167,0,38,4
BRDA:167,e0,39,0
BRDA:167,0,40,4
BRDA:167,e0,41,0
BRDA:167,0,42,4
BRDA:167,e0,43,0
BRDA:167,0,44,4
BRDA:167,e0,45,0
BRDA:167,0,46,4
BRDA:167,e0,47,0
BRDA:167,0,48,4
BRDA:167,e0,49,0
BRDA:167,0,50,4
BRDA:167,e0,51,0
BRDA:167,0,52,4
BRDA:167,e0,53,0
BRDA:167,0,54,4
BRDA:167,e0,55,0
BRDA:167,0,56,0
BRDA:167,0,57,0
BRDA:167,0,58,0
BRDA:167,0,59,0
BRDA:171,0,0,2888
BRDA:171,e0,1,0
BRDA:171,0,2,2888
BRDA:171,e0,3,0
BRDA:173,0,0,2888
BRDA:173,e0,1,0
BRDA:173,0,2,0
BRDA:173,0,3,2888
BRDA:175,0,0,-
BRDA:175,e0,1,-
BRDA:175,0,2,-
BRDA:175,e0,3,-
BRF:164
BRH:42
DA:33,346
DA:35,346
DA:38,74492
DA:40,74492
DA:43,12198
DA:45,12198
DA:48,86379
DA:50,86379
DA:53,521
DA:55,521
DA:59,0
DA:61,0
DA:64,7
DA:66,14
DA:69,0
DA:71,0
DA:74,0
DA:76,0
DA:79,0
DA:81,0
DA:84,0
DA:86,0
DA:89,0
DA:91,0
DA:94,0
DA:96,0
DA:99,0
DA:101,0
DA:104,0
DA:106,0
DA:109,0
DA:111,0
DA:114,0
DA:116,0
DA:119,0
DA:121,0
DA:124,0
DA:126,0
DA:129,5776
DA:164,5896
DA:166,5776
DA:167,4
DA:169,2888
DA:171,2888
DA:173,2888
DA:175,0
DA:178,5776
LF:47
LH:20
end_of_record
TN:
SF:/root/project/source/detail/cryptography/aes.cpp
FNL:0,2651,2657
FNA:0,5140,_ZN12_GLOBAL__N_1L9setup_mixEj
FNL:1,2673,2809
FNA:1,466,_ZN12_GLOBAL__N_114rijndael_setupERKSt6vectorIhSaIhEE
FNL:2,2830,2898
FNA:2,32768,_ZN12_GLOBAL__N_120rijndael_ecb_encryptEPKhPhRNS_12rijndael_keyE
FNL:3,2900,2968
FNA:3,71022,_ZN12_GLOBAL__N_120rijndael_ecb_decryptEPKhPhRNS_12rijndael_keyE
FNL:4,2980,3011
FNA:4,0,_ZN4xlnt6detail15aes_ecb_encryptERKSt6vectorIhSaIhEES5_m
FNL:5,3013,3044
FNA:5,56,_ZN4xlnt6detail15aes_ecb_decryptERKSt6vectorIhSaIhEES5_m
FNL:6,3046,3090
FNA:6,128,_ZN4xlnt6detail15aes_cbc_encryptERKSt6vectorIhSaIhEES5_S5_m
FNL:7,3092,3135
FNA:7,282,_ZN4xlnt6detail15aes_cbc_decryptERKSt6vectorIhSaIhEES5_S5_m
FNF:8
FNH:7
BRDA:2681,0,0,160
BRDA:2681,0,1,306
BRDA:2681,0,2,160
BRDA:2681,0,3,0
BRDA:2681,0,4,0
BRDA:2681,0,5,160
BRDA:2681,0,6,0
BRDA:2681,0,7,466
BRDA:2684,0,0,-
BRDA:2684,e0,1,-
BRDA:2684,0,2,-
BRDA:2684,e0,3,-
BRDA:2685,0,0,-
BRDA:2685,e0,1,-
BRDA:2685,0,2,-
BRDA:2685,e0,3,-
BRDA:2698,0,0,306
BRDA:2698,0,1,160
BRDA:2707,0,0,306
BRDA:2707,0,1,2754
BRDA:2714,0,0,0
BRDA:2714,0,1,160
BRDA:2729,0,0,-
BRDA:2729,0,1,-
BRDA:2738,0,0,160
BRDA:2738,0,1,0
BRDA:2755,0,0,160
BRDA:2755,0,1,960
BRDA:2781,0,0,4834
BRDA:2781,0,1,466
BRDA:2867,0,0,32768
BRDA:2867,0,1,196608
BRDA:2937,0,0,71022
BRDA:2937,0,1,288804
BRDA:2985,0,0,-
BRDA:2985,0,1,-
BRDA:2989,0,0,-
BRDA:2989,0,1,-
BRDA:2992,0,0,-
BRDA:2992,e0,1,-
BRDA:2993,0,0,-
BRDA:2993,e0,1,-
BRDA:2993,0,2,-
BRDA:2993,e0,3,-
BRDA:2993,0,4,-
BRDA:2993,e0,5,-
BRDA:2996,0,0,-
BRDA:2996,e0,1,-
BRDA:2997,0,0,-
BRDA:2997,e0,1,-
BRDA:3001,0,0,-
BRDA:3001,0,1,-
BRDA:3018,0,0,0
BRDA:3018,0,1,56
BRDA:3022,0,0,0
BRDA:3022,0,1,56
BRDA:3025,0,0,-
BRDA:3025,e0,1,-
BRDA:3026,0,0,-
BRDA:3026,e0,1,-
BRDA:3026,0,2,-
BRDA:3026,e0,3,-
BRDA:3026,0,4,-
BRDA:3026,e0,5,-
BRDA:3029,0,0,56
BRDA:3029,e0,1,0
BRDA:3030,0,0,56
BRDA:3030,e0,1,0
BRDA:3034,0,0,6701
BRDA:3034,0,1,56
BRDA:3052,0,0,0
BRDA:3052,0,1,128
BRDA:3056,0,0,0
BRDA:3056,0,1,128
BRDA:3059,0,0,-
BRDA:3059,e0,1,-
BRDA:3060,0,0,-
BRDA:3060,e0,1,-
BRDA:3060,0,2,-
BRDA:3060,e0,3,-
BRDA:3060,0,4,-
BRDA:3060,e0,5,-
BRDA:3063,0,0,128
BRDA:3063,e0,1,0
BRDA:3064,0,0,128
BRDA:3064,e0,1,0
BRDA:3067,0,0,128
BRDA:3067,e0,1,0
BRDA:3070,0,0,32768
BRDA:3070,0,1,128
BRDA:3072,0,0,524288
BRDA:3072,0,1,32768
BRDA:3079,0,0,524288
BRDA:3079,0,1,32768
BRDA:3098,0,0,0
BRDA:3098,0,1,282
BRDA:3102,0,0,0
BRDA:3102,0,1,282
BRDA:3105,0,0,-
BRDA:3105,e0,1,-
BRDA:3106,0,0,-
BRDA:3106,e0,1,-
BRDA:3106,0,2,-
BRDA:3106,e0,3,-
BRDA:3106,0,4,-
BRDA:3106,e0,5,-
BRDA:3111,0,0,282
BRDA:3111,e0,1,0
BRDA:3112,0,0,282
BRDA:3112,e0,1,0
BRDA:3115,0,0,282
BRDA:3115,e0,1,0
BRDA:3118,0,0,64321
BRDA:3118,0,1,282
BRDA:3122,0,0,1029136
BRDA:3122,0,1,64321
BRF:116
BRH:45
DA:2651,5140
DA:2653,5140
DA:2654,5140
DA:2655,5140
DA:2656,5140
DA:2673,466
DA:2681,466
DA:2684,0
DA:2685,0
DA:2688,466
DA:2689,466
DA:2692,466
DA:2693,466
DA:2694,466
DA:2695,466
DA:2696,466
DA:2697,466
DA:2698,466
DA:2702,3060
DA:2703,3060
DA:2704,3060
DA:2705,3060
DA:2706,3060
DA:2707,3060
DA:2709,306
DA:2711,2754
DA:2714,160
DA:2716,0
DA:2717,0
DA:2723,0
DA:2725,0
DA:2726,0
DA:2727,0
DA:2728,0
DA:2729,0
DA:2731,0
DA:2733,0
DA:2734,0
DA:2735,0
DA:2738,160
DA:2740,160
DA:2741,160
DA:2742,160
DA:2743,160
DA:2749,1120
DA:2751,1120
DA:2752,1120
DA:2753,1120
DA:2754,1120
DA:2755,1120
DA:2757,160
DA:2759,960
DA:2760,960
DA:2761,960
DA:2762,960
DA:2763,960
DA:2764,960
DA:2769,466
DA:2770,466
DA:2774,466
DA:2775,466
DA:2776,466
DA:2777,466
DA:2778,466
DA:2779,466
DA:2781,5300
DA:2783,4834
DA:2784,4834
DA:2786,4834
DA:2787,4834
DA:2788,4834
DA:2789,4834
DA:2790,4834
DA:2791,4834
DA:2792,4834
DA:2793,4834
DA:2794,4834
DA:2795,4834
DA:2796,4834
DA:2797,4834
DA:2801,466
DA:2802,466
DA:2803,466
DA:2804,466
DA:2805,466
DA:2806,466
DA:2808,466
DA:2830,32768
DA:2835,32768
DA:2836,32768
DA:2842,32768
DA:2843,32768
DA:2844,32768
DA:2845,32768
DA:2846,32768
DA:2847,32768
DA:2848,32768
DA:2849,32768
DA:2854,32768
DA:2857,229376
DA:2858,229376
DA:2859,229376
DA:2860,229376
DA:2861,229376
DA:2862,229376
DA:2863,229376
DA:2864,229376
DA:2866,229376
DA:2867,229376
DA:2869,32768
DA:2872,196608
DA:2873,196608
DA:2874,196608
DA:2875,196608
DA:2876,196608
DA:2877,196608
DA:2878,196608
DA:2879,196608
DA:2886,32768
DA:2887,32768
DA:2888,32768
DA:2889,32768
DA:2890,32768
DA:2891,32768
DA:2892,32768
DA:2893,32768
DA:2894,32768
DA:2895,32768
DA:2896,32768
DA:2897,32768
DA:2898,32768
DA:2900,71022
DA:2904,71022
DA:2905,71022
DA:2911,71022
DA:2912,71022
DA:2913,71022
DA:2914,71022
DA:2915,71022
DA:2916,71022
DA:2917,71022
DA:2918,71022
DA:2923,71022
DA:2927,359826
DA:2928,359826
DA:2929,359826
DA:2930,359826
DA:2931,359826
DA:2932,359826
DA:2933,359826
DA:2934,359826
DA:2936,359826
DA:2937,359826
DA:2939,71022
DA:2942,288804
DA:2943,288804
DA:2944,288804
DA:2945,288804
DA:2946,288804
DA:2947,288804
DA:2948,288804
DA:2949,288804
DA:2956,71022
DA:2957,71022
DA:2958,71022
DA:2959,71022
DA:2960,71022
DA:2961,71022
DA:2962,71022
DA:2963,71022
DA:2964,71022
DA:2965,71022
DA:2966,71022
DA:2967,71022
DA:2968,71022
DA:2980,0
DA:2985,0
DA:2987,0
DA:2989,0
DA:2992,0
DA:2993,0
DA:2996,0
DA:2997,0
DA:2998,0
DA:2999,0
DA:3001,0
DA:3003,0
DA:3005,0
DA:3006,0
DA:3007,0
DA:3010,0
DA:3011,0
DA:3013,56
DA:3018,56
DA:3020,56
DA:3022,56
DA:3025,0
DA:3026,0
DA:3029,56
DA:3030,56
DA:3031,56
DA:3032,56
DA:3034,6757
DA:3036,6701
DA:3038,6701
DA:3039,6701
DA:3040,6701
DA:3043,56
DA:3044,56
DA:3046,128
DA:3052,128
DA:3054,128
DA:3056,128
DA:3059,0
DA:3060,0
DA:3063,128
DA:3064,128
DA:3065,128
DA:3066,128
DA:3067,128
DA:3068,128
DA:3070,32896
DA:3072,557056
DA:3074,524288
DA:3077,32768
DA:3079,557056
DA:3081,524288
DA:3084,32768
DA:3085,32768
DA:3086,32768
DA:3089,128
DA:3090,128
DA:3092,282
DA:3098,282
DA:3100,282
DA:3102,282
DA:3105,0
DA:3106,0
DA:3109,282
DA:3111,282
DA:3112,282
DA:3113,282
DA:3114,282
DA:3115,282
DA:3116,282
DA:3118,64603
DA:3120,64321
DA:3122,1093457
DA:3124,1029136
DA:3125,1029136
DA:3126,1029136
DA:3129,64321
DA:3130,64321
DA:3131,64321
DA:3134,282
DA:3135,282
LF:256
LH:219
end_of_record
TN:
SF:/root/project/source/detail/cryptography/base64.cpp
FNL:0,115,122
FNA:0,2204,_ZZN4xlnt6detail13decode_base64ERKNSt7__cxx1112basic_stringIcSt11char_traitsIcESaIcEEEENKUlhE_clEh
FNL:1,30,94
FNA:1,28,_ZN4xlnt6detail13encode_base64B5cxx11ERKSt6vectorIhSaIhEE
FNL:2,96,182
FNA:2,49,_ZN4xlnt6detail13decode_base64ERKNSt7__cxx1112basic_stringIcSt11char_traitsIcESaIcEEE
FNF:3
FNH:3
BRDA:33,0,0,28
BRDA:33,e0,1,0
BRDA:44,0,0,28
BRDA:44,e0,1,0
BRDA:46,0,0,1088
BRDA:46,0,1,28
BRDA:50,0,0,352
BRDA:50,0,1,736
BRDA:59,0,0,1408
BRDA:59,0,1,352
BRDA:68,0,0,28
BRDA:68,0,1,0
BRDA:70,0,0,52
BRDA:70,0,1,28
BRDA:82,0,0,60
BRDA:82,0,1,28
BRDA:87,0,0,52
BRDA:87,0,1,28
BRDA:101,0,0,85
BRDA:101,0,1,49
BRDA:107,0,0,49
BRDA:107,e0,1,0
BRDA:116,0,0,1722
BRDA:116,0,1,482
BRDA:116,0,2,834
BRDA:116,0,3,888
BRDA:117,0,0,888
BRDA:117,0,1,482
BRDA:117,0,2,888
BRDA:117,0,3,0
BRDA:118,0,0,351
BRDA:118,0,1,131
BRDA:118,0,2,351
BRDA:118,0,3,0
BRDA:119,0,0,20
BRDA:119,0,1,111
BRDA:120,0,0,26
BRDA:120,0,1,85
BRDA:124,0,0,2168
BRDA:124,0,1,0
BRDA:126,0,0,49
BRDA:126,0,1,2119
BRDA:133,0,0,502
BRDA:133,0,1,1617
BRDA:135,0,0,2008
BRDA:135,0,1,502
BRDA:147,0,0,1506
BRDA:147,0,1,502
BRDA:156,0,0,49
BRDA:156,0,1,0
BRDA:158,0,0,85
BRDA:158,0,1,49
BRDA:163,0,0,196
BRDA:163,0,1,49
BRDA:175,0,0,62
BRDA:175,0,1,49
BRF:56
BRH:48
DA:30,28
DA:32,28
DA:33,28
DA:34,28
DA:35,28
DA:36,28
DA:37,28
DA:38,28
DA:39,28
DA:44,28
DA:46,1144
DA:48,1088
DA:50,1088
DA:52,352
DA:53,352
DA:54,352
DA:55,352
DA:56,352
DA:57,352
DA:59,1760
DA:61,1408
DA:64,352
DA:68,28
DA:70,80
DA:72,52
DA:75,28
DA:76,28
DA:77,28
DA:78,28
DA:79,28
DA:80,28
DA:82,88
DA:84,60
DA:87,80
DA:89,52
DA:93,28
DA:94,28
DA:96,49
DA:98,49
DA:99,49
DA:101,134
DA:103,85
DA:106,49
DA:107,49
DA:108,49
DA:109,49
DA:110,49
DA:111,49
DA:112,49
DA:113,49
DA:115,2204
DA:116,2204
DA:117,1370
DA:118,482
DA:119,131
DA:120,111
DA:121,85
DA:124,2217
DA:126,2168
DA:128,49
DA:131,2119
DA:133,2119
DA:135,2510
DA:137,2008
DA:140,502
DA:141,502
DA:142,502
DA:143,502
DA:144,502
DA:145,502
DA:147,2008
DA:149,1506
DA:152,502
DA:156,49
DA:158,134
DA:160,85
DA:163,245
DA:165,196
DA:168,49
DA:169,49
DA:170,49
DA:171,49
DA:172,49
DA:173,49
DA:175,111
DA:177,62
DA:181,49
LF:87
LH:87
end_of_record
TN:
SF:/root/project/source/detail/cryptography/compound_document.cpp
FNL:0,1001,1054
FNA:0,12,_ZN4xlnt6detail17compound_document11tree_insertEii
FNL:1,1056,1068
FNA:1,192,_ZN4xlnt6detail17compound_document9tree_pathB5cxx11Ei
FNL:2,106,112
FNA:2,44,_ZN4xlnt6detail28compound_document_istreambufC2ERKNS0_23compound_document_entryERNS0_17compound_documentE
FNL:3,1070,1101
FNA:3,0,_ZN4xlnt6detail17compound_document16tree_rotate_leftEi
FNL:4,1103,1134
FNA:4,0,_ZN4xlnt6detail17compound_document17tree_rotate_rightEi
FNL:5,1136,1201
FNA:5,4,_ZN4xlnt6detail17compound_document17tree_insert_fixupEi
FNL:6,120,178
FNA:6,592,_ZN4xlnt6detail28compound_document_istreambuf6xsgetnEPcl
FNL:7,1203,1206
FNA:7,184,_ZN4xlnt6detail17compound_document9tree_leftEi
FNL:8,1208,1211
FNA:8,220,_ZN4xlnt6detail17compound_document10tree_rightEi
FNL:9,1213,1216
FNA:9,78,_ZN4xlnt6detail17compound_document11tree_parentEi
FNL:10,1218,1221
FNA:10,28,_ZN4xlnt6detail17compound_document9tree_rootEi
FNL:11,1223,1226
FNA:11,152,_ZN4xlnt6detail17compound_document10tree_childEi
FNL:12,1228,1231
FNA:12,16,_ZN4xlnt6detail17compound_document8tree_keyB5cxx11Ei
FNL:13,1233,1236
FNA:13,20,_ZN4xlnt6detail17compound_document10tree_colorEi
FNL:14,1238,1242
FNA:14,22,_ZN4xlnt6detail17compound_document11read_headerEv
FNL:15,1244,1265
FNA:15,22,_ZN4xlnt6detail17compound_document9read_msatEv
FNL:16,1267,1276
FNA:16,22,_ZN4xlnt6detail17compound_document8read_satEv
FNL:17,1278,1287
FNA:17,22,_ZN4xlnt6detail17compound_document9read_ssatEv
FNL:18,1289,1299
FNA:18,168,_ZN4xlnt6detail17compound_document10read_entryEi
FNL:19,1301,1305
FNA:19,95,_ZN4xlnt6detail17compound_document12write_headerEv
FNL:20,1307,1330
FNA:20,11,_ZN4xlnt6detail17compound_document10write_msatEv
FNL:21,1332,1340
FNA:21,2012,_ZN4xlnt6detail17compound_document9write_satEv
FNL:22,1342,1350
FNA:22,80,_ZN4xlnt6detail17compound_document10write_ssatEv
FNL:23,1352,1362
FNA:23,4012,_ZN4xlnt6detail17compound_document11write_entryEi
FNL:24,180,183
FNA:24,3486,_ZN4xlnt6detail28compound_document_istreambuf12short_streamEv
FNL:25,185,198
FNA:25,0,_ZN4xlnt6detail28compound_document_istreambuf9underflowEv
FNL:26,200,206
FNA:26,0,_ZN4xlnt6detail28compound_document_istreambuf5uflowEv
FNL:27,208,216
FNA:27,0,_ZN4xlnt6detail28compound_document_istreambuf9showmanycEv
FNL:28,218,255
FNA:28,30,_ZN4xlnt6detail28compound_document_istreambuf7seekoffElSt12_Ios_SeekdirSt13_Ios_Openmode
FNL:29,257,273
FNA:29,0,_ZN4xlnt6detail28compound_document_istreambuf7seekposESt4fposI11__mbstate_tESt13_Ios_Openmode
FNL:30,283,285
FNA:30,44,_ZN4xlnt6detail28compound_document_istreambufD0Ev
FNA:30,44,_ZN4xlnt6detail28compound_document_istreambufD2Ev
FNL:31,295,304
FNA:31,8,_ZN4xlnt6detail28compound_document_ostreambufC2ERNS0_23compound_document_entryERNS0_17compound_documentE
FNL:32,312,360
FNA:32,986,_ZN4xlnt6detail28compound_document_ostreambuf4syncEv
FNL:33,362,365
FNA:33,1956,_ZN4xlnt6detail28compound_document_ostreambuf12short_streamEv
FNL:34,367,396
FNA:34,974,_ZN4xlnt6detail28compound_document_ostreambuf8overflowEi
FNL:35,398,426
FNA:35,4,_ZN4xlnt6detail28compound_document_ostreambuf22convert_to_long_streamEv
FNL:36,428,465
FNA:36,0,_ZN4xlnt6detail28compound_document_ostreambuf7seekoffElSt12_Ios_SeekdirSt13_Ios_Openmode
FNL:37,43,53
FNA:37,8,_ZN12_GLOBAL__N_112compare_keysERKNSt7__cxx1112basic_stringIcSt11char_traitsIcESaIcEEES7_
FNL:38,45,50
FNA:38,16,_ZZN12_GLOBAL__N_112compare_keysERKNSt7__cxx1112basic_stringIcSt11char_traitsIcESaIcEEES7_ENKUlS5_E_clES5_
FNL:39,467,483
FNA:39,0,_ZN4xlnt6detail28compound_document_ostreambuf7seekposESt4fposI11__mbstate_tESt13_Ios_Openmode
FNL:40,494,497
FNA:40,8,_ZN4xlnt6detail28compound_document_ostreambufD0Ev
FNA:40,8,_ZN4xlnt6detail28compound_document_ostreambufD2Ev
FNL:41,499,507
FNA:41,4,_ZN4xlnt6detail17compound_documentC2ERSo
FNL:42,509,519
FNA:42,22,_ZN4xlnt6detail17compound_documentC2ERSi
FNL:43,521,524
FNA:43,26,_ZN4xlnt6detail17compound_documentD2Ev
FNL:44,526,529
FNA:44,26,_ZN4xlnt6detail17compound_document5closeEv
FNL:45,531,534
FNA:45,41628,_ZN4xlnt6detail17compound_document11sector_sizeEv
FNL:46,536,539
FNA:46,1184,_ZN4xlnt6detail17compound_document17short_sector_sizeEv
FNL:47,541,555
FNA:47,44,_ZN4xlnt6detail17compound_document16open_read_streamERKNSt7__cxx1112basic_stringIcSt11char_traitsIcESaIcEEE
FNL:48,55,71
FNA:48,12,_ZN12_GLOBAL__N_110split_pathERKNSt7__cxx1112basic_stringIcSt11char_traitsIcESaIcEEE
FNL:49,557,568
FNA:49,8,_ZN4xlnt6detail17compound_document17open_write_streamERKNSt7__cxx1112basic_stringIcSt11char_traitsIcESaIcEEE
FNL:50,571,576
FNA:50,2032,_ZN4xlnt6detail17compound_document12write_sectorIhEEvRNS0_13binary_readerIT_EEi
FNA:50,8547,_ZN4xlnt6detail17compound_document12write_sectorIiEEvRNS0_13binary_readerIT_EEi
FNL:51,579,587
FNA:51,76,_ZN4xlnt6detail17compound_document18write_short_sectorIhEEvRNS0_13binary_readerIT_EEi
FNL:52,590,596
FNA:52,2719,_ZN4xlnt6detail17compound_document11read_sectorIhEEviRNS0_13binary_writerIT_EE
FNA:52,73,_ZN4xlnt6detail17compound_document11read_sectorIiEEviRNS0_13binary_writerIT_EE
FNL:53,619,634
FNA:53,195,_ZN4xlnt6detail17compound_document17read_short_sectorIhEEviRNS0_13binary_writerIT_EE
FNL:54,656,693
FNA:54,1026,_ZN4xlnt6detail17compound_document15allocate_sectorEv
FNL:55,695,714
FNA:55,4,_ZN4xlnt6detail17compound_document16allocate_sectorsEm
FNL:56,716,728
FNA:56,5243,_ZN4xlnt6detail17compound_document12follow_chainEiRKSt6vectorIiSaIiEE
FNL:57,73,84
FNA:57,192,_ZN12_GLOBAL__N_19join_pathERKSt6vectorINSt7__cxx1112basic_stringIcSt11char_traitsIcESaIcEEESaIS6_EE
FNL:58,730,749
FNA:58,4,_ZN4xlnt6detail17compound_document22allocate_short_sectorsEm
FNL:59,751,812
FNA:59,76,_ZN4xlnt6detail17compound_document21allocate_short_sectorEv
FNL:60,814,853
FNA:60,12,_ZN4xlnt6detail17compound_document16next_empty_entryEv
FNL:61,855,886
FNA:61,12,_ZN4xlnt6detail17compound_document12insert_entryERKNSt7__cxx1112basic_stringIcSt11char_traitsIcESaIcEEENS0_23compound_document_entry10entry_typeE
FNL:62,888,891
FNA:62,17627,_ZN4xlnt6detail17compound_document17sector_data_startEv
FNL:63,893,897
FNA:63,52,_ZN4xlnt6detail17compound_document14contains_entryERKNSt7__cxx1112basic_stringIcSt11char_traitsIcESaIcEEENS0_23compound_document_entry10entry_typeE
FNL:64,899,918
FNA:64,96,_ZN4xlnt6detail17compound_document10find_entryERKNSt7__cxx1112basic_stringIcSt11char_traitsIcESaIcEEENS0_23compound_document_entry10entry_typeE
FNL:65,920,933
FNA:65,0,_ZN4xlnt6detail17compound_document15print_directoryEv
FNL:66,935,941
FNA:66,998,_ZN4xlnt6detail17compound_document15write_directoryEv
FNL:67,943,999
FNA:67,22,_ZN4xlnt6detail17compound_document14read_directoryEv
FNF:68
FNH:59
BRDA:46,0,0,1
BRDA:46,0,1,15
BRDA:46,0,2,1
BRDA:46,0,3,0
BRDA:52,0,0,8
BRDA:52,e0,1,0
BRDA:52,0,2,8
BRDA:52,e0,3,0
BRDA:52,0,4,8
BRDA:52,e0,5,0
BRDA:52,0,6,8
BRDA:52,e0,7,0
BRDA:61,0,0,12
BRDA:61,0,1,12
BRDA:63,0,0,12
BRDA:63,e0,1,0
BRDA:63,0,2,12
BRDA:63,e0,3,0
BRDA:68,0,0,12
BRDA:68,e0,1,0
BRDA:68,0,2,12
BRDA:68,e0,3,0
BRDA:77,0,0,98
BRDA:77,e0,1,0
BRDA:77,0,2,98
BRDA:77,0,3,192
BRDA:79,0,0,98
BRDA:79,e0,1,0
BRDA:80,0,0,98
BRDA:80,e0,1,0
BRDA:124,0,0,298
BRDA:124,0,1,294
BRDA:124,0,2,592
BRDA:124,e0,3,0
BRDA:125,0,0,592
BRDA:125,e0,1,0
BRDA:126,0,0,298
BRDA:126,0,1,294
BRDA:130,0,0,2837
BRDA:130,0,1,592
BRDA:132,0,0,2798
BRDA:132,0,1,39
BRDA:132,0,2,2248
BRDA:132,0,3,550
BRDA:132,0,4,2287
BRDA:132,0,5,550
BRDA:136,0,0,180
BRDA:136,0,1,2107
BRDA:138,0,0,180
BRDA:138,e0,1,0
BRDA:142,0,0,2107
BRDA:142,e0,1,0
BRDA:153,0,0,1083407
BRDA:153,0,1,2837
BRDA:163,0,0,550
BRDA:163,0,1,42
BRDA:163,0,2,15
BRDA:163,0,3,535
BRDA:163,0,4,15
BRDA:163,0,5,577
BRDA:167,0,0,15
BRDA:167,0,1,0
BRDA:169,0,0,15
BRDA:169,e0,1,0
BRDA:173,0,0,-
BRDA:173,e0,1,-
BRDA:187,0,0,-
BRDA:187,0,1,-
BRDA:194,0,0,-
BRDA:194,e0,1,-
BRDA:210,0,0,-
BRDA:210,0,1,-
BRDA:220,0,0,0
BRDA:220,0,1,30
BRDA:224,0,0,0
BRDA:224,0,1,30
BRDA:229,0,0,0
BRDA:229,0,1,30
BRDA:231,0,0,-
BRDA:231,0,1,-
BRDA:241,0,0,0
BRDA:241,0,1,30
BRDA:243,0,0,-
BRDA:243,0,1,-
BRDA:259,0,0,-
BRDA:259,0,1,-
BRDA:263,0,0,-
BRDA:263,0,1,-
BRDA:298,0,0,8
BRDA:298,e0,1,0
BRDA:316,0,0,4
BRDA:316,0,1,982
BRDA:323,0,0,8
BRDA:323,0,1,974
BRDA:325,0,0,4
BRDA:325,0,1,4
BRDA:331,0,0,4
BRDA:331,0,1,0
BRDA:334,0,0,4
BRDA:334,e0,1,0
BRDA:338,0,0,76
BRDA:338,0,1,4
BRDA:340,0,0,76
BRDA:340,e0,1,0
BRDA:355,0,0,982
BRDA:355,e0,1,0
BRDA:371,0,0,0
BRDA:371,0,1,974
BRDA:373,0,0,-
BRDA:373,e0,1,-
BRDA:375,0,0,-
BRDA:375,e0,1,-
BRDA:376,0,0,-
BRDA:376,e0,1,-
BRDA:380,0,0,974
BRDA:380,e0,1,0
BRDA:382,0,0,974
BRDA:382,e0,1,0
BRDA:383,0,0,974
BRDA:383,e0,1,0
BRDA:388,0,0,974
BRDA:388,0,1,0
BRDA:403,0,0,4
BRDA:403,e0,1,0
BRDA:405,0,0,32
BRDA:405,0,1,4
BRDA:407,0,0,32
BRDA:407,e0,1,0
BRDA:411,0,0,4
BRDA:411,e0,1,0
BRDA:412,0,0,4
BRDA:412,e0,1,0
BRDA:414,0,0,4
BRDA:414,0,1,0
BRDA:417,0,0,0
BRDA:417,0,1,4
BRDA:423,0,0,4
BRDA:423,e0,1,0
BRDA:425,0,0,4
BRDA:425,e0,1,0
BRDA:430,0,0,-
BRDA:430,0,1,-
BRDA:434,0,0,-
BRDA:434,0,1,-
BRDA:439,0,0,-
BRDA:439,0,1,-
BRDA:441,0,0,-
BRDA:441,0,1,-
BRDA:451,0,0,-
BRDA:451,0,1,-
BRDA:453,0,0,-
BRDA:453,0,1,-
BRDA:469,0,0,-
BRDA:469,0,1,-
BRDA:473,0,0,-
BRDA:473,0,1,-
BRDA:501,0,0,4
BRDA:501,e0,1,0
BRDA:502,0,0,4
BRDA:502,e0,1,0
BRDA:504,0,0,4
BRDA:504,e0,1,0
BRDA:505,0,0,4
BRDA:505,e0,1,0
BRDA:506,0,0,4
BRDA:506,e0,1,0
BRDA:506,0,2,4
BRDA:506,e0,3,0
BRDA:511,0,0,22
BRDA:511,e0,1,0
BRDA:512,0,0,22
BRDA:512,e0,1,0
BRDA:514,0,0,22
BRDA:514,e0,1,0
BRDA:515,0,0,22
BRDA:515,e0,1,0
BRDA:516,0,0,22
BRDA:516,e0,1,0
BRDA:517,0,0,22
BRDA:517,e0,1,0
BRDA:518,0,0,22
BRDA:518,e0,1,0
BRDA:543,0,0,0
BRDA:543,0,1,44
BRDA:545,0,0,-
BRDA:545,e0,1,-
BRDA:545,0,2,-
BRDA:545,e0,3,-
BRDA:551,0,0,44
BRDA:551,e0,1,0
BRDA:551,0,2,0
BRDA:551,0,3,0
BRDA:560,0,0,0
BRDA:560,0,1,8
BRDA:564,0,0,8
BRDA:564,e0,1,0
BRDA:564,0,2,0
BRDA:564,0,3,0
BRDA:573,0,0,10579
BRDA:573,e0,1,0
BRDA:574,0,0,10579
BRDA:574,e0,1,0
BRDA:575,0,0,10579
BRDA:575,e0,1,0
BRDA:581,0,0,76
BRDA:581,e0,1,0
BRDA:584,0,0,76
BRDA:584,e0,1,0
BRDA:585,0,0,76
BRDA:585,e0,1,0
BRDA:586,0,0,76
BRDA:586,e0,1,0
BRDA:592,0,0,2792
BRDA:592,e0,1,0
BRDA:593,0,0,2792
BRDA:593,e0,1,0
BRDA:594,0,0,2792
BRDA:594,e0,1,0
BRDA:595,0,0,2792
BRDA:595,e0,1,0
BRDA:621,0,0,195
BRDA:621,e0,1,0
BRDA:625,0,0,612
BRDA:625,0,1,195
BRDA:627,0,0,612
BRDA:627,e0,1,0
BRDA:633,0,0,195
BRDA:633,e0,1,0
BRDA:659,0,0,1026
BRDA:659,e0,1,0
BRDA:661,0,0,11
BRDA:661,0,1,1015
BRDA:666,0,0,11
BRDA:666,e0,1,0
BRDA:667,0,0,11
BRDA:667,e0,1,0
BRDA:671,0,0,11
BRDA:671,e0,1,0
BRDA:673,0,0,11
BRDA:673,e0,1,0
BRDA:678,0,0,11
BRDA:678,e0,1,0
BRDA:680,0,0,11
BRDA:680,e0,1,0
BRDA:686,0,0,1026
BRDA:686,e0,1,0
BRDA:688,0,0,1026
BRDA:688,e0,1,0
BRDA:690,0,0,1026
BRDA:690,e0,1,0
BRDA:697,0,0,0
BRDA:697,0,1,4
BRDA:700,0,0,4
BRDA:700,e0,1,0
BRDA:702,0,0,28
BRDA:702,0,1,4
BRDA:704,0,0,28
BRDA:704,e0,1,0
BRDA:705,0,0,28
BRDA:705,e0,1,0
BRDA:710,0,0,4
BRDA:710,e0,1,0
BRDA:711,0,0,4
BRDA:711,e0,1,0
BRDA:721,0,0,242272
BRDA:721,0,1,5243
BRDA:723,0,0,242272
BRDA:723,e0,1,0
BRDA:732,0,0,0
BRDA:732,0,1,4
BRDA:735,0,0,4
BRDA:735,e0,1,0
BRDA:737,0,0,72
BRDA:737,0,1,4
BRDA:739,0,0,72
BRDA:739,e0,1,0
BRDA:740,0,0,72
BRDA:740,e0,1,0
BRDA:745,0,0,4
BRDA:745,e0,1,0
BRDA:746,0,0,4
BRDA:746,e0,1,0
BRDA:754,0,0,76
BRDA:754,e0,1,0
BRDA:756,0,0,4
BRDA:756,0,1,72
BRDA:758,0,0,4
BRDA:758,e0,1,0
BRDA:760,0,0,4
BRDA:760,0,1,0
BRDA:766,0,0,-
BRDA:766,e0,1,-
BRDA:768,0,0,-
BRDA:768,e0,1,-
BRDA:771,0,0,4
BRDA:771,e0,1,0
BRDA:774,0,0,4
BRDA:774,e0,1,0
BRDA:778,0,0,4
BRDA:778,e0,1,0
BRDA:780,0,0,4
BRDA:780,e0,1,0
BRDA:784,0,0,76
BRDA:784,e0,1,0
BRDA:789,0,0,76
BRDA:789,e0,1,0
BRDA:794,0,0,76
BRDA:794,0,1,0
BRDA:796,0,0,4
BRDA:796,0,1,72
BRDA:798,0,0,4
BRDA:798,e0,1,0
BRDA:799,0,0,4
BRDA:799,e0,1,0
BRDA:802,0,0,76
BRDA:802,e0,1,0
BRDA:804,0,0,8
BRDA:804,0,1,68
BRDA:806,0,0,8
BRDA:806,e0,1,0
BRDA:807,0,0,8
BRDA:807,e0,1,0
BRDA:818,0,0,20
BRDA:818,0,1,4
BRDA:822,0,0,8
BRDA:822,0,1,12
BRDA:830,0,0,4
BRDA:830,0,1,0
BRDA:836,0,0,-
BRDA:836,e0,1,-
BRDA:837,0,0,-
BRDA:837,e0,1,-
BRDA:838,0,0,-
BRDA:838,e0,1,-
BRDA:844,0,0,16
BRDA:844,0,1,4
BRDA:848,0,0,16
BRDA:848,e0,1,0
BRDA:849,0,0,16
BRDA:849,e0,1,0
BRDA:859,0,0,12
BRDA:859,e0,1,0
BRDA:863,0,0,12
BRDA:863,e0,1,0
BRDA:864,0,0,12
BRDA:864,e0,1,0
BRDA:867,0,0,0
BRDA:867,0,1,12
BRDA:869,0,0,-
BRDA:869,e0,1,-
BRDA:869,0,2,-
BRDA:869,e0,3,-
BRDA:871,0,0,-
BRDA:871,0,1,-
BRDA:873,0,0,-
BRDA:873,e0,1,-
BRDA:873,0,2,-
BRDA:873,e0,3,-
BRDA:876,0,0,-
BRDA:876,e0,1,-
BRDA:879,0,0,12
BRDA:879,e0,1,0
BRDA:882,0,0,12
BRDA:882,e0,1,0
BRDA:883,0,0,12
BRDA:883,e0,1,0
BRDA:903,0,0,0
BRDA:903,0,1,96
BRDA:903,0,2,0
BRDA:903,0,3,0
BRDA:903,0,4,0
BRDA:903,0,5,0
BRDA:903,0,6,0
BRDA:903,0,7,96
BRDA:907,0,0,364
BRDA:907,0,1,8
BRDA:909,0,0,192
BRDA:909,0,1,172
BRDA:909,0,2,192
BRDA:909,e0,3,0
BRDA:909,0,4,88
BRDA:909,0,5,104
BRDA:909,0,6,192
BRDA:909,0,7,172
BRDA:909,0,8,88
BRDA:909,0,9,276
BRDA:909,0,10,0
BRDA:909,0,11,0
BRDA:924,0,0,-
BRDA:924,0,1,-
BRDA:926,0,0,-
BRDA:926,0,1,-
BRDA:928,0,0,-
BRDA:928,e0,1,-
BRDA:928,0,2,-
BRDA:928,e0,3,-
BRDA:928,0,4,-
BRDA:928,e0,5,-
BRDA:937,0,0,3992
BRDA:937,0,1,998
BRDA:946,0,0,22
BRDA:946,e0,1,0
BRDA:948,0,0,168
BRDA:948,0,1,22
BRDA:950,0,0,168
BRDA:950,e0,1,0
BRDA:951,0,0,168
BRDA:951,e0,1,0
BRDA:959,0,0,22
BRDA:959,e0,1,0
BRDA:961,0,0,62
BRDA:961,0,1,22
BRDA:966,0,0,0
BRDA:966,0,1,62
BRDA:970,0,0,62
BRDA:970,e0,1,0
BRDA:971,0,0,62
BRDA:971,e0,1,0
BRDA:973,0,0,124
BRDA:973,0,1,62
BRDA:979,0,0,124
BRDA:979,e0,1,0
BRDA:981,0,0,40
BRDA:981,0,1,84
BRDA:983,0,0,40
BRDA:983,e0,1,0
BRDA:986,0,0,20
BRDA:986,0,1,104
BRDA:988,0,0,20
BRDA:988,e0,1,0
BRDA:989,0,0,20
BRDA:989,e0,1,0
BRDA:992,0,0,42
BRDA:992,0,1,82
BRDA:994,0,0,42
BRDA:994,e0,1,0
BRDA:995,0,0,42
BRDA:995,e0,1,0
BRDA:1010,0,0,8
BRDA:1010,0,1,4
BRDA:1012,0,0,4
BRDA:1012,0,1,4
BRDA:1028,0,0,4
BRDA:1028,0,1,4
BRDA:1032,0,0,4
BRDA:1032,e0,1,0
BRDA:1032,0,2,4
BRDA:1032,e0,3,0
BRDA:1032,0,4,4
BRDA:1032,e0,5,0
BRDA:1032,0,6,0
BRDA:1032,0,7,4
BRDA:1044,0,0,4
BRDA:1044,e0,1,0
BRDA:1044,0,2,4
BRDA:1044,e0,3,0
BRDA:1044,0,4,4
BRDA:1044,e0,5,0
BRDA:1044,0,6,0
BRDA:1044,0,7,4
BRDA:1058,0,0,192
BRDA:1058,e0,1,0
BRDA:1061,0,0,98
BRDA:1061,0,1,192
BRDA:1063,0,0,98
BRDA:1063,e0,1,0
BRDA:1064,0,0,98
BRDA:1064,e0,1,0
BRDA:1064,0,2,98
BRDA:1064,e0,3,0
BRDA:1067,0,0,192
BRDA:1067,e0,1,0
BRDA:1067,0,2,192
BRDA:1067,e0,3,0
BRDA:1067,0,4,192
BRDA:1067,e0,5,0
BRDA:1067,0,6,192
BRDA:1067,e0,7,0
BRDA:1077,0,0,-
BRDA:1077,0,1,-
BRDA:1085,0,0,-
BRDA:1085,0,1,-
BRDA:1089,0,0,-
BRDA:1089,0,1,-
BRDA:1110,0,0,-
BRDA:1110,0,1,-
BRDA:1118,0,0,-
BRDA:1118,0,1,-
BRDA:1122,0,0,-
BRDA:1122,0,1,-
BRDA:1142,0,0,4
BRDA:1142,0,1,0
BRDA:1142,0,2,0
BRDA:1142,0,3,4
BRDA:1142,0,4,0
BRDA:1142,0,5,4
BRDA:1144,0,0,-
BRDA:1144,0,1,-
BRDA:1148,0,0,-
BRDA:1148,0,1,-
BRDA:1148,0,2,-
BRDA:1148,0,3,-
BRDA:1148,0,4,-
BRDA:1148,0,5,-
BRDA:1158,0,0,-
BRDA:1158,0,1,-
BRDA:1175,0,0,-
BRDA:1175,0,1,-
BRDA:1175,0,2,-
BRDA:1175,0,3,-
BRDA:1175,0,4,-
BRDA:1175,0,5,-
BRDA:1185,0,0,-
BRDA:1185,0,1,-
BRDA:1251,0,0,51
BRDA:1251,0,1,22
BRDA:1253,0,0,51
BRDA:1253,0,1,0
BRDA:1255,0,0,51
BRDA:1255,e0,1,0
BRDA:1259,0,0,-
BRDA:1259,e0,1,-
BRDA:1272,0,0,51
BRDA:1272,0,1,22
BRDA:1274,0,0,51
BRDA:1274,e0,1,0
BRDA:1283,0,0,22
BRDA:1283,e0,1,0
BRDA:1283,0,2,22
BRDA:1283,0,3,22
BRDA:1285,0,0,22
BRDA:1285,e0,1,0
BRDA:1291,0,0,168
BRDA:1291,e0,1,0
BRDA:1297,0,0,168
BRDA:1297,e0,1,0
BRDA:1298,0,0,168
BRDA:1298,e0,1,0
BRDA:1311,0,0,28
BRDA:1311,0,1,11
BRDA:1313,0,0,28
BRDA:1313,0,1,0
BRDA:1322,0,0,-
BRDA:1322,e0,1,-
BRDA:1327,0,0,-
BRDA:1327,e0,1,-
BRDA:1327,0,2,-
BRDA:1327,e0,3,-
BRDA:1336,0,0,8452
BRDA:1336,0,1,2012
BRDA:1338,0,0,8452
BRDA:1338,e0,1,0
BRDA:1346,0,0,80
BRDA:1346,e0,1,0
BRDA:1346,0,2,80
BRDA:1346,0,3,80
BRDA:1348,0,0,80
BRDA:1348,e0,1,0
BRDA:1354,0,0,4012
BRDA:1354,e0,1,0
BRDA:1360,0,0,4012
BRDA:1360,e0,1,0
BRDA:1361,0,0,4012
BRDA:1361,e0,1,0
BRF:564
BRH:273
DA:43,8
DA:45,16
DA:46,16
DA:47,16
DA:49,16
DA:52,8
DA:55,12
DA:57,12
DA:58,12
DA:59,12
DA:61,24
DA:63,12
DA:64,12
DA:65,12
DA:68,12
DA:70,12
DA:71,0
DA:73,192
DA:75,192
DA:77,290
DA:79,98
DA:80,98
DA:81,98
DA:83,192
DA:84,0
DA:106,44
DA:107,88
DA:108,44
DA:109,44
DA:110,44
DA:112,44
DA:120,592
DA:122,592
DA:124,592
DA:125,592
DA:126,592
DA:127,592
DA:128,592
DA:130,3429
DA:132,2837
DA:134,2287
DA:135,2287
DA:136,2287
DA:138,180
DA:142,2107
DA:146,5674
DA:147,2837
DA:148,2837
DA:150,2837
DA:151,2837
DA:153,1086244
DA:155,1083407
DA:158,2837
DA:159,2837
DA:160,2837
DA:163,592
DA:165,15
DA:166,15
DA:167,15
DA:169,15
DA:173,0
DA:177,592
DA:178,592
DA:180,3486
DA:182,3486
DA:185,0
DA:187,0
DA:189,0
DA:192,0
DA:193,0
DA:194,0
DA:195,0
DA:197,0
DA:200,0
DA:202,0
DA:203,0
DA:205,0
DA:208,0
DA:210,0
DA:212,0
DA:215,0
DA:218,30
DA:220,30
DA:222,0
DA:224,30
DA:226,0
DA:229,30
DA:231,0
DA:233,0
DA:234,0
DA:238,0
DA:241,30
DA:243,0
DA:245,0
DA:246,0
DA:250,0
DA:254,30
DA:257,0
DA:259,0
DA:261,0
DA:263,0
DA:265,0
DA:269,0
DA:272,0
DA:283,88
DA:285,88
DA:295,8
DA:296,16
DA:297,8
DA:298,8
DA:299,8
DA:300,16
DA:302,8
DA:303,8
DA:304,8
DA:312,986
DA:314,986
DA:316,986
DA:318,4
DA:321,982
DA:323,982
DA:325,8
DA:327,4
DA:331,4
DA:333,4
DA:334,4
DA:335,4
DA:338,80
DA:340,76
DA:341,76
DA:347,974
DA:348,974
DA:351,982
DA:352,982
DA:353,982
DA:355,982
DA:356,982
DA:357,982
DA:359,982
DA:362,1956
DA:364,1956
DA:367,974
DA:369,974
DA:371,974
DA:373,0
DA:374,0
DA:375,0
DA:376,0
DA:380,974
DA:381,974
DA:382,974
DA:383,974
DA:386,974
DA:388,974
DA:390,974
DA:393,974
DA:395,974
DA:398,4
DA:400,4
DA:402,4
DA:403,4
DA:405,36
DA:407,32
DA:408,32
DA:411,4
DA:412,4
DA:414,4
DA:417,4
DA:419,0
DA:423,4
DA:424,4
DA:425,4
DA:426,4
DA:428,0
DA:430,0
DA:432,0
DA:434,0
DA:436,0
DA:439,0
DA:441,0
DA:443,0
DA:444,0
DA:448,0
DA:451,0
DA:453,0
DA:455,0
DA:456,0
DA:460,0
DA:464,0
DA:467,0
DA:469,0
DA:471,0
DA:473,0
DA:475,0
DA:479,0
DA:482,0
DA:494,16
DA:496,8
DA:497,16
DA:499,4
DA:500,4
DA:501,4
DA:502,8
DA:504,4
DA:505,4
DA:506,4
DA:507,4
DA:509,22
DA:510,22
DA:511,22
DA:512,44
DA:514,22
DA:515,22
DA:516,22
DA:517,22
DA:518,22
DA:519,22
DA:521,26
DA:523,26
DA:524,26
DA:526,26
DA:528,26
DA:529,26
DA:531,41628
DA:533,41628
DA:536,1184
DA:538,1184
DA:541,44
DA:543,44
DA:545,0
DA:548,44
DA:549,44
DA:551,44
DA:552,44
DA:554,44
DA:557,8
DA:559,8
DA:560,8
DA:561,8
DA:562,8
DA:564,8
DA:565,8
DA:567,8
DA:571,10579
DA:573,10579
DA:574,10579
DA:575,10579
DA:576,10579
DA:579,76
DA:581,76
DA:582,76
DA:583,76
DA:584,76
DA:585,76
DA:586,76
DA:587,76
DA:590,2792
DA:592,2792
DA:593,2792
DA:594,2792
DA:595,2792
DA:596,2792
DA:619,195
DA:621,195
DA:622,195
DA:623,195
DA:625,807
DA:627,612
DA:630,195
DA:631,195
DA:633,195
DA:634,195
DA:656,1026
DA:658,1026
DA:659,1026
DA:661,1026
DA:663,11
DA:664,11
DA:666,11
DA:667,11
DA:669,11
DA:670,11
DA:671,11
DA:673,11
DA:674,11
DA:676,11
DA:677,11
DA:678,11
DA:680,11
DA:681,11
DA:683,1026
DA:684,1026
DA:686,1026
DA:688,1026
DA:689,1026
DA:690,1026
DA:692,1026
DA:693,1026
DA:695,4
DA:697,4
DA:699,4
DA:700,4
DA:702,32
DA:704,28
DA:705,28
DA:706,28
DA:707,28
DA:710,4
DA:711,4
DA:713,4
DA:714,4
DA:716,5243
DA:718,5243
DA:719,5243
DA:721,247515
DA:723,242272
DA:724,242272
DA:727,5243
DA:728,0
DA:730,4
DA:732,4
DA:734,4
DA:735,4
DA:737,76
DA:739,72
DA:740,72
DA:741,72
DA:742,72
DA:745,4
DA:746,4
DA:748,4
DA:749,4
DA:751,76
DA:753,76
DA:754,76
DA:756,76
DA:758,4
DA:760,4
DA:762,4
DA:766,0
DA:767,0
DA:768,0
DA:769,0
DA:771,4
DA:773,4
DA:774,4
DA:776,4
DA:777,4
DA:778,4
DA:780,4
DA:781,4
DA:783,76
DA:784,76
DA:786,76
DA:787,76
DA:789,76
DA:791,76
DA:792,76
DA:794,76
DA:796,76
DA:798,4
DA:799,4
DA:802,76
DA:804,76
DA:806,8
DA:807,8
DA:809,76
DA:811,76
DA:814,12
DA:816,12
DA:818,24
DA:820,20
DA:822,20
DA:824,8
DA:830,4
DA:832,4
DA:836,0
DA:837,0
DA:838,0
DA:839,0
DA:841,4
DA:842,4
DA:844,20
DA:846,16
DA:847,16
DA:848,16
DA:849,16
DA:852,4
DA:855,12
DA:859,12
DA:860,12
DA:862,12
DA:863,12
DA:864,12
DA:865,12
DA:867,12
DA:869,0
DA:871,0
DA:873,0
DA:876,0
DA:879,12
DA:880,12
DA:882,12
DA:883,12
DA:885,12
DA:886,12
DA:888,17627
DA:890,17627
DA:893,52
DA:896,52
DA:899,96
DA:902,96
DA:903,96
DA:905,96
DA:907,372
DA:909,364
DA:911,88
DA:914,276
DA:917,8
DA:920,0
DA:922,0
DA:924,0
DA:926,0
DA:928,0
DA:931,0
DA:933,0
DA:935,998
DA:937,4990
DA:939,3992
DA:941,998
DA:943,22
DA:945,22
DA:946,22
DA:948,190
DA:950,168
DA:951,168
DA:954,22
DA:955,22
DA:956,22
DA:958,22
DA:959,22
DA:961,84
DA:963,62
DA:964,62
DA:966,62
DA:968,62
DA:969,62
DA:970,62
DA:971,62
DA:973,186
DA:975,124
DA:976,124
DA:977,124
DA:979,124
DA:981,124
DA:983,40
DA:986,124
DA:988,20
DA:989,20
DA:992,124
DA:994,42
DA:995,42
DA:998,62
DA:999,22
DA:1001,12
DA:1005,12
DA:1007,12
DA:1008,12
DA:1010,12
DA:1012,8
DA:1014,4
DA:1017,8
DA:1018,8
DA:1020,8
DA:1025,4
DA:1026,4
DA:1028,8
DA:1030,4
DA:1032,4
DA:1034,0
DA:1038,4
DA:1042,4
DA:1044,4
DA:1046,0
DA:1050,4
DA:1053,4
DA:1056,192
DA:1058,192
DA:1059,192
DA:1061,290
DA:1063,98
DA:1064,98
DA:1067,384
DA:1068,192
DA:1070,0
DA:1072,0
DA:1075,0
DA:1077,0
DA:1079,0
DA:1083,0
DA:1085,0
DA:1087,0
DA:1089,0
DA:1091,0
DA:1095,0
DA:1099,0
DA:1100,0
DA:1101,0
DA:1103,0
DA:1105,0
DA:1108,0
DA:1110,0
DA:1112,0
DA:1116,0
DA:1118,0
DA:1120,0
DA:1122,0
DA:1124,0
DA:1128,0
DA:1132,0
DA:1133,0
DA:1134,0
DA:1136,4
DA:1140,4
DA:1142,4
DA:1144,0
DA:1146,0
DA:1148,0
DA:1151,0
DA:1152,0
DA:1153,0
DA:1154,0
DA:1158,0
DA:1161,0
DA:1162,0
DA:1166,0
DA:1167,0
DA:1168,0
DA:1173,0
DA:1175,0
DA:1178,0
DA:1179,0
DA:1180,0
DA:1181,0
DA:1185,0
DA:1188,0
DA:1189,0
DA:1193,0
DA:1194,0
DA:1195,0
DA:1200,4
DA:1201,4
DA:1203,184
DA:1205,184
DA:1208,220
DA:1210,220
DA:1213,78
DA:1215,78
DA:1218,28
DA:1220,28
DA:1223,152
DA:1225,152
DA:1228,16
DA:1230,16
DA:1233,20
DA:1235,20
DA:1238,22
DA:1240,22
DA:1241,22
DA:1242,22
DA:1244,22
DA:1246,22
DA:1248,22
DA:1249,22
DA:1251,73
DA:1253,51
DA:1255,51
DA:1259,0
DA:1261,0
DA:1262,0
DA:1265,22
DA:1267,22
DA:1269,22
DA:1270,22
DA:1272,73
DA:1274,51
DA:1276,22
DA:1278,22
DA:1280,22
DA:1281,22
DA:1283,44
DA:1285,22
DA:1286,22
DA:1287,22
DA:1289,168
DA:1291,168
DA:1292,168
DA:1293,168
DA:1294,168
DA:1295,168
DA:1297,168
DA:1298,168
DA:1299,168
DA:1301,95
DA:1303,95
DA:1304,95
DA:1305,95
DA:1307,11
DA:1309,11
DA:1311,39
DA:1313,28
DA:1315,28
DA:1319,0
DA:1320,0
DA:1322,0
DA:1324,0
DA:1325,0
DA:1327,0
DA:1328,0
DA:1330,11
DA:1332,2012
DA:1334,2012
DA:1336,10464
DA:1338,8452
DA:1340,2012
DA:1342,80
DA:1344,80
DA:1346,160
DA:1348,80
DA:1349,80
DA:1350,80
DA:1352,4012
DA:1354,4012
DA:1355,4012
DA:1356,4012
DA:1357,4012
DA:1358,4012
DA:1360,4012
DA:1361,4012
DA:1362,4012
LF:640
LH:490
end_of_record
TN:
SF:/root/project/source/detail/cryptography/compound_document.hpp
FNL:0,74,81
FNA:0,12,_ZN4xlnt6detail23compound_document_entry4nameERKNSt7__cxx1112basic_stringIcSt11char_traitsIcESaIcEEE
FNL:1,83,87
FNA:1,306,_ZNK4xlnt6detail23compound_document_entry4nameB5cxx11Ev
FNF:2
FNH:2
BRDA:76,0,0,12
BRDA:76,e0,1,0
BRDA:78,0,0,12
BRDA:78,e0,1,0
BRDA:86,0,0,306
BRDA:86,e0,1,0
BRDA:86,0,2,306
BRDA:86,e0,3,0
BRF:8
BRH:4
DA:74,12
DA:76,12
DA:77,12
DA:78,12
DA:79,12
DA:80,12
DA:81,12
DA:83,306
DA:85,306
DA:86,612
LF:10
LH:10
end_of_record
TN:
SF:/root/project/source/detail/cryptography/encryption_info.cpp
FNL:0,105,165
FNA:0,11,_ZN12_GLOBAL__N_119calculate_agile_keyEN4xlnt6detail15encryption_info21agile_encryption_infoERKNSt7__cxx1112basic_stringIDsSt11char_traitsIDsESaIDsEEE
FNL:1,131,144
FNA:1,31,_ZZN12_GLOBAL__N_119calculate_agile_keyEN4xlnt6detail15encryption_info21agile_encryption_infoERKNSt7__cxx1112basic_stringIDsSt11char_traitsIDsESaIDsEEEENKUlRKSt6vectorIhSaIhEERKSt5arrayIhLm8EESG_E_clESG_SK_SG_
FNL:2,172,177
FNA:2,26,_ZNK4xlnt6detail15encryption_info13calculate_keyEv
FNL:3,35,103
FNA:3,15,_ZN12_GLOBAL__N_122calculate_standard_keyEN4xlnt6detail15encryption_info24standard_encryption_infoERKNSt7__cxx1112basic_stringIDsSt11char_traitsIDsESaIDsEEE
FNF:4
FNH:4
BRDA:40,0,0,15
BRDA:40,e0,1,0
BRDA:41,0,0,15
BRDA:41,e0,1,0
BRDA:42,0,0,15
BRDA:42,e0,1,0
BRDA:42,0,2,15
BRDA:42,e0,3,0
BRDA:45,0,0,15
BRDA:45,e0,1,0
BRDA:48,0,0,15
BRDA:48,e0,1,0
BRDA:49,0,0,15
BRDA:49,e0,1,0
BRDA:52,0,0,750000
BRDA:52,0,1,15
BRDA:54,0,0,750000
BRDA:54,e0,1,0
BRDA:55,0,0,750000
BRDA:55,e0,1,0
BRDA:59,0,0,15
BRDA:59,e0,1,0
BRDA:61,0,0,15
BRDA:61,e0,1,0
BRDA:65,0,0,15
BRDA:65,e0,1,0
BRDA:68,0,0,15
BRDA:68,e0,1,0
BRDA:69,0,0,300
BRDA:69,0,1,15
BRDA:73,0,0,15
BRDA:73,e0,1,0
BRDA:76,0,0,15
BRDA:76,e0,1,0
BRDA:77,0,0,300
BRDA:77,0,1,15
BRDA:81,0,0,15
BRDA:81,e0,1,0
BRDA:83,0,0,15
BRDA:83,e0,1,0
BRDA:84,0,0,15
BRDA:84,e0,1,0
BRDA:87,0,0,15
BRDA:87,e0,1,0
BRDA:92,0,0,15
BRDA:92,e0,1,0
BRDA:92,0,2,15
BRDA:92,e0,3,0
BRDA:94,0,0,15
BRDA:94,e0,1,0
BRDA:95,0,0,15
BRDA:95,e0,1,0
BRDA:97,0,0,15
BRDA:97,e0,1,0
BRDA:97,0,2,3
BRDA:97,0,3,12
BRDA:99,0,0,3
BRDA:99,e0,1,0
BRDA:99,0,2,3
BRDA:99,e0,3,0
BRDA:110,0,0,11
BRDA:110,e0,1,0
BRDA:111,0,0,11
BRDA:111,e0,1,0
BRDA:112,0,0,11
BRDA:112,e0,1,0
BRDA:112,0,2,11
BRDA:112,e0,3,0
BRDA:116,0,0,11
BRDA:116,e0,1,0
BRDA:119,0,0,11
BRDA:119,e0,1,0
BRDA:120,0,0,11
BRDA:120,e0,1,0
BRDA:123,0,0,1100000
BRDA:123,0,1,11
BRDA:125,0,0,1100000
BRDA:125,e0,1,0
BRDA:126,0,0,1100000
BRDA:126,e0,1,0
BRDA:135,0,0,31
BRDA:135,e0,1,0
BRDA:136,0,0,31
BRDA:136,e0,1,0
BRDA:138,0,0,31
BRDA:138,e0,1,0
BRDA:139,0,0,31
BRDA:139,e0,1,0
BRDA:143,0,0,31
BRDA:143,e0,1,0
BRDA:147,0,0,11
BRDA:147,e0,1,0
BRDA:148,0,0,11
BRDA:148,e0,1,0
BRDA:152,0,0,11
BRDA:152,e0,1,0
BRDA:153,0,0,11
BRDA:153,e0,1,0
BRDA:155,0,0,11
BRDA:155,e0,1,0
BRDA:155,0,2,2
BRDA:155,0,3,9
BRDA:157,0,0,2
BRDA:157,e0,1,0
BRDA:157,0,2,2
BRDA:157,e0,3,0
BRDA:164,0,0,9
BRDA:164,e0,1,0
BRDA:175,0,0,11
BRDA:175,e0,1,0
BRDA:175,0,2,2
BRDA:175,0,3,3
BRDA:176,0,0,11
BRDA:176,0,1,15
BRDA:176,0,2,9
BRDA:176,e0,3,2
BRDA:176,0,4,15
BRDA:176,e0,5,0
BRDA:176,0,6,12
BRDA:176,e0,7,3
BRDA:176,0,8,12
BRDA:176,0,9,9
BRDA:176,0,10,9
BRDA:176,0,11,12
BRDA:176,0,12,3
BRDA:176,0,13,2
BRF:126
BRH:76
DA:35,15
DA:40,15
DA:41,15
DA:42,15
DA:45,15
DA:48,15
DA:49,15
DA:50,15
DA:51,15
DA:52,750015
DA:54,750000
DA:55,750000
DA:59,15
DA:60,15
DA:61,15
DA:62,15
DA:65,15
DA:68,15
DA:69,315
DA:71,300
DA:73,15
DA:76,15
DA:77,315
DA:79,300
DA:81,15
DA:83,15
DA:84,15
DA:87,15
DA:92,15
DA:94,15
DA:95,15
DA:97,15
DA:99,9
DA:102,12
DA:103,54
DA:105,11
DA:110,11
DA:111,11
DA:112,11
DA:116,11
DA:119,11
DA:120,11
DA:121,11
DA:122,11
DA:123,1100011
DA:125,1100000
DA:126,1100000
DA:131,31
DA:135,31
DA:136,31
DA:138,31
DA:139,31
DA:143,62
DA:144,31
DA:146,11
DA:147,11
DA:148,11
DA:150,11
DA:152,11
DA:153,11
DA:155,11
DA:157,6
DA:160,9
DA:164,18
DA:165,25
DA:172,26
DA:174,26
DA:175,37
DA:176,84
LF:69
LH:69
end_of_record
TN:
SF:/root/project/source/detail/cryptography/encryption_info.hpp
FNF:0
FNH:0
LF:0
LH:0
end_of_record
TN:
SF:/root/project/source/detail/cryptography/hash.cpp
FNL:0,31,45
FNA:0,1850507,_ZN4xlnt6detail4hashENS0_14hash_algorithmERKSt6vectorIhSaIhEERS4_
FNL:1,47,53
FNA:1,507,_ZN4xlnt6detail4hashENS0_14hash_algorithmERKSt6vectorIhSaIhEE
FNF:2
FNH:2
BRDA:33,0,0,800176
BRDA:33,0,1,1050331
BRDA:37,0,0,1050331
BRDA:37,0,1,0
BRDA:43,0,0,-
BRDA:43,e0,1,-
BRDA:43,0,2,-
BRDA:43,e0,3,-
BRDA:50,0,0,507
BRDA:50,e0,1,0
BRF:10
BRH:4
DA:31,1850507
DA:33,1850507
DA:35,800176
DA:37,1050331
DA:39,1050331
DA:43,0
DA:45,1850507
DA:47,507
DA:49,507
DA:50,507
DA:52,507
DA:53,0
LF:12
LH:10
end_of_record
TN:
SF:/root/project/source/detail/cryptography/sha.cpp
FNL:0,48,51
FNA:0,5251655,_ZN12_GLOBAL__N_110byteswap32Ej
FNL:1,53,56
FNA:1,6401408,_ZN12_GLOBAL__N_110byteswap64Em
FNL:2,59,65
FNA:2,1050331,_ZN12_GLOBAL__N_18byteswapEPjm
FNL:3,67,73
FNA:3,800176,_ZN12_GLOBAL__N_18byteswapEPmm
FNL:4,80,90
FNA:4,1050331,_ZN4xlnt6detail4sha1ERKSt6vectorIhSaIhEERS3_
FNL:5,92,102
FNA:5,800176,_ZN4xlnt6detail6sha512ERKSt6vectorIhSaIhEERS3_
FNF:6
FNH:6
BRDA:61,0,0,5251655
BRDA:61,0,1,1050331
BRDA:69,0,0,6401408
BRDA:69,0,1,800176
BRF:4
BRH:4
DA:48,5251655
DA:50,5251655
DA:53,6401408
DA:55,6401408
DA:59,1050331
DA:61,6301986
DA:63,5251655
DA:65,1050331
DA:67,800176
DA:69,7201584
DA:71,6401408
DA:73,800176
DA:80,1050331
DA:84,1050331
DA:85,1050331
DA:87,1050331
DA:89,1050331
DA:90,1050331
DA:92,800176
DA:96,800176
DA:97,800176
DA:99,800176
DA:101,800176
DA:102,800176
LF:24
LH:24
end_of_record
TN:
SF:/root/project/source/detail/cryptography/value_traits.hpp
FNL:0,38,61
FNA:0,7,_ZN3xml12value_traitsIN4xlnt6detail14hash_algorithmEE5parseENSt7__cxx1112basic_stringIcSt11char_traitsIcESaIcEEERKNS_6parserE
FNL:1,63,89
FNA:1,4,_ZN3xml12value_traitsIN4xlnt6detail14hash_algorithmEE9serializeB5cxx11ES3_RKNS_10serializerE
FNF:2
FNH:2
BRDA:40,0,0,3
BRDA:40,0,1,4
BRDA:42,0,0,0
BRDA:42,0,1,4
BRDA:44,0,0,0
BRDA:44,0,1,4
BRDA:46,0,0,4
BRDA:46,0,1,0
BRDA:48,0,0,-
BRDA:48,0,1,-
BRDA:50,0,0,-
BRDA:50,0,1,-
BRDA:52,0,0,-
BRDA:52,0,1,-
BRDA:54,0,0,-
BRDA:54,0,1,-
BRDA:56,0,0,-
BRDA:56,0,1,-
BRDA:58,0,0,-
BRDA:58,0,1,-
BRDA:60,0,0,-
BRDA:60,e0,1,-
BRDA:65,0,0,0
BRDA:65,0,1,0
BRDA:65,0,2,0
BRDA:65,0,3,4
BRDA:65,0,4,0
BRDA:65,0,5,0
BRDA:65,0,6,0
BRDA:65,0,7,0
BRDA:65,0,8,0
BRDA:65,0,9,0
BRDA:65,0,10,0
BRDA:68,0,0,-
BRDA:68,e0,1,-
BRDA:70,0,0,-
BRDA:70,e0,1,-
BRDA:72,0,0,-
BRDA:72,e0,1,-
BRDA:74,0,0,4
BRDA:74,e0,1,0
BRDA:76,0,0,-
BRDA:76,e0,1,-
BRDA:78,0,0,-
BRDA:78,e0,1,-
BRDA:80,0,0,-
BRDA:80,e0,1,-
BRDA:82,0,0,-
BRDA:82,e0,1,-
BRDA:84,0,0,-
BRDA:84,e0,1,-
BRDA:86,0,0,-
BRDA:86,e0,1,-
BRDA:88,0,0,-
BRDA:88,e0,1,-
BRF:55
BRH:7
DA:38,7
DA:40,7
DA:41,3
DA:42,4
DA:43,0
DA:44,4
DA:45,0
DA:46,4
DA:47,4
DA:48,0
DA:49,0
DA:50,0
DA:51,0
DA:52,0
DA:53,0
DA:54,0
DA:55,0
DA:56,0
DA:57,0
DA:58,0
DA:59,0
DA:60,0
DA:63,4
DA:65,4
DA:67,0
DA:68,0
DA:69,0
DA:70,0
DA:71,0
DA:72,0
DA:73,4
DA:74,8
DA:75,0
DA:76,0
DA:77,0
DA:78,0
DA:79,0
DA:80,0
DA:81,0
DA:82,0
DA:83,0
DA:84,0
DA:85,0
DA:86,0
DA:88,0
LF:45
LH:11
end_of_record
TN:
SF:/root/project/source/detail/cryptography/xlsx_crypto_consumer.cpp
FNL:0,117,179
FNA:0,15,_ZN12_GLOBAL__N_129read_standard_encryption_infoERSi
FNL:1,181,258
FNA:1,7,_ZN12_GLOBAL__N_126read_agile_encryption_infoERSi
FNL:2,260,308
FNA:2,22,_ZN12_GLOBAL__N_120read_encryption_infoERSiRKNSt7__cxx1112basic_stringIDsSt11char_traitsIDsESaIDsEEE
FNL:3,310,331
FNA:3,22,_ZN12_GLOBAL__N_112decrypt_xlsxERKSt6vectorIhSaIhEERKNSt7__cxx1112basic_stringIDsSt11char_traitsIDsESaIDsEEE
FNL:4,338,341
FNA:4,12,_ZN4xlnt6detail12decrypt_xlsxERKSt6vectorIhSaIhEERKNSt7__cxx1112basic_stringIcSt11char_traitsIcESaIcEEE
FNL:5,344,347
FNA:5,10,_ZN4xlnt6detail12decrypt_xlsxERKSt6vectorIhSaIhEESt17basic_string_viewIDuSt11char_traitsIDuEE
FNL:6,351,358
FNA:6,12,_ZN4xlnt6detail13xlsx_consumer13read_internalINSt7__cxx1112basic_stringIcSt11char_traitsIcESaIcEEEEEvRSiRKT_
FNA:6,10,_ZN4xlnt6detail13xlsx_consumer13read_internalISt17basic_string_viewIDuSt11char_traitsIDuEEEEvRSiRKT_
FNL:7,360,363
FNA:7,12,_ZN4xlnt6detail13xlsx_consumer4readERSiRKNSt7__cxx1112basic_stringIcSt11char_traitsIcESaIcEEE
FNL:8,366,369
FNA:8,10,_ZN4xlnt6detail13xlsx_consumer4readERSiSt17basic_string_viewIDuSt11char_traitsIDuEE
FNL:9,49,76
FNA:9,15,_ZN12_GLOBAL__N_121decrypt_xlsx_standardEN4xlnt6detail15encryption_infoERSi
FNL:10,78,115
FNA:10,7,_ZN12_GLOBAL__N_118decrypt_xlsx_agileERKN4xlnt6detail15encryption_infoERSi
FNF:11
FNH:11
BRDA:53,0,0,12
BRDA:53,e0,1,3
BRDA:55,0,0,12
BRDA:55,e0,1,0
BRDA:57,0,0,12
BRDA:57,e0,1,0
BRDA:60,0,0,38
BRDA:60,e0,1,0
BRDA:60,0,2,26
BRDA:60,0,3,12
BRDA:62,0,0,26
BRDA:62,e0,1,0
BRDA:65,0,0,26
BRDA:65,e0,1,0
BRDA:67,0,0,26
BRDA:67,e0,1,0
BRDA:73,0,0,12
BRDA:73,e0,1,0
BRDA:82,0,0,5
BRDA:82,e0,1,2
BRDA:85,0,0,5
BRDA:85,e0,1,0
BRDA:86,0,0,5
BRDA:86,e0,1,0
BRDA:89,0,0,5
BRDA:89,e0,1,0
BRDA:91,0,0,5
BRDA:91,e0,1,0
BRDA:94,0,0,256
BRDA:94,e0,1,0
BRDA:94,0,2,251
BRDA:94,0,3,5
BRDA:96,0,0,251
BRDA:96,e0,1,0
BRDA:97,0,0,251
BRDA:97,e0,1,0
BRDA:99,0,0,251
BRDA:99,e0,1,0
BRDA:102,0,0,251
BRDA:102,e0,1,0
BRDA:104,0,0,251
BRDA:104,e0,1,0
BRDA:112,0,0,5
BRDA:112,e0,1,0
BRDA:121,0,0,15
BRDA:121,e0,1,0
BRDA:122,0,0,15
BRDA:122,e0,1,0
BRDA:123,0,0,15
BRDA:123,e0,1,0
BRDA:124,0,0,15
BRDA:124,e0,1,0
BRDA:125,0,0,15
BRDA:125,e0,1,0
BRDA:127,0,0,15
BRDA:127,0,1,0
BRDA:127,0,2,0
BRDA:127,0,3,15
BRDA:127,0,4,0
BRDA:127,0,5,0
BRDA:127,0,6,0
BRDA:127,0,7,0
BRDA:133,0,0,-
BRDA:133,e0,1,-
BRDA:133,0,2,-
BRDA:133,e0,3,-
BRDA:136,0,0,15
BRDA:136,e0,1,0
BRDA:137,0,0,0
BRDA:137,0,1,15
BRDA:137,0,2,0
BRDA:137,0,3,0
BRDA:139,0,0,-
BRDA:139,e0,1,-
BRDA:139,0,2,-
BRDA:139,e0,3,-
BRDA:142,0,0,15
BRDA:142,e0,1,0
BRDA:145,0,0,15
BRDA:145,e0,1,0
BRDA:146,0,0,15
BRDA:146,0,1,0
BRDA:146,0,2,0
BRDA:146,0,3,15
BRDA:148,0,0,-
BRDA:148,e0,1,-
BRDA:148,0,2,-
BRDA:148,e0,3,-
BRDA:151,0,0,15
BRDA:151,e0,1,0
BRDA:152,0,0,15
BRDA:152,e0,1,0
BRDA:152,0,2,0
BRDA:152,0,3,15
BRDA:154,0,0,-
BRDA:154,e0,1,-
BRDA:154,0,2,-
BRDA:154,e0,3,-
BRDA:158,0,0,15
BRDA:158,e0,1,0
BRDA:160,0,0,15
BRDA:160,e0,1,0
BRDA:163,0,0,15
BRDA:163,0,1,0
BRDA:163,0,2,0
BRDA:163,0,3,15
BRDA:163,0,4,0
BRDA:163,0,5,15
BRDA:165,0,0,-
BRDA:165,e0,1,-
BRDA:165,0,2,-
BRDA:165,e0,3,-
BRDA:168,0,0,15
BRDA:168,e0,1,0
BRDA:169,0,0,15
BRDA:169,e0,1,0
BRDA:172,0,0,15
BRDA:172,e0,1,0
BRDA:174,0,0,15
BRDA:174,e0,1,0
BRDA:176,0,0,15
BRDA:176,e0,1,0
BRDA:185,0,0,2
BRDA:185,0,1,5
BRDA:185,0,2,2
BRDA:185,0,3,0
BRDA:185,0,4,2
BRDA:185,e0,5,0
BRDA:185,0,6,2
BRDA:185,e0,7,0
BRDA:185,0,8,0
BRDA:185,0,9,0
BRDA:186,0,0,2
BRDA:186,0,1,5
BRDA:186,0,2,2
BRDA:186,0,3,0
BRDA:186,0,4,2
BRDA:186,e0,5,0
BRDA:186,0,6,2
BRDA:186,e0,7,0
BRDA:186,0,8,0
BRDA:186,0,9,0
BRDA:191,0,0,7
BRDA:191,e0,1,0
BRDA:191,0,2,7
BRDA:191,e0,3,0
BRDA:193,0,0,7
BRDA:193,e0,1,0
BRDA:193,0,2,7
BRDA:193,e0,3,0
BRDA:196,0,0,7
BRDA:196,e0,1,0
BRDA:196,0,2,7
BRDA:196,e0,3,0
BRDA:197,0,0,7
BRDA:197,e0,1,0
BRDA:197,0,2,7
BRDA:197,e0,3,0
BRDA:198,0,0,7
BRDA:198,e0,1,0
BRDA:198,0,2,7
BRDA:198,e0,3,0
BRDA:199,0,0,7
BRDA:199,e0,1,0
BRDA:199,0,2,7
BRDA:199,e0,3,0
BRDA:200,0,0,7
BRDA:200,e0,1,0
BRDA:200,0,2,7
BRDA:200,e0,3,0
BRDA:201,0,0,7
BRDA:201,e0,1,0
BRDA:201,0,2,7
BRDA:201,e0,3,0
BRDA:201,0,4,7
BRDA:201,e0,5,0
BRDA:202,0,0,7
BRDA:202,e0,1,0
BRDA:202,0,2,7
BRDA:202,e0,3,0
BRDA:202,0,4,7
BRDA:202,e0,5,0
BRDA:203,0,0,7
BRDA:203,e0,1,0
BRDA:203,0,2,7
BRDA:203,e0,3,0
BRDA:203,0,4,7
BRDA:203,e0,5,0
BRDA:204,0,0,7
BRDA:204,e0,1,0
BRDA:204,0,2,7
BRDA:204,e0,3,0
BRDA:204,0,4,7
BRDA:204,e0,5,0
BRDA:205,0,0,7
BRDA:205,e0,1,0
BRDA:205,0,2,7
BRDA:205,e0,3,0
BRDA:208,0,0,7
BRDA:208,e0,1,0
BRDA:208,0,2,7
BRDA:208,e0,3,0
BRDA:209,0,0,7
BRDA:209,e0,1,0
BRDA:209,0,2,7
BRDA:209,e0,3,0
BRDA:209,0,4,7
BRDA:209,e0,5,0
BRDA:210,0,0,7
BRDA:210,e0,1,0
BRDA:210,0,2,7
BRDA:210,e0,3,0
BRDA:210,0,4,7
BRDA:210,e0,5,0
BRDA:211,0,0,7
BRDA:211,e0,1,0
BRDA:211,0,2,7
BRDA:211,e0,3,0
BRDA:214,0,0,7
BRDA:214,e0,1,0
BRDA:214,0,2,7
BRDA:214,e0,3,0
BRDA:215,0,0,7
BRDA:215,e0,1,0
BRDA:215,0,2,7
BRDA:215,e0,3,0
BRDA:216,0,0,7
BRDA:216,e0,1,0
BRDA:216,0,2,7
BRDA:216,e0,3,0
BRDA:219,0,0,14
BRDA:219,e0,1,0
BRDA:219,0,2,7
BRDA:219,0,3,7
BRDA:221,0,0,7
BRDA:221,e0,1,0
BRDA:223,0,0,7
BRDA:223,0,1,0
BRDA:223,0,2,7
BRDA:223,e0,3,0
BRDA:223,0,4,7
BRDA:223,0,5,0
BRDA:223,0,6,7
BRDA:223,0,7,0
BRDA:226,0,0,7
BRDA:226,e0,1,0
BRDA:226,0,2,7
BRDA:226,e0,3,0
BRDA:227,0,0,7
BRDA:227,e0,1,0
BRDA:227,0,2,7
BRDA:227,e0,3,0
BRDA:228,0,0,7
BRDA:228,e0,1,0
BRDA:228,0,2,7
BRDA:228,e0,3,0
BRDA:229,0,0,7
BRDA:229,e0,1,0
BRDA:229,0,2,7
BRDA:229,e0,3,0
BRDA:230,0,0,7
BRDA:230,e0,1,0
BRDA:230,0,2,7
BRDA:230,e0,3,0
BRDA:231,0,0,7
BRDA:231,e0,1,0
BRDA:231,0,2,7
BRDA:231,e0,3,0
BRDA:231,0,4,7
BRDA:231,e0,5,0
BRDA:232,0,0,7
BRDA:232,e0,1,0
BRDA:232,0,2,7
BRDA:232,e0,3,0
BRDA:232,0,4,7
BRDA:232,e0,5,0
BRDA:233,0,0,7
BRDA:233,e0,1,0
BRDA:233,0,2,7
BRDA:233,e0,3,0
BRDA:234,0,0,7
BRDA:234,e0,1,0
BRDA:234,0,2,7
BRDA:234,e0,3,0
BRDA:234,0,4,7
BRDA:234,e0,5,0
BRDA:235,0,0,7
BRDA:235,e0,1,0
BRDA:235,0,2,7
BRDA:235,e0,3,0
BRDA:235,0,4,7
BRDA:235,e0,5,0
BRDA:236,0,0,7
BRDA:236,e0,1,0
BRDA:236,0,2,7
BRDA:236,e0,3,0
BRDA:236,0,4,7
BRDA:236,e0,5,0
BRDA:237,0,0,7
BRDA:237,e0,1,0
BRDA:237,0,2,7
BRDA:237,e0,3,0
BRDA:237,0,4,7
BRDA:237,e0,5,0
BRDA:241,0,0,-
BRDA:241,e0,1,-
BRDA:241,0,2,-
BRDA:241,e0,3,-
BRDA:244,0,0,7
BRDA:244,e0,1,0
BRDA:247,0,0,0
BRDA:247,0,1,7
BRDA:249,0,0,-
BRDA:249,e0,1,-
BRDA:249,0,2,-
BRDA:249,e0,3,-
BRDA:252,0,0,7
BRDA:252,e0,1,0
BRDA:252,0,2,7
BRDA:252,e0,3,0
BRDA:253,0,0,7
BRDA:253,e0,1,0
BRDA:253,0,2,7
BRDA:253,e0,3,0
BRDA:255,0,0,7
BRDA:255,e0,1,0
BRDA:255,0,2,7
BRDA:255,e0,3,0
BRDA:264,0,0,22
BRDA:264,e0,1,0
BRDA:266,0,0,22
BRDA:266,e0,1,0
BRDA:267,0,0,22
BRDA:267,e0,1,0
BRDA:268,0,0,22
BRDA:268,e0,1,0
BRDA:270,0,0,10
BRDA:270,0,1,12
BRDA:270,0,2,7
BRDA:270,0,3,3
BRDA:272,0,0,7
BRDA:272,0,1,15
BRDA:274,0,0,0
BRDA:274,0,1,7
BRDA:276,0,0,-
BRDA:276,e0,1,-
BRDA:276,0,2,-
BRDA:276,e0,3,-
BRDA:279,0,0,7
BRDA:279,e0,1,0
BRDA:283,0,0,15
BRDA:283,0,1,0
BRDA:283,0,2,15
BRDA:283,0,3,0
BRDA:283,0,4,3
BRDA:283,0,5,12
BRDA:283,0,6,0
BRDA:283,0,7,3
BRDA:285,0,0,-
BRDA:285,e0,1,-
BRDA:285,0,2,-
BRDA:285,e0,3,-
BRDA:288,0,0,0
BRDA:288,0,1,15
BRDA:290,0,0,-
BRDA:290,e0,1,-
BRDA:290,0,2,-
BRDA:290,e0,3,-
BRDA:293,0,0,15
BRDA:293,0,1,0
BRDA:294,0,0,0
BRDA:294,0,1,15
BRDA:296,0,0,-
BRDA:296,e0,1,-
BRDA:296,0,2,-
BRDA:296,e0,3,-
BRDA:299,0,0,0
BRDA:299,0,1,15
BRDA:301,0,0,-
BRDA:301,e0,1,-
BRDA:301,0,2,-
BRDA:301,e0,3,-
BRDA:304,0,0,15
BRDA:304,e0,1,0
BRDA:314,0,0,0
BRDA:314,0,1,22
BRDA:316,0,0,-
BRDA:316,e0,1,-
BRDA:316,0,2,-
BRDA:316,e0,3,-
BRDA:319,0,0,22
BRDA:319,e0,1,0
BRDA:320,0,0,22
BRDA:320,e0,1,0
BRDA:321,0,0,22
BRDA:321,e0,1,0
BRDA:323,0,0,22
BRDA:323,e0,1,0
BRDA:323,0,2,22
BRDA:323,e0,3,0
BRDA:324,0,0,22
BRDA:324,e0,1,0
BRDA:326,0,0,22
BRDA:326,e0,1,0
BRDA:326,0,2,22
BRDA:326,e0,3,0
BRDA:330,0,0,7
BRDA:330,0,1,15
BRDA:330,0,2,5
BRDA:330,e0,3,2
BRDA:330,0,4,15
BRDA:330,e0,5,0
BRDA:330,0,6,12
BRDA:330,e0,7,3
BRDA:330,0,8,12
BRDA:330,0,9,5
BRDA:330,0,10,3
BRDA:330,0,11,2
BRDA:340,0,0,12
BRDA:340,e0,1,0
BRDA:340,0,2,7
BRDA:340,e0,3,5
BRDA:346,0,0,10
BRDA:346,e0,1,0
BRDA:346,0,2,10
BRDA:346,e0,3,0
BRDA:353,0,0,22
BRDA:353,e0,1,0
BRDA:354,0,0,17
BRDA:354,e0,1,5
BRDA:355,0,0,17
BRDA:355,e0,1,0
BRDA:356,0,0,17
BRDA:356,e0,1,0
BRDA:357,0,0,17
BRDA:357,e0,1,0
BRF:436
BRH:205
DA:49,15
DA:53,15
DA:55,12
DA:57,12
DA:58,12
DA:60,38
DA:62,26
DA:63,26
DA:64,26
DA:65,26
DA:67,52
DA:68,26
DA:71,26
DA:73,12
DA:75,12
DA:76,12
DA:78,7
DA:82,7
DA:84,5
DA:85,5
DA:86,5
DA:88,5
DA:89,5
DA:91,5
DA:92,5
DA:94,256
DA:96,251
DA:97,251
DA:99,251
DA:100,251
DA:101,251
DA:102,251
DA:104,502
DA:105,251
DA:109,251
DA:110,251
DA:112,5
DA:114,5
DA:115,5
DA:117,15
DA:119,15
DA:121,15
DA:122,15
DA:123,15
DA:124,15
DA:125,15
DA:127,15
DA:129,15
DA:133,0
DA:136,15
DA:137,15
DA:139,0
DA:142,15
DA:143,15
DA:145,15
DA:146,15
DA:148,0
DA:151,15
DA:152,15
DA:154,0
DA:157,15
DA:158,15
DA:159,15
DA:160,15
DA:161,15
DA:162,15
DA:163,15
DA:165,0
DA:168,15
DA:169,15
DA:172,15
DA:174,15
DA:175,15
DA:176,15
DA:178,15
DA:179,15
DA:181,7
DA:185,11
DA:186,11
DA:189,7
DA:191,14
DA:193,7
DA:195,7
DA:196,14
DA:197,14
DA:198,14
DA:199,14
DA:200,14
DA:201,14
DA:202,14
DA:203,14
DA:204,14
DA:205,7
DA:207,7
DA:208,14
DA:209,14
DA:210,14
DA:211,7
DA:213,7
DA:214,14
DA:215,14
DA:216,7
DA:217,7
DA:219,14
DA:221,7
DA:223,7
DA:225,7
DA:226,14
DA:227,14
DA:228,14
DA:229,14
DA:230,14
DA:231,14
DA:232,14
DA:233,14
DA:234,14
DA:235,14
DA:236,14
DA:237,14
DA:241,0
DA:244,7
DA:247,7
DA:249,0
DA:252,14
DA:253,14
DA:255,7
DA:257,7
DA:258,7
DA:260,22
DA:262,22
DA:264,22
DA:266,22
DA:267,22
DA:268,22
DA:270,22
DA:272,22
DA:274,7
DA:276,0
DA:279,7
DA:283,15
DA:285,0
DA:288,15
DA:290,0
DA:293,15
DA:294,15
DA:296,0
DA:299,15
DA:301,0
DA:304,15
DA:307,22
DA:308,0
DA:310,22
DA:314,22
DA:316,0
DA:319,22
DA:320,22
DA:321,22
DA:323,22
DA:324,22
DA:326,22
DA:328,22
DA:329,22
DA:330,61
DA:331,37
DA:338,12
DA:340,12
DA:344,10
DA:346,10
DA:351,22
DA:353,22
DA:354,22
DA:355,17
DA:356,17
DA:357,17
DA:358,22
DA:360,12
DA:362,12
DA:366,10
DA:368,10
LF:179
LH:165
end_of_record
TN:
SF:/root/project/source/detail/cryptography/xlsx_crypto_producer.cpp
FNL:0,104,170
FNA:0,4,_ZN12_GLOBAL__N_127write_agile_encryption_infoERKN4xlnt6detail15encryption_infoERSo
FNL:1,172,210
FNA:1,0,_ZN12_GLOBAL__N_130write_standard_encryption_infoERKN4xlnt6detail15encryption_infoERSo
FNL:2,212,243
FNA:2,4,_ZN12_GLOBAL__N_118encrypt_xlsx_agileERKN4xlnt6detail15encryption_infoERKSt6vectorIhSaIhEERSo
FNL:3,245,265
FNA:3,0,_ZN12_GLOBAL__N_121encrypt_xlsx_standardERKN4xlnt6detail15encryption_infoERKSt6vectorIhSaIhEERSo
FNL:4,267,296
FNA:4,4,_ZN12_GLOBAL__N_112encrypt_xlsxERKSt6vectorIhSaIhEERKNSt7__cxx1112basic_stringIDsSt11char_traitsIDsESaIDsEEE
FNL:5,303,308
FNA:5,0,_ZN4xlnt6detail12encrypt_xlsxERKSt6vectorIhSaIhEERKNSt7__cxx1112basic_stringIcSt11char_traitsIcESaIcEEE
FNL:6,311,316
FNA:6,0,_ZN4xlnt6detail12encrypt_xlsxERKSt6vectorIhSaIhEESt17basic_string_viewIDuSt11char_traitsIDuEE
FNL:7,320,332
FNA:7,3,_ZN4xlnt6detail13xlsx_producer14write_internalINSt7__cxx1112basic_stringIcSt11char_traitsIcESaIcEEEEEvRSoRKT_
FNA:7,1,_ZN4xlnt6detail13xlsx_producer14write_internalISt17basic_string_viewIDuSt11char_traitsIDuEEEEvRSoRKT_
FNL:8,334,337
FNA:8,3,_ZN4xlnt6detail13xlsx_producer5writeERSoRKNSt7__cxx1112basic_stringIcSt11char_traitsIcESaIcEEE
FNL:9,340,343
FNA:9,1,_ZN4xlnt6detail13xlsx_producer5writeERSoSt17basic_string_viewIDuSt11char_traitsIDuEE
FNL:10,44,102
FNA:10,4,_ZN12_GLOBAL__N_124generate_encryption_infoERKNSt7__cxx1112basic_stringIDsSt11char_traitsIDsESaIDsEEE
FNF:11
FNH:7
BRDA:53,0,0,4
BRDA:53,e0,1,0
BRDA:54,0,0,4
BRDA:54,e0,1,0
BRDA:55,0,0,4
BRDA:55,e0,1,0
BRDA:61,0,0,4
BRDA:61,e0,1,0
BRDA:68,0,0,4
BRDA:68,e0,1,0
BRDA:74,0,0,4
BRDA:74,e0,1,0
BRDA:78,0,0,4
BRDA:78,e0,1,0
BRDA:79,0,0,4
BRDA:79,e0,1,0
BRDA:86,0,0,4
BRDA:86,e0,1,0
BRDA:89,0,0,4
BRDA:89,e0,1,0
BRDA:95,0,0,4
BRDA:95,e0,1,0
BRDA:99,0,0,4
BRDA:99,e0,1,0
BRDA:112,0,0,4
BRDA:112,e0,1,0
BRDA:113,0,0,4
BRDA:113,e0,1,0
BRDA:114,0,0,4
BRDA:114,e0,1,0
BRDA:116,0,0,1
BRDA:116,0,1,3
BRDA:116,0,2,1
BRDA:116,0,3,0
BRDA:116,0,4,1
BRDA:116,e0,5,0
BRDA:116,0,6,1
BRDA:116,e0,7,0
BRDA:116,0,8,0
BRDA:116,0,9,0
BRDA:117,0,0,1
BRDA:117,0,1,3
BRDA:117,0,2,1
BRDA:117,0,3,0
BRDA:117,0,4,1
BRDA:117,e0,5,0
BRDA:117,0,6,1
BRDA:117,e0,7,0
BRDA:117,0,8,0
BRDA:117,0,9,0
BRDA:119,0,0,4
BRDA:119,e0,1,0
BRDA:119,0,2,4
BRDA:119,e0,3,0
BRDA:121,0,0,4
BRDA:121,e0,1,0
BRDA:121,0,2,4
BRDA:121,e0,3,0
BRDA:123,0,0,4
BRDA:123,e0,1,0
BRDA:124,0,0,4
BRDA:124,e0,1,0
BRDA:124,0,2,4
BRDA:124,e0,3,0
BRDA:125,0,0,4
BRDA:125,e0,1,0
BRDA:125,0,2,4
BRDA:125,e0,3,0
BRDA:126,0,0,4
BRDA:126,e0,1,0
BRDA:126,0,2,4
BRDA:126,e0,3,0
BRDA:127,0,0,4
BRDA:127,e0,1,0
BRDA:127,0,2,4
BRDA:127,e0,3,0
BRDA:128,0,0,4
BRDA:128,e0,1,0
BRDA:128,0,2,4
BRDA:128,e0,3,0
BRDA:129,0,0,4
BRDA:129,e0,1,0
BRDA:129,0,2,4
BRDA:129,e0,3,0
BRDA:130,0,0,4
BRDA:130,e0,1,0
BRDA:130,0,2,4
BRDA:130,e0,3,0
BRDA:131,0,0,4
BRDA:131,e0,1,0
BRDA:131,0,2,4
BRDA:131,e0,3,0
BRDA:132,0,0,4
BRDA:132,e0,1,0
BRDA:132,0,2,4
BRDA:132,e0,3,0
BRDA:133,0,0,4
BRDA:133,e0,1,0
BRDA:134,0,0,4
BRDA:134,e0,1,0
BRDA:134,0,2,4
BRDA:134,e0,3,0
BRDA:136,0,0,4
BRDA:136,e0,1,0
BRDA:137,0,0,4
BRDA:137,e0,1,0
BRDA:137,0,2,4
BRDA:137,e0,3,0
BRDA:138,0,0,4
BRDA:138,e0,1,0
BRDA:138,0,2,4
BRDA:138,e0,3,0
BRDA:139,0,0,4
BRDA:139,e0,1,0
BRDA:140,0,0,4
BRDA:140,e0,1,0
BRDA:140,0,2,4
BRDA:140,e0,3,0
BRDA:141,0,0,4
BRDA:141,e0,1,0
BRDA:142,0,0,4
BRDA:142,e0,1,0
BRDA:142,0,2,4
BRDA:142,e0,3,0
BRDA:144,0,0,4
BRDA:144,e0,1,0
BRDA:145,0,0,4
BRDA:145,e0,1,0
BRDA:145,0,2,4
BRDA:145,e0,3,0
BRDA:146,0,0,4
BRDA:146,e0,1,0
BRDA:146,0,2,4
BRDA:146,e0,3,0
BRDA:147,0,0,4
BRDA:147,e0,1,0
BRDA:147,0,2,4
BRDA:147,e0,3,0
BRDA:148,0,0,4
BRDA:148,e0,1,0
BRDA:148,0,2,4
BRDA:148,e0,3,0
BRDA:149,0,0,4
BRDA:149,e0,1,0
BRDA:149,0,2,4
BRDA:149,e0,3,0
BRDA:150,0,0,4
BRDA:150,e0,1,0
BRDA:150,0,2,4
BRDA:150,e0,3,0
BRDA:151,0,0,4
BRDA:151,e0,1,0
BRDA:151,0,2,4
BRDA:151,e0,3,0
BRDA:152,0,0,4
BRDA:152,e0,1,0
BRDA:152,0,2,4
BRDA:152,e0,3,0
BRDA:153,0,0,4
BRDA:153,e0,1,0
BRDA:153,0,2,4
BRDA:153,e0,3,0
BRDA:154,0,0,4
BRDA:154,e0,1,0
BRDA:154,0,2,4
BRDA:154,e0,3,0
BRDA:155,0,0,4
BRDA:155,e0,1,0
BRDA:155,0,2,4
BRDA:155,e0,3,0
BRDA:156,0,0,4
BRDA:156,e0,1,0
BRDA:156,0,2,4
BRDA:156,e0,3,0
BRDA:157,0,0,4
BRDA:157,e0,1,0
BRDA:157,0,2,4
BRDA:157,e0,3,0
BRDA:158,0,0,4
BRDA:158,e0,1,0
BRDA:159,0,0,4
BRDA:159,e0,1,0
BRDA:159,0,2,4
BRDA:159,e0,3,0
BRDA:160,0,0,4
BRDA:160,e0,1,0
BRDA:161,0,0,4
BRDA:161,e0,1,0
BRDA:161,0,2,4
BRDA:161,e0,3,0
BRDA:162,0,0,4
BRDA:162,e0,1,0
BRDA:163,0,0,4
BRDA:163,e0,1,0
BRDA:163,0,2,4
BRDA:163,e0,3,0
BRDA:164,0,0,4
BRDA:164,e0,1,0
BRDA:165,0,0,4
BRDA:165,e0,1,0
BRDA:165,0,2,4
BRDA:165,e0,3,0
BRDA:166,0,0,4
BRDA:166,e0,1,0
BRDA:166,0,2,4
BRDA:166,e0,3,0
BRDA:167,0,0,4
BRDA:167,e0,1,0
BRDA:167,0,2,4
BRDA:167,e0,3,0
BRDA:169,0,0,4
BRDA:169,e0,1,0
BRDA:169,0,2,4
BRDA:169,e0,3,0
BRDA:181,0,0,-
BRDA:181,e0,1,-
BRDA:182,0,0,-
BRDA:182,e0,1,-
BRDA:183,0,0,-
BRDA:183,e0,1,-
BRDA:187,0,0,-
BRDA:187,e0,1,-
BRDA:188,0,0,-
BRDA:188,e0,1,-
BRDA:189,0,0,-
BRDA:189,e0,1,-
BRDA:190,0,0,-
BRDA:190,e0,1,-
BRDA:191,0,0,-
BRDA:191,e0,1,-
BRDA:192,0,0,-
BRDA:192,e0,1,-
BRDA:193,0,0,-
BRDA:193,e0,1,-
BRDA:194,0,0,-
BRDA:194,e0,1,-
BRDA:195,0,0,-
BRDA:195,e0,1,-
BRDA:197,0,0,-
BRDA:197,e0,1,-
BRDA:198,0,0,-
BRDA:198,e0,1,-
BRDA:198,0,2,-
BRDA:198,e0,3,-
BRDA:200,0,0,-
BRDA:200,e0,1,-
BRDA:201,0,0,-
BRDA:201,e0,1,-
BRDA:203,0,0,-
BRDA:203,e0,1,-
BRDA:205,0,0,-
BRDA:205,e0,1,-
BRDA:206,0,0,-
BRDA:206,e0,1,-
BRDA:208,0,0,-
BRDA:208,e0,1,-
BRDA:218,0,0,4
BRDA:218,e0,1,0
BRDA:220,0,0,4
BRDA:220,e0,1,0
BRDA:223,0,0,4
BRDA:223,e0,1,0
BRDA:224,0,0,4
BRDA:224,e0,1,0
BRDA:227,0,0,4
BRDA:227,e0,1,0
BRDA:229,0,0,128
BRDA:229,0,1,4
BRDA:231,0,0,128
BRDA:231,e0,1,0
BRDA:232,0,0,128
BRDA:232,e0,1,0
BRDA:236,0,0,128
BRDA:236,e0,1,0
BRDA:237,0,0,128
BRDA:237,e0,1,0
BRDA:238,0,0,128
BRDA:238,e0,1,0
BRDA:251,0,0,-
BRDA:251,e0,1,-
BRDA:253,0,0,-
BRDA:253,e0,1,-
BRDA:254,0,0,-
BRDA:254,e0,1,-
BRDA:256,0,0,-
BRDA:256,0,1,-
BRDA:260,0,0,-
BRDA:260,e0,1,-
BRDA:261,0,0,-
BRDA:261,e0,1,-
BRDA:262,0,0,-
BRDA:262,e0,1,-
BRDA:271,0,0,4
BRDA:271,e0,1,0
BRDA:272,0,0,4
BRDA:272,e0,1,0
BRDA:276,0,0,4
BRDA:276,e0,1,0
BRDA:277,0,0,4
BRDA:277,e0,1,0
BRDA:278,0,0,4
BRDA:278,e0,1,0
BRDA:280,0,0,4
BRDA:280,0,1,0
BRDA:282,0,0,4
BRDA:282,e0,1,0
BRDA:282,0,2,4
BRDA:282,e0,3,0
BRDA:283,0,0,4
BRDA:283,e0,1,0
BRDA:284,0,0,4
BRDA:284,e0,1,0
BRDA:284,0,2,4
BRDA:284,e0,3,0
BRDA:285,0,0,4
BRDA:285,e0,1,0
BRDA:289,0,0,-
BRDA:289,e0,1,-
BRDA:289,0,2,-
BRDA:289,e0,3,-
BRDA:290,0,0,-
BRDA:290,e0,1,-
BRDA:291,0,0,-
BRDA:291,e0,1,-
BRDA:291,0,2,-
BRDA:291,e0,3,-
BRDA:292,0,0,-
BRDA:292,e0,1,-
BRDA:307,0,0,-
BRDA:307,e0,1,-
BRDA:307,0,2,-
BRDA:307,e0,3,-
BRDA:315,0,0,-
BRDA:315,e0,1,-
BRDA:315,0,2,-
BRDA:315,e0,3,-
BRDA:323,0,0,4
BRDA:323,e0,1,0
BRDA:324,0,0,4
BRDA:324,e0,1,0
BRDA:325,0,0,4
BRDA:325,e0,1,0
BRDA:328,0,0,4
BRDA:328,e0,1,0
BRDA:328,0,2,4
BRDA:328,e0,3,0
BRDA:329,0,0,4
BRDA:329,e0,1,0
BRDA:331,0,0,4
BRDA:331,e0,1,0
BRF:350
BRH:138
DA:44,4
DA:46,4
DA:48,4
DA:50,4
DA:52,4
DA:53,4
DA:54,4
DA:55,4
DA:56,4
DA:57,4
DA:58,4
DA:61,8
DA:68,8
DA:74,8
DA:76,4
DA:77,4
DA:78,4
DA:79,4
DA:80,4
DA:81,4
DA:82,4
DA:83,4
DA:86,8
DA:89,8
DA:95,8
DA:99,8
DA:101,4
DA:102,0
DA:104,4
DA:108,4
DA:109,4
DA:110,4
DA:112,4
DA:113,4
DA:114,4
DA:116,6
DA:117,6
DA:119,8
DA:121,4
DA:123,4
DA:124,8
DA:125,8
DA:126,8
DA:127,8
DA:128,8
DA:129,8
DA:130,8
DA:131,4
DA:132,4
DA:133,8
DA:134,4
DA:136,4
DA:137,4
DA:138,4
DA:139,8
DA:140,4
DA:141,8
DA:142,4
DA:144,4
DA:145,8
DA:146,8
DA:147,8
DA:148,8
DA:149,8
DA:150,8
DA:151,8
DA:152,8
DA:153,8
DA:154,8
DA:155,8
DA:156,4
DA:157,4
DA:158,8
DA:159,4
DA:160,8
DA:161,4
DA:162,8
DA:163,4
DA:164,8
DA:165,8
DA:166,8
DA:167,8
DA:169,4
DA:170,4
DA:172,0
DA:174,0
DA:175,0
DA:177,0
DA:178,0
DA:179,0
DA:181,0
DA:182,0
DA:183,0
DA:185,0
DA:187,0
DA:188,0
DA:189,0
DA:190,0
DA:191,0
DA:192,0
DA:193,0
DA:194,0
DA:195,0
DA:197,0
DA:198,0
DA:200,0
DA:201,0
DA:203,0
DA:205,0
DA:206,0
DA:208,0
DA:209,0
DA:210,0
DA:212,4
DA:217,4
DA:218,4
DA:220,4
DA:222,4
DA:223,4
DA:224,4
DA:225,4
DA:227,4
DA:229,132
DA:231,128
DA:232,128
DA:234,128
DA:235,128
DA:236,128
DA:237,128
DA:238,128
DA:241,128
DA:242,128
DA:243,4
DA:245,0
DA:250,0
DA:251,0
DA:253,0
DA:254,0
DA:256,0
DA:258,0
DA:259,0
DA:260,0
DA:261,0
DA:262,0
DA:264,0
DA:265,0
DA:267,4
DA:271,4
DA:272,4
DA:274,4
DA:276,4
DA:277,4
DA:278,4
DA:280,4
DA:282,4
DA:283,12
DA:284,4
DA:285,12
DA:289,0
DA:290,0
DA:291,0
DA:292,0
DA:295,4
DA:296,4
DA:303,0
DA:307,0
DA:311,0
DA:315,0
DA:320,4
DA:322,4
DA:323,4
DA:324,4
DA:325,4
DA:326,4
DA:328,4
DA:329,4
DA:331,4
DA:332,4
DA:334,3
DA:336,3
DA:337,3
DA:340,1
DA:342,1
DA:343,1
LF:184
LH:133
end_of_record
TN:
SF:/root/project/source/detail/header_footer/header_footer_code.cpp
FNL:0,221,456
FNA:0,102,_ZZN4xlnt6detail20decode_header_footerERKNSt7__cxx1112basic_stringIcSt11char_traitsIcESaIcEEEENKUlZNS0_20decode_header_footerES8_E7hf_codeE_clES9_
FNL:1,32,463
FNA:1,34,_ZN4xlnt6detail20decode_header_footerERKNSt7__cxx1112basic_stringIcSt11char_traitsIcESaIcEEE
FNL:2,465,540
FNA:2,17,_ZN4xlnt6detail20encode_header_footerB5cxx11ERKNS_9rich_textENS_13header_footer8locationE
FNF:3
FNH:3
BRDA:36,0,0,0
BRDA:36,0,1,34
BRDA:80,0,0,210
BRDA:80,0,1,34
BRDA:85,0,0,210
BRDA:85,e0,1,0
BRDA:88,0,0,170
BRDA:88,0,1,40
BRDA:94,0,0,40
BRDA:94,0,1,130
BRDA:99,0,0,40
BRDA:99,e0,1,0
BRDA:102,0,0,4
BRDA:102,0,1,126
BRDA:104,0,0,4
BRDA:104,e0,1,0
BRDA:106,0,0,8
BRDA:106,0,1,118
BRDA:110,0,0,34
BRDA:110,0,1,84
BRDA:114,0,0,8
BRDA:114,0,1,76
BRDA:118,0,0,14
BRDA:118,0,1,62
BRDA:122,0,0,0
BRDA:122,0,1,62
BRDA:126,0,0,62
BRDA:126,e0,1,0
BRDA:126,0,2,28
BRDA:126,0,3,34
BRDA:130,0,0,28
BRDA:130,e0,1,0
BRDA:132,0,0,18
BRDA:132,0,1,16
BRDA:134,0,0,18
BRDA:134,0,1,0
BRDA:134,0,2,0
BRDA:134,0,3,18
BRDA:134,0,4,0
BRDA:134,0,5,18
BRDA:136,0,0,-
BRDA:136,e0,1,-
BRDA:141,0,0,18
BRDA:141,e0,1,0
BRDA:147,0,0,0
BRDA:147,0,1,16
BRDA:151,0,0,0
BRDA:151,0,1,16
BRDA:155,0,0,0
BRDA:155,0,1,16
BRDA:159,0,0,0
BRDA:159,0,1,16
BRDA:163,0,0,0
BRDA:163,0,1,16
BRDA:167,0,0,0
BRDA:167,0,1,16
BRDA:171,0,0,4
BRDA:171,0,1,12
BRDA:175,0,0,0
BRDA:175,0,1,12
BRDA:179,0,0,0
BRDA:179,0,1,12
BRDA:183,0,0,0
BRDA:183,0,1,12
BRDA:187,0,0,12
BRDA:187,0,1,0
BRDA:191,0,0,-
BRDA:191,0,1,-
BRDA:195,0,0,-
BRDA:195,0,1,-
BRDA:199,0,0,-
BRDA:199,0,1,-
BRDA:203,0,0,-
BRDA:203,0,1,-
BRDA:207,0,0,-
BRDA:207,0,1,-
BRDA:211,0,0,-
BRDA:211,0,1,-
BRDA:218,0,0,210
BRDA:218,e0,1,0
BRDA:222,0,0,102
BRDA:222,e0,1,0
BRDA:223,0,0,102
BRDA:223,e0,1,0
BRDA:223,0,2,102
BRDA:223,e0,3,0
BRDA:227,0,0,390
BRDA:227,0,1,52
BRDA:227,0,2,340
BRDA:227,0,3,50
BRDA:227,0,4,340
BRDA:227,0,5,102
BRDA:232,0,0,52
BRDA:232,0,1,50
BRDA:241,0,0,176
BRDA:241,0,1,34
BRDA:241,0,2,176
BRDA:241,e0,3,0
BRDA:241,0,4,160
BRDA:241,0,5,16
BRDA:241,0,6,160
BRDA:241,0,7,50
BRDA:252,0,0,160
BRDA:252,0,1,50
BRDA:256,0,0,44
BRDA:256,0,1,116
BRDA:258,0,0,44
BRDA:258,e0,1,0
BRDA:262,0,0,12
BRDA:262,0,1,104
BRDA:264,0,0,12
BRDA:264,e0,1,0
BRDA:268,0,0,0
BRDA:268,0,1,0
BRDA:268,0,2,0
BRDA:268,0,3,0
BRDA:268,0,4,14
BRDA:268,0,5,0
BRDA:268,0,6,28
BRDA:268,0,7,18
BRDA:268,0,8,0
BRDA:268,0,9,0
BRDA:268,0,10,0
BRDA:268,0,11,0
BRDA:268,0,12,0
BRDA:268,0,13,0
BRDA:268,0,14,4
BRDA:268,0,15,0
BRDA:268,0,16,0
BRDA:268,0,17,0
BRDA:268,0,18,12
BRDA:268,0,19,0
BRDA:268,0,20,0
BRDA:268,0,21,40
BRDA:268,0,22,0
BRDA:268,0,23,0
BRDA:268,0,24,0
BRDA:268,0,25,0
BRDA:268,0,26,0
BRDA:287,0,0,14
BRDA:287,e0,1,0
BRDA:292,0,0,-
BRDA:292,e0,1,-
BRDA:297,0,0,0
BRDA:297,0,1,28
BRDA:299,0,0,-
BRDA:299,e0,1,-
BRDA:302,0,0,28
BRDA:302,e0,1,0
BRDA:302,0,2,28
BRDA:302,e0,3,0
BRDA:302,0,4,28
BRDA:302,e0,5,0
BRDA:308,0,0,18
BRDA:308,0,1,0
BRDA:310,0,0,0
BRDA:310,0,1,18
BRDA:312,0,0,-
BRDA:312,e0,1,-
BRDA:315,0,0,18
BRDA:315,e0,1,0
BRDA:315,0,2,18
BRDA:315,e0,3,0
BRDA:315,0,4,18
BRDA:315,e0,5,0
BRDA:315,0,6,18
BRDA:315,e0,7,0
BRDA:334,0,0,-
BRDA:334,e0,1,-
BRDA:339,0,0,-
BRDA:339,e0,1,-
BRDA:344,0,0,-
BRDA:344,e0,1,-
BRDA:349,0,0,0
BRDA:349,0,1,4
BRDA:351,0,0,-
BRDA:351,e0,1,-
BRDA:353,0,0,4
BRDA:353,e0,1,0
BRDA:353,0,2,4
BRDA:353,e0,3,0
BRDA:362,0,0,-
BRDA:362,e0,1,-
BRDA:367,0,0,-
BRDA:367,e0,1,-
BRDA:372,0,0,12
BRDA:372,e0,1,0
BRDA:386,0,0,40
BRDA:386,e0,1,0
BRDA:388,0,0,40
BRDA:388,0,1,0
BRDA:390,0,0,40
BRDA:390,e0,1,0
BRDA:393,0,0,40
BRDA:393,e0,1,0
BRDA:393,0,2,40
BRDA:393,0,3,0
BRDA:395,0,0,40
BRDA:395,e0,1,0
BRDA:395,0,2,40
BRDA:395,e0,3,0
BRDA:398,0,0,40
BRDA:398,0,1,0
BRDA:400,0,0,40
BRDA:400,e0,1,0
BRDA:402,0,0,40
BRDA:402,e0,1,0
BRDA:402,0,2,4
BRDA:402,0,3,36
BRDA:404,0,0,4
BRDA:404,e0,1,0
BRDA:404,0,2,4
BRDA:404,e0,3,0
BRDA:406,0,0,36
BRDA:406,e0,1,0
BRDA:406,0,2,36
BRDA:406,0,3,0
BRDA:410,0,0,36
BRDA:410,e0,1,0
BRDA:410,0,2,0
BRDA:410,0,3,36
BRDA:412,0,0,-
BRDA:412,e0,1,-
BRDA:412,0,2,-
BRDA:412,e0,3,-
BRDA:420,0,0,-
BRDA:420,0,1,-
BRDA:422,0,0,-
BRDA:422,e0,1,-
BRDA:425,0,0,-
BRDA:425,e0,1,-
BRDA:425,0,2,-
BRDA:425,e0,3,-
BRDA:444,0,0,50
BRDA:444,0,1,0
BRDA:446,0,0,50
BRDA:446,e0,1,0
BRDA:450,0,0,42
BRDA:450,0,1,8
BRDA:450,0,2,34
BRDA:450,0,3,8
BRDA:452,0,0,50
BRDA:452,e0,1,0
BRDA:452,0,2,50
BRDA:452,0,3,0
BRDA:454,0,0,50
BRDA:454,e0,1,0
BRDA:456,0,0,50
BRDA:456,0,1,52
BRDA:458,0,0,34
BRDA:458,e0,1,0
BRDA:459,0,0,34
BRDA:459,e0,1,0
BRDA:460,0,0,34
BRDA:460,e0,1,0
BRDA:473,0,0,17
BRDA:473,e0,1,0
BRDA:473,0,2,51
BRDA:473,0,3,17
BRDA:473,0,4,0
BRDA:473,0,5,0
BRDA:475,0,0,17
BRDA:475,e0,1,0
BRDA:475,0,2,17
BRDA:475,e0,3,0
BRDA:477,0,0,17
BRDA:477,e0,1,0
BRDA:477,0,2,19
BRDA:477,0,3,17
BRDA:479,0,0,0
BRDA:479,0,1,19
BRDA:481,0,0,11
BRDA:481,0,1,8
BRDA:483,0,0,11
BRDA:483,e0,1,0
BRDA:483,0,2,11
BRDA:483,e0,3,0
BRDA:483,0,4,11
BRDA:483,0,5,0
BRDA:485,0,0,11
BRDA:485,e0,1,0
BRDA:486,0,0,11
BRDA:486,e0,1,0
BRDA:487,0,0,11
BRDA:487,e0,1,0
BRDA:487,0,2,11
BRDA:487,e0,3,0
BRDA:487,0,4,11
BRDA:487,e0,5,0
BRDA:488,0,0,11
BRDA:488,e0,1,0
BRDA:490,0,0,11
BRDA:490,e0,1,0
BRDA:490,0,2,11
BRDA:490,e0,3,0
BRDA:490,0,4,2
BRDA:490,0,5,9
BRDA:492,0,0,2
BRDA:492,e0,1,0
BRDA:496,0,0,9
BRDA:496,e0,1,0
BRDA:500,0,0,11
BRDA:500,e0,1,0
BRDA:502,0,0,-
BRDA:502,e0,1,-
BRDA:502,0,2,-
BRDA:502,e0,3,-
BRDA:502,0,4,-
BRDA:502,0,5,-
BRDA:504,0,0,-
BRDA:504,e0,1,-
BRDA:507,0,0,11
BRDA:507,e0,1,0
BRDA:507,0,2,11
BRDA:507,e0,3,0
BRDA:507,0,4,5
BRDA:507,0,5,6
BRDA:509,0,0,5
BRDA:509,e0,1,0
BRDA:510,0,0,5
BRDA:510,e0,1,0
BRDA:510,0,2,5
BRDA:510,e0,3,0
BRDA:510,0,4,5
BRDA:510,e0,5,0
BRDA:510,0,6,5
BRDA:510,e0,7,0
BRDA:512,0,0,11
BRDA:512,e0,1,0
BRDA:512,0,2,11
BRDA:512,e0,3,0
BRDA:512,0,4,2
BRDA:512,0,5,9
BRDA:514,0,0,2
BRDA:514,e0,1,0
BRDA:514,0,2,2
BRDA:514,e0,3,0
BRDA:514,0,4,2
BRDA:514,0,5,0
BRDA:514,0,6,0
BRDA:514,0,7,0
BRDA:518,0,0,2
BRDA:518,e0,1,0
BRDA:522,0,0,-
BRDA:522,e0,1,-
BRDA:528,0,0,11
BRDA:528,e0,1,0
BRDA:528,0,2,11
BRDA:528,e0,3,0
BRDA:528,0,4,9
BRDA:528,0,5,2
BRDA:530,0,0,9
BRDA:530,e0,1,0
BRDA:531,0,0,9
BRDA:531,e0,1,0
BRDA:532,0,0,9
BRDA:532,e0,1,0
BRDA:532,0,2,9
BRDA:532,e0,3,0
BRDA:532,0,4,9
BRDA:532,e0,5,0
BRDA:532,0,6,9
BRDA:532,e0,7,0
BRDA:532,0,8,9
BRDA:532,e0,9,0
BRDA:532,0,10,9
BRDA:532,e0,11,0
BRDA:536,0,0,19
BRDA:536,e0,1,0
BRDA:540,0,0,17
BRDA:540,e0,1,0
BRDA:540,0,2,17
BRDA:540,e0,3,0
BRDA:540,0,4,17
BRDA:540,e0,5,0
BRDA:540,0,6,0
BRDA:540,0,7,0
BRDA:540,0,8,0
BRDA:540,0,9,0
BRF:379
BRH:183
DA:32,34
DA:34,34
DA:36,34
DA:38,0
DA:77,34
DA:78,34
DA:80,244
DA:82,210
DA:84,210
DA:85,210
DA:86,210
DA:88,210
DA:90,170
DA:91,170
DA:92,170
DA:94,170
DA:96,40
DA:97,40
DA:99,40
DA:100,40
DA:102,130
DA:104,4
DA:106,126
DA:108,8
DA:110,118
DA:112,34
DA:114,84
DA:116,8
DA:118,76
DA:120,14
DA:122,62
DA:124,0
DA:126,124
DA:128,28
DA:129,28
DA:130,28
DA:132,34
DA:134,18
DA:136,0
DA:137,0
DA:141,18
DA:142,18
DA:145,18
DA:147,16
DA:149,0
DA:151,16
DA:153,0
DA:155,16
DA:157,0
DA:159,16
DA:161,0
DA:163,16
DA:165,0
DA:167,16
DA:169,0
DA:171,16
DA:173,4
DA:175,12
DA:177,0
DA:179,12
DA:181,0
DA:183,12
DA:185,0
DA:187,12
DA:189,12
DA:191,0
DA:193,0
DA:195,0
DA:197,0
DA:199,0
DA:201,0
DA:203,0
DA:205,0
DA:207,0
DA:209,0
DA:211,0
DA:213,0
DA:217,210
DA:218,210
DA:219,210
DA:221,102
DA:222,204
DA:223,102
DA:225,102
DA:227,442
DA:229,340
DA:232,102
DA:234,52
DA:237,50
DA:238,50
DA:240,210
DA:241,210
DA:243,160
DA:246,50
DA:247,50
DA:252,210
DA:254,160
DA:256,160
DA:258,44
DA:259,44
DA:262,116
DA:264,12
DA:265,12
DA:268,116
DA:270,0
DA:271,0
DA:274,0
DA:275,0
DA:278,0
DA:279,0
DA:282,0
DA:283,0
DA:286,14
DA:287,14
DA:288,14
DA:291,0
DA:292,0
DA:293,0
DA:296,28
DA:297,28
DA:299,0
DA:302,28
DA:304,28
DA:307,18
DA:308,18
DA:310,18
DA:312,0
DA:315,18
DA:318,18
DA:321,0
DA:322,0
DA:325,0
DA:326,0
DA:329,0
DA:330,0
DA:333,0
DA:334,0
DA:335,0
DA:338,0
DA:339,0
DA:340,0
DA:343,0
DA:344,0
DA:345,0
DA:348,4
DA:349,4
DA:351,0
DA:353,4
DA:354,4
DA:357,0
DA:358,0
DA:361,0
DA:362,0
DA:363,0
DA:366,0
DA:367,0
DA:368,0
DA:371,12
DA:372,12
DA:373,12
DA:376,0
DA:377,0
DA:380,0
DA:381,0
DA:384,40
DA:385,40
DA:386,40
DA:388,40
DA:390,40
DA:393,40
DA:395,40
DA:398,40
DA:400,40
DA:402,40
DA:404,4
DA:406,36
DA:410,36
DA:412,0
DA:414,40
DA:416,40
DA:417,40
DA:419,0
DA:420,0
DA:422,0
DA:425,0
DA:427,0
DA:430,0
DA:431,0
DA:434,0
DA:435,0
DA:438,0
DA:439,0
DA:444,50
DA:446,50
DA:449,50
DA:450,50
DA:452,50
DA:454,50
DA:456,102
DA:458,34
DA:459,34
DA:460,34
DA:462,34
DA:463,34
DA:465,17
DA:470,0
DA:471,0
DA:472,0
DA:473,85
DA:475,17
DA:477,36
DA:479,19
DA:481,19
DA:483,11
DA:485,11
DA:486,11
DA:487,11
DA:488,11
DA:490,11
DA:492,2
DA:496,9
DA:500,11
DA:502,0
DA:504,0
DA:507,11
DA:509,5
DA:510,5
DA:512,11
DA:514,2
DA:516,2
DA:518,2
DA:519,2
DA:520,0
DA:522,0
DA:523,0
DA:524,0
DA:525,0
DA:528,11
DA:530,9
DA:531,9
DA:532,9
DA:536,19
DA:537,17
DA:539,17
DA:540,34
LF:245
LH:157
end_of_record
TN:
SF:/root/project/source/detail/implementations/cell_impl.hpp
FNL:0,63,66
FNA:0,32796,_ZNK4xlnt6detail9cell_impl22is_garbage_collectibleEv
FNL:1,69,81
FNA:1,8,_ZN4xlnt6detaileqERKNS0_9cell_implES3_
FNF:2
FNH:2
BRDA:65,0,0,1241
BRDA:65,0,1,31555
BRDA:65,0,2,1223
BRDA:65,0,3,18
BRDA:65,0,4,1223
BRDA:65,0,5,0
BRDA:65,0,6,1207
BRDA:65,0,7,16
BRDA:65,0,8,3
BRDA:65,0,9,1204
BRDA:65,0,10,3
BRDA:65,0,11,0
BRDA:73,0,0,8
BRDA:73,0,1,0
BRDA:74,0,0,8
BRDA:74,0,1,0
BRDA:75,0,0,8
BRDA:75,0,1,0
BRDA:76,0,0,7
BRDA:76,0,1,1
BRDA:77,0,0,7
BRDA:77,0,1,0
BRDA:78,0,0,7
BRDA:78,0,1,0
BRDA:79,0,0,7
BRDA:79,0,1,0
BRDA:79,0,2,6
BRDA:79,0,3,1
BRDA:79,0,4,6
BRDA:79,0,5,0
BRDA:80,0,0,8
BRDA:80,0,1,0
BRDA:80,0,2,7
BRDA:80,0,3,0
BRDA:80,0,4,0
BRDA:80,0,5,7
BRDA:80,0,6,0
BRDA:80,0,7,0
BRF:38
BRH:24
DA:63,32796
DA:65,32796
DA:69,8
DA:72,8
DA:73,8
DA:74,8
DA:75,8
DA:76,8
DA:77,7
DA:78,7
DA:79,7
DA:80,16
LF:12
LH:12
end_of_record
TN:
SF:/root/project/source/detail/implementations/conditional_format_impl.hpp
FNL:0,25,35
FNA:0,0,_ZNK4xlnt6detail23conditional_format_impleqERKS1_
FNF:1
FNH:0
BRDA:29,0,0,-
BRDA:29,0,1,-
BRDA:30,0,0,-
BRDA:30,0,1,-
BRDA:31,0,0,-
BRDA:31,0,1,-
BRDA:32,0,0,-
BRDA:32,0,1,-
BRDA:33,0,0,-
BRDA:33,0,1,-
BRDA:34,0,0,-
BRDA:34,0,1,-
BRDA:34,0,2,-
BRDA:34,0,3,-
BRF:14
BRH:0
DA:25,0
DA:28,0
DA:29,0
DA:30,0
DA:31,0
DA:32,0
DA:33,0
DA:34,0
LF:8
LH:0
end_of_record
TN:
SF:/root/project/source/detail/implementations/format_impl.hpp
FNL:0,55,73
FNA:0,8989,_ZN4xlnt6detaileqERKNS0_11format_implES3_
FNF:1
FNH:1
BRDA:59,0,0,8988
BRDA:59,0,1,0
BRDA:60,0,0,8684
BRDA:60,0,1,304
BRDA:61,0,0,8684
BRDA:61,0,1,0
BRDA:62,0,0,2393
BRDA:62,0,1,6291
BRDA:63,0,0,2393
BRDA:63,0,1,0
BRDA:64,0,0,1624
BRDA:64,0,1,769
BRDA:65,0,0,1624
BRDA:65,0,1,0
BRDA:66,0,0,836
BRDA:66,0,1,788
BRDA:67,0,0,836
BRDA:67,0,1,0
BRDA:68,0,0,836
BRDA:68,0,1,0
BRDA:69,0,0,836
BRDA:69,0,1,0
BRDA:70,0,0,836
BRDA:70,0,1,0
BRDA:71,0,0,836
BRDA:71,0,1,0
BRDA:72,0,0,8988
BRDA:72,0,1,1
BRDA:72,0,2,573
BRDA:72,0,3,263
BRF:30
BRH:21
DA:55,8989
DA:58,8989
DA:59,8988
DA:60,8988
DA:61,8684
DA:62,8684
DA:63,2393
DA:64,2393
DA:65,1624
DA:66,1624
DA:67,836
DA:68,836
DA:69,836
DA:70,836
DA:71,836
DA:72,17977
LF:16
LH:16
end_of_record
TN:
SF:/root/project/source/detail/implementations/hyperlink_impl.hpp
FNL:0,44,49
FNA:0,0,_ZN4xlnt6detaileqERKNS0_14hyperlink_implES3_
FNF:1
FNH:0
BRDA:47,0,0,-
BRDA:47,0,1,-
BRDA:48,0,0,-
BRDA:48,0,1,-
BRDA:48,0,2,-
BRDA:48,0,3,-
BRF:6
BRH:0
DA:44,0
DA:46,0
DA:47,0
DA:48,0
LF:4
LH:0
end_of_record
TN:
SF:/root/project/source/detail/implementations/style_impl.hpp
FNL:0,25,48
FNA:0,38,_ZNK4xlnt6detail10style_impleqERKS1_
FNF:1
FNH:1
BRDA:29,0,0,38
BRDA:29,0,1,0
BRDA:30,0,0,38
BRDA:30,0,1,0
BRDA:31,0,0,38
BRDA:31,0,1,0
BRDA:32,0,0,38
BRDA:32,0,1,0
BRDA:33,0,0,38
BRDA:33,0,1,0
BRDA:34,0,0,38
BRDA:34,0,1,0
BRDA:35,0,0,38
BRDA:35,0,1,0
BRDA:36,0,0,38
BRDA:36,0,1,0
BRDA:37,0,0,38
BRDA:37,0,1,0
BRDA:38,0,0,38
BRDA:38,0,1,0
BRDA:39,0,0,38
BRDA:39,0,1,0
BRDA:40,0,0,38
BRDA:40,0,1,0
BRDA:41,0,0,38
BRDA:41,0,1,0
BRDA:42,0,0,38
BRDA:42,0,1,0
BRDA:43,0,0,38
BRDA:43,0,1,0
BRDA:44,0,0,38
BRDA:44,0,1,0
BRDA:45,0,0,38
BRDA:45,0,1,0
BRDA:46,0,0,38
BRDA:46,0,1,0
BRDA:47,0,0,38
BRDA:47,0,1,0
BRDA:47,0,2,38
BRDA:47,0,3,0
BRF:40
BRH:20
DA:25,38
DA:28,38
DA:29,38
DA:30,38
DA:31,38
DA:32,38
DA:33,38
DA:34,38
DA:35,38
DA:36,38
DA:37,38
DA:38,38
DA:39,38
DA:40,38
DA:41,38
DA:42,38
DA:43,38
DA:44,38
DA:45,38
DA:46,38
DA:47,76
LF:21
LH:21
end_of_record
TN:
SF:/root/project/source/detail/implementations/stylesheet.hpp
FNL:0,151,155
FNA:0,266,_ZN4xlnt6detail10stylesheet5styleERKNSt7__cxx1112basic_stringIcSt11char_traitsIcESaIcEEE
FNL:1,157,160
FNA:1,522,_ZN4xlnt6detail10stylesheet9has_styleERKNSt7__cxx1112basic_stringIcSt11char_traitsIcESaIcEEE
FNL:2,162,175
FNA:2,17,_ZNK4xlnt6detail10stylesheet28next_custom_number_format_idEv
FNL:3,178,190
FNA:3,1,_ZN4xlnt6detail10stylesheet11find_or_addINS_10protectionESt6vectorIS3_SaIS3_EEEEmRT0_RKT_
FNA:3,776,_ZN4xlnt6detail10stylesheet11find_or_addINS_4fillESt6vectorIS3_SaIS3_EEEEmRT0_RKT_
FNA:3,787,_ZN4xlnt6detail10stylesheet11find_or_addINS_4fontESt6vectorIS3_SaIS3_EEEEmRT0_RKT_
FNA:3,763,_ZN4xlnt6detail10stylesheet11find_or_addINS_6borderESt6vectorIS3_SaIS3_EEEEmRT0_RKT_
FNA:3,1,_ZN4xlnt6detail10stylesheet11find_or_addINS_9alignmentESt6vectorIS3_SaIS3_EEEEmRT0_RKT_
FNL:4,193,213
FNA:4,2061,_ZN4xlnt6detail10stylesheet15garbage_collectINS_10protectionEEESt13unordered_mapImmSt4hashImESt8equal_toImESaISt4pairIKmmEEERKSD_RSt6vectorIT_SaISH_EE
FNA:4,2061,_ZN4xlnt6detail10stylesheet15garbage_collectINS_4fillEEESt13unordered_mapImmSt4hashImESt8equal_toImESaISt4pairIKmmEEERKSD_RSt6vectorIT_SaISH_EE
FNA:4,2061,_ZN4xlnt6detail10stylesheet15garbage_collectINS_4fontEEESt13unordered_mapImmSt4hashImESt8equal_toImESaISt4pairIKmmEEERKSD_RSt6vectorIT_SaISH_EE
FNA:4,2061,_ZN4xlnt6detail10stylesheet15garbage_collectINS_6borderEEESt13unordered_mapImmSt4hashImESt8equal_toImESaISt4pairIKmmEEERKSD_RSt6vectorIT_SaISH_EE
FNA:4,2061,_ZN4xlnt6detail10stylesheet15garbage_collectINS_9alignmentEEESt13unordered_mapImmSt4hashImESt8equal_toImESaISt4pairIKmmEEERKSD_RSt6vectorIT_SaISH_EE
FNL:5,215,379
FNA:5,2061,_ZN4xlnt6detail10stylesheet15garbage_collectEv
FNL:6,381,410
FNA:6,2354,_ZN4xlnt6detail10stylesheet14find_or_createERNS0_11format_implE
FNL:7,412,421
FNA:7,261,_ZN4xlnt6detail10stylesheet19find_or_create_withEPNS0_11format_implERKNSt7__cxx1112basic_stringIcSt11char_traitsIcESaIcEEE
FNL:8,423,433
FNA:8,1,_ZN4xlnt6detail10stylesheet19find_or_create_withEPNS0_11format_implERKNS_9alignmentENS_8optionalIbEE
FNL:9,435,445
FNA:9,511,_ZN4xlnt6detail10stylesheet19find_or_create_withEPNS0_11format_implERKNS_6borderENS_8optionalIbEE
FNL:10,447,457
FNA:10,513,_ZN4xlnt6detail10stylesheet19find_or_create_withEPNS0_11format_implERKNS_4fillENS_8optionalIbEE
FNL:11,459,469
FNA:11,535,_ZN4xlnt6detail10stylesheet19find_or_create_withEPNS0_11format_implERKNS_4fontENS_8optionalIbEE
FNL:12,471,495
FNA:12,532,_ZN4xlnt6detail10stylesheet19find_or_create_withEPNS0_11format_implERKNS_13number_formatENS_8optionalIbEE
FNL:13,49,60
FNA:13,556,_ZN4xlnt6detail10stylesheet13create_formatEb
FNL:14,497,507
FNA:14,1,_ZN4xlnt6detail10stylesheet19find_or_create_withEPNS0_11format_implERKNS_10protectionENS_8optionalIbEE
FNL:15,509,513
FNA:15,193,_ZNK4xlnt6detail10stylesheet11style_indexERKNSt7__cxx1112basic_stringIcSt11char_traitsIcESaIcEEE
FNL:16,533,545
FNA:16,1,_ZN4xlnt6detail10stylesheet27add_conditional_format_ruleEPNS0_14worksheet_implERKNS_15range_referenceERKNS_9conditionE
FNL:17,549,566
FNA:17,8,_ZNK4xlnt6detail10stylesheeteqERKS1_
FNL:18,62,68
FNA:18,882,_ZN4xlnt6detail10stylesheet6formatEm
FNL:19,70,84
FNA:19,893,_ZN4xlnt6detail10stylesheet12create_styleERKNSt7__cxx1112basic_stringIcSt11char_traitsIcESaIcEEE
FNL:20,86,149
FNA:20,251,_ZN4xlnt6detail10stylesheet20create_builtin_styleEm
FNF:21
FNH:21
BRDA:51,0,0,556
BRDA:51,e0,1,0
BRDA:57,0,0,250
BRDA:57,0,1,306
BRDA:59,0,0,556
BRDA:59,e0,1,0
BRDA:67,0,0,882
BRDA:67,e0,1,0
BRDA:72,0,0,893
BRDA:72,e0,1,0
BRDA:83,0,0,893
BRDA:83,e0,1,0
BRDA:143,0,0,4
BRDA:143,0,1,247
BRDA:143,0,2,4
BRDA:143,0,3,0
BRDA:143,0,4,4
BRDA:143,e0,5,0
BRDA:143,0,6,208
BRDA:143,0,7,4
BRDA:143,0,8,0
BRDA:143,0,9,0
BRDA:143,0,10,0
BRDA:143,0,11,0
BRDA:145,0,0,251
BRDA:145,e0,1,0
BRDA:145,0,2,251
BRDA:145,e0,3,0
BRDA:146,0,0,251
BRDA:146,e0,1,0
BRDA:149,0,0,4
BRDA:149,e0,1,0
BRDA:149,0,2,4
BRDA:149,e0,3,0
BRDA:149,0,4,4
BRDA:149,e0,5,0
BRDA:149,0,6,4
BRDA:149,e0,7,0
BRDA:149,0,8,4
BRDA:149,e0,9,0
BRDA:149,0,10,4
BRDA:149,e0,11,0
BRDA:149,0,12,4
BRDA:149,e0,13,0
BRDA:149,0,14,4
BRDA:149,e0,15,0
BRDA:149,0,16,4
BRDA:149,e0,17,0
BRDA:149,0,18,4
BRDA:149,e0,19,0
BRDA:149,0,20,4
BRDA:149,e0,21,0
BRDA:149,0,22,4
BRDA:149,e0,23,0
BRDA:149,0,24,4
BRDA:149,e0,25,0
BRDA:149,0,26,4
BRDA:149,e0,27,0
BRDA:149,0,28,4
BRDA:149,e0,29,0
BRDA:149,0,30,4
BRDA:149,e0,31,0
BRDA:149,0,32,4
BRDA:149,e0,33,0
BRDA:149,0,34,4
BRDA:149,e0,35,0
BRDA:149,0,36,4
BRDA:149,e0,37,0
BRDA:149,0,38,4
BRDA:149,e0,39,0
BRDA:149,0,40,4
BRDA:149,e0,41,0
BRDA:149,0,42,4
BRDA:149,e0,43,0
BRDA:149,0,44,4
BRDA:149,e0,45,0
BRDA:149,0,46,4
BRDA:149,e0,47,0
BRDA:149,0,48,4
BRDA:149,e0,49,0
BRDA:149,0,50,4
BRDA:149,e0,51,0
BRDA:149,0,52,4
BRDA:149,e0,53,0
BRDA:149,0,54,4
BRDA:149,e0,55,0
BRDA:149,0,56,4
BRDA:149,e0,57,0
BRDA:149,0,58,4
BRDA:149,e0,59,0
BRDA:149,0,60,4
BRDA:149,e0,61,0
BRDA:149,0,62,4
BRDA:149,e0,63,0
BRDA:149,0,64,4
BRDA:149,e0,65,0
BRDA:149,0,66,4
BRDA:149,e0,67,0
BRDA:149,0,68,4
BRDA:149,e0,69,0
BRDA:149,0,70,4
BRDA:149,e0,71,0
BRDA:149,0,72,4
BRDA:149,e0,73,0
BRDA:149,0,74,4
BRDA:149,e0,75,0
BRDA:149,0,76,4
BRDA:149,e0,77,0
BRDA:149,0,78,4
BRDA:149,e0,79,0
BRDA:149,0,80,4
BRDA:149,e0,81,0
BRDA:149,0,82,4
BRDA:149,e0,83,0
BRDA:149,0,84,4
BRDA:149,e0,85,0
BRDA:149,0,86,4
BRDA:149,e0,87,0
BRDA:149,0,88,4
BRDA:149,e0,89,0
BRDA:149,0,90,4
BRDA:149,e0,91,0
BRDA:149,0,92,4
BRDA:149,e0,93,0
BRDA:149,0,94,4
BRDA:149,e0,95,0
BRDA:149,0,96,4
BRDA:149,e0,97,0
BRDA:149,0,98,4
BRDA:149,e0,99,0
BRDA:149,0,100,4
BRDA:149,e0,101,0
BRDA:149,0,102,4
BRDA:149,e0,103,0
BRDA:149,0,104,0
BRDA:149,0,105,0
BRDA:149,0,106,0
BRDA:149,0,107,0
BRDA:153,0,0,1
BRDA:153,0,1,265
BRDA:153,0,2,1
BRDA:153,e0,3,0
BRDA:154,0,0,265
BRDA:154,e0,1,0
BRDA:154,0,2,265
BRDA:154,e0,3,0
BRDA:166,0,0,24
BRDA:166,0,1,17
BRDA:168,0,0,24
BRDA:168,e0,1,0
BRDA:168,0,2,7
BRDA:168,0,3,17
BRDA:170,0,0,7
BRDA:170,e0,1,0
BRDA:182,0,0,2328
BRDA:182,e0,1,0
BRDA:183,0,0,2302
BRDA:183,0,1,26
BRDA:187,0,0,26
BRDA:187,e0,1,0
BRDA:201,0,0,13361
BRDA:201,0,1,10305
BRDA:203,0,0,13361
BRDA:203,e0,1,0
BRDA:205,0,0,13361
BRDA:205,e0,1,0
BRDA:205,0,2,13361
BRDA:205,0,3,0
BRDA:205,0,4,13361
BRDA:205,e0,5,0
BRDA:205,0,6,0
BRDA:205,0,7,13361
BRDA:205,0,8,0
BRDA:205,0,9,13361
BRDA:207,0,0,-
BRDA:207,e0,1,-
BRDA:217,0,0,0
BRDA:217,0,1,2061
BRDA:220,0,0,9994
BRDA:220,0,1,2061
BRDA:224,0,0,7938
BRDA:224,0,1,2056
BRDA:243,0,0,2061
BRDA:243,e0,1,0
BRDA:244,0,0,2061
BRDA:244,e0,1,0
BRDA:246,0,0,7938
BRDA:246,0,1,2061
BRDA:250,0,0,0
BRDA:250,0,1,7938
BRDA:252,0,0,-
BRDA:252,e0,1,-
BRDA:252,0,2,-
BRDA:252,e0,3,-
BRDA:255,0,0,7898
BRDA:255,0,1,40
BRDA:257,0,0,7898
BRDA:257,e0,1,0
BRDA:257,0,2,7898
BRDA:257,e0,3,0
BRDA:260,0,0,7651
BRDA:260,0,1,287
BRDA:262,0,0,7651
BRDA:262,e0,1,0
BRDA:262,0,2,7651
BRDA:262,e0,3,0
BRDA:265,0,0,7171
BRDA:265,0,1,767
BRDA:267,0,0,7171
BRDA:267,e0,1,0
BRDA:267,0,2,7171
BRDA:267,e0,3,0
BRDA:270,0,0,6639
BRDA:270,0,1,1299
BRDA:272,0,0,6639
BRDA:272,e0,1,0
BRDA:272,0,2,6639
BRDA:272,e0,3,0
BRDA:275,0,0,0
BRDA:275,0,1,7938
BRDA:277,0,0,-
BRDA:277,e0,1,-
BRDA:277,0,2,-
BRDA:277,e0,3,-
BRDA:281,0,0,7164
BRDA:281,0,1,2061
BRDA:285,0,0,0
BRDA:285,0,1,7164
BRDA:287,0,0,-
BRDA:287,e0,1,-
BRDA:287,0,2,-
BRDA:287,e0,3,-
BRDA:290,0,0,7164
BRDA:290,0,1,0
BRDA:292,0,0,7164
BRDA:292,e0,1,0
BRDA:292,0,2,7164
BRDA:292,e0,3,0
BRDA:295,0,0,7164
BRDA:295,0,1,0
BRDA:297,0,0,7164
BRDA:297,e0,1,0
BRDA:297,0,2,7164
BRDA:297,e0,3,0
BRDA:300,0,0,7164
BRDA:300,0,1,0
BRDA:302,0,0,7164
BRDA:302,e0,1,0
BRDA:302,0,2,7164
BRDA:302,e0,3,0
BRDA:305,0,0,7164
BRDA:305,0,1,0
BRDA:307,0,0,7164
BRDA:307,e0,1,0
BRDA:307,0,2,7164
BRDA:307,e0,3,0
BRDA:310,0,0,0
BRDA:310,0,1,7164
BRDA:312,0,0,-
BRDA:312,e0,1,-
BRDA:312,0,2,-
BRDA:312,e0,3,-
BRDA:316,0,0,2061
BRDA:316,e0,1,0
BRDA:317,0,0,2061
BRDA:317,e0,1,0
BRDA:318,0,0,2061
BRDA:318,e0,1,0
BRDA:319,0,0,2061
BRDA:319,e0,1,0
BRDA:320,0,0,2061
BRDA:320,e0,1,0
BRDA:322,0,0,7938
BRDA:322,0,1,2061
BRDA:324,0,0,0
BRDA:324,0,1,7938
BRDA:326,0,0,-
BRDA:326,e0,1,-
BRDA:326,0,2,-
BRDA:326,e0,3,-
BRDA:326,0,4,-
BRDA:326,e0,5,-
BRDA:329,0,0,7898
BRDA:329,0,1,40
BRDA:331,0,0,7898
BRDA:331,e0,1,0
BRDA:331,0,2,7898
BRDA:331,e0,3,0
BRDA:331,0,4,7898
BRDA:331,e0,5,0
BRDA:334,0,0,7651
BRDA:334,0,1,287
BRDA:336,0,0,7651
BRDA:336,e0,1,0
BRDA:336,0,2,7651
BRDA:336,e0,3,0
BRDA:336,0,4,7651
BRDA:336,e0,5,0
BRDA:339,0,0,7171
BRDA:339,0,1,767
BRDA:341,0,0,7171
BRDA:341,e0,1,0
BRDA:341,0,2,7171
BRDA:341,e0,3,0
BRDA:341,0,4,7171
BRDA:341,e0,5,0
BRDA:344,0,0,0
BRDA:344,0,1,7938
BRDA:346,0,0,-
BRDA:346,e0,1,-
BRDA:346,0,2,-
BRDA:346,e0,3,-
BRDA:346,0,4,-
BRDA:346,e0,5,-
BRDA:350,0,0,7164
BRDA:350,0,1,2061
BRDA:354,0,0,0
BRDA:354,0,1,7164
BRDA:356,0,0,-
BRDA:356,e0,1,-
BRDA:356,0,2,-
BRDA:356,e0,3,-
BRDA:356,0,4,-
BRDA:356,e0,5,-
BRDA:359,0,0,7164
BRDA:359,0,1,0
BRDA:361,0,0,7164
BRDA:361,e0,1,0
BRDA:361,0,2,7164
BRDA:361,e0,3,0
BRDA:361,0,4,7164
BRDA:361,e0,5,0
BRDA:364,0,0,7164
BRDA:364,0,1,0
BRDA:366,0,0,7164
BRDA:366,e0,1,0
BRDA:366,0,2,7164
BRDA:366,e0,3,0
BRDA:366,0,4,7164
BRDA:366,e0,5,0
BRDA:369,0,0,7164
BRDA:369,0,1,0
BRDA:371,0,0,7164
BRDA:371,e0,1,0
BRDA:371,0,2,7164
BRDA:371,e0,3,0
BRDA:371,0,4,7164
BRDA:371,e0,5,0
BRDA:374,0,0,0
BRDA:374,0,1,7164
BRDA:376,0,0,-
BRDA:376,e0,1,-
BRDA:376,0,2,-
BRDA:376,e0,3,-
BRDA:376,0,4,-
BRDA:376,e0,5,-
BRDA:386,0,0,8975
BRDA:386,0,1,1795
BRDA:386,0,2,8416
BRDA:386,0,3,559
BRDA:386,0,4,8416
BRDA:386,0,5,2354
BRDA:391,0,0,1795
BRDA:391,0,1,559
BRDA:393,0,0,1795
BRDA:393,e0,1,0
BRDA:401,0,0,2061
BRDA:401,0,1,293
BRDA:405,0,0,2040
BRDA:405,0,1,21
BRDA:406,0,0,2061
BRDA:406,e0,1,0
BRDA:414,0,0,261
BRDA:414,e0,1,0
BRDA:415,0,0,261
BRDA:415,e0,1,0
BRDA:416,0,0,0
BRDA:416,0,1,261
BRDA:418,0,0,-
BRDA:418,e0,1,-
BRDA:420,0,0,261
BRDA:420,e0,1,0
BRDA:425,0,0,1
BRDA:425,e0,1,0
BRDA:426,0,0,1
BRDA:426,e0,1,0
BRDA:427,0,0,1
BRDA:427,e0,1,0
BRDA:428,0,0,1
BRDA:428,0,1,0
BRDA:430,0,0,1
BRDA:430,e0,1,0
BRDA:432,0,0,1
BRDA:432,e0,1,0
BRDA:437,0,0,511
BRDA:437,e0,1,0
BRDA:438,0,0,511
BRDA:438,e0,1,0
BRDA:439,0,0,511
BRDA:439,e0,1,0
BRDA:440,0,0,259
BRDA:440,0,1,252
BRDA:442,0,0,259
BRDA:442,e0,1,0
BRDA:444,0,0,511
BRDA:444,e0,1,0
BRDA:449,0,0,513
BRDA:449,e0,1,0
BRDA:450,0,0,513
BRDA:450,e0,1,0
BRDA:451,0,0,513
BRDA:451,e0,1,0
BRDA:452,0,0,3
BRDA:452,0,1,510
BRDA:454,0,0,3
BRDA:454,e0,1,0
BRDA:456,0,0,513
BRDA:456,e0,1,0
BRDA:461,0,0,535
BRDA:461,e0,1,0
BRDA:462,0,0,535
BRDA:462,e0,1,0
BRDA:463,0,0,535
BRDA:463,e0,1,0
BRDA:464,0,0,24
BRDA:464,0,1,511
BRDA:466,0,0,24
BRDA:466,e0,1,0
BRDA:468,0,0,535
BRDA:468,e0,1,0
BRDA:473,0,0,532
BRDA:473,e0,1,0
BRDA:474,0,0,532
BRDA:474,e0,1,0
BRDA:474,0,2,517
BRDA:474,0,3,15
BRDA:474,0,4,517
BRDA:474,e0,5,0
BRDA:474,0,6,516
BRDA:474,0,7,1
BRDA:474,0,8,516
BRDA:474,0,9,16
BRDA:476,0,0,516
BRDA:476,e0,1,0
BRDA:480,0,0,16
BRDA:480,e0,1,0
BRDA:481,0,0,13
BRDA:481,0,1,3
BRDA:483,0,0,13
BRDA:483,e0,1,0
BRDA:484,0,0,13
BRDA:484,e0,1,0
BRDA:485,0,0,13
BRDA:485,e0,1,0
BRDA:487,0,0,16
BRDA:487,e0,1,0
BRDA:489,0,0,532
BRDA:489,e0,1,0
BRDA:490,0,0,18
BRDA:490,0,1,514
BRDA:492,0,0,18
BRDA:492,e0,1,0
BRDA:494,0,0,532
BRDA:494,e0,1,0
BRDA:499,0,0,1
BRDA:499,e0,1,0
BRDA:500,0,0,1
BRDA:500,e0,1,0
BRDA:501,0,0,1
BRDA:501,e0,1,0
BRDA:502,0,0,1
BRDA:502,0,1,0
BRDA:504,0,0,1
BRDA:504,e0,1,0
BRDA:506,0,0,1
BRDA:506,e0,1,0
BRDA:535,0,0,1
BRDA:535,e0,1,0
BRDA:535,0,2,1
BRDA:535,e0,3,0
BRDA:544,0,0,1
BRDA:544,e0,1,0
BRDA:553,0,0,8
BRDA:553,0,1,0
BRDA:554,0,0,8
BRDA:554,0,1,0
BRDA:555,0,0,8
BRDA:555,0,1,0
BRDA:556,0,0,8
BRDA:556,0,1,0
BRDA:557,0,0,8
BRDA:557,0,1,0
BRDA:558,0,0,8
BRDA:558,0,1,0
BRDA:559,0,0,8
BRDA:559,0,1,0
BRDA:560,0,0,8
BRDA:560,0,1,0
BRDA:561,0,0,8
BRDA:561,0,1,0
BRDA:562,0,0,8
BRDA:562,0,1,0
BRDA:563,0,0,8
BRDA:563,0,1,0
BRDA:564,0,0,8
BRDA:564,0,1,0
BRDA:565,0,0,8
BRDA:565,0,1,0
BRDA:565,0,2,8
BRDA:565,0,3,0
BRF:510
BRH:264
DA:49,556
DA:51,556
DA:52,556
DA:54,556
DA:55,556
DA:57,556
DA:59,556
DA:62,882
DA:64,882
DA:65,882
DA:67,882
DA:70,893
DA:72,893
DA:74,893
DA:75,893
DA:77,893
DA:78,893
DA:79,893
DA:80,893
DA:82,893
DA:83,893
DA:86,251
DA:91,0
DA:92,0
DA:93,0
DA:94,0
DA:95,0
DA:96,0
DA:97,0
DA:98,0
DA:99,0
DA:100,0
DA:101,0
DA:102,0
DA:103,0
DA:104,0
DA:105,0
DA:106,0
DA:107,0
DA:108,0
DA:109,0
DA:110,0
DA:111,0
DA:112,0
DA:113,0
DA:114,0
DA:115,0
DA:116,0
DA:117,0
DA:118,0
DA:119,0
DA:120,0
DA:121,0
DA:122,0
DA:123,0
DA:124,0
DA:125,0
DA:126,0
DA:127,0
DA:128,0
DA:129,0
DA:130,0
DA:131,0
DA:132,0
DA:133,0
DA:134,0
DA:135,0
DA:136,0
DA:137,0
DA:138,0
DA:139,0
DA:140,0
DA:141,0
DA:142,0
DA:143,486
DA:145,251
DA:146,251
DA:148,251
DA:149,4
DA:151,266
DA:153,266
DA:154,265
DA:157,522
DA:159,522
DA:162,17
DA:164,17
DA:166,41
DA:168,24
DA:170,7
DA:174,17
DA:178,2328
DA:182,2328
DA:183,2328
DA:185,2302
DA:187,26
DA:188,26
DA:193,10305
DA:197,10305
DA:198,10305
DA:199,10305
DA:201,23666
DA:203,13361
DA:205,13361
DA:207,0
DA:208,0
DA:212,10305
DA:213,0
DA:215,2061
DA:217,2061
DA:219,2061
DA:220,12055
DA:222,9994
DA:224,9994
DA:226,7938
DA:230,2056
DA:234,2061
DA:236,2061
DA:237,2061
DA:238,2061
DA:239,2061
DA:240,2061
DA:241,2061
DA:243,2061
DA:244,2061
DA:246,9999
DA:248,7938
DA:250,7938
DA:252,0
DA:255,7938
DA:257,7898
DA:260,7938
DA:262,7651
DA:265,7938
DA:267,7171
DA:270,7938
DA:272,6639
DA:275,7938
DA:277,0
DA:281,9225
DA:283,7164
DA:285,7164
DA:287,0
DA:290,7164
DA:292,7164
DA:295,7164
DA:297,7164
DA:300,7164
DA:302,7164
DA:305,7164
DA:307,7164
DA:310,7164
DA:312,0
DA:316,2061
DA:317,2061
DA:318,2061
DA:319,2061
DA:320,2061
DA:322,9999
DA:324,7938
DA:326,0
DA:329,7938
DA:331,7898
DA:334,7938
DA:336,7651
DA:339,7938
DA:341,7171
DA:344,7938
DA:346,0
DA:350,9225
DA:352,7164
DA:354,7164
DA:356,0
DA:359,7164
DA:361,7164
DA:364,7164
DA:366,7164
DA:369,7164
DA:371,7164
DA:374,7164
DA:376,0
DA:379,2061
DA:381,2354
DA:383,2354
DA:384,2354
DA:385,2354
DA:386,10770
DA:388,8416
DA:389,8416
DA:391,2354
DA:393,1795
DA:395,2354
DA:397,2354
DA:398,2354
DA:399,2354
DA:401,2354
DA:403,2061
DA:404,2061
DA:405,2061
DA:406,2061
DA:409,2354
DA:412,261
DA:414,261
DA:415,261
DA:416,261
DA:418,0
DA:420,522
DA:421,261
DA:423,1
DA:425,1
DA:426,1
DA:427,1
DA:428,1
DA:430,1
DA:432,2
DA:433,1
DA:435,511
DA:437,511
DA:438,511
DA:439,511
DA:440,511
DA:442,259
DA:444,1022
DA:445,511
DA:447,513
DA:449,513
DA:450,513
DA:451,513
DA:452,513
DA:454,3
DA:456,1026
DA:457,513
DA:459,535
DA:461,535
DA:462,535
DA:463,535
DA:464,535
DA:466,24
DA:468,1070
DA:469,535
DA:471,532
DA:473,532
DA:474,532
DA:476,516
DA:480,16
DA:481,16
DA:483,13
DA:484,13
DA:485,13
DA:487,16
DA:489,532
DA:490,532
DA:492,18
DA:494,1064
DA:495,532
DA:497,1
DA:499,1
DA:500,1
DA:501,1
DA:502,1
DA:504,1
DA:506,2
DA:507,1
DA:509,193
DA:511,193
DA:512,193
DA:533,1
DA:535,1
DA:537,1
DA:538,1
DA:539,1
DA:540,1
DA:541,1
DA:542,1
DA:544,1
DA:549,8
DA:552,8
DA:553,8
DA:554,8
DA:555,8
DA:556,8
DA:557,8
DA:558,8
DA:559,8
DA:560,8
DA:561,8
DA:562,8
DA:563,8
DA:564,8
DA:565,16
LF:289
LH:225
end_of_record
TN:
SF:/root/project/source/detail/implementations/workbook_impl.hpp
FNL:0,159,161
FNA:0,327,_ZN4xlnt6detail13workbook_impl14file_version_tC2Ev
FNL:1,163,169
FNA:1,8,_ZNK4xlnt6detail13workbook_impl14file_version_teqERKS2_
FNL:2,51,53
FNA:2,445,_ZN4xlnt6detail13workbook_implC2Ev
FNL:3,72,93
FNA:3,196,_ZN4xlnt6detail13workbook_implaSERKS1_
FNL:4,95,119
FNA:4,14,_ZNK4xlnt6detail13workbook_impleqERKS1_
FNF:5
FNH:5
BRDA:99,0,0,14
BRDA:99,0,1,0
BRDA:100,0,0,14
BRDA:100,0,1,0
BRDA:101,0,0,14
BRDA:101,0,1,0
BRDA:102,0,0,14
BRDA:102,0,1,0
BRDA:103,0,0,14
BRDA:103,0,1,0
BRDA:104,0,0,14
BRDA:104,0,1,0
BRDA:105,0,0,14
BRDA:105,0,1,0
BRDA:106,0,0,14
BRDA:106,0,1,0
BRDA:107,0,0,14
BRDA:107,0,1,0
BRDA:108,0,0,14
BRDA:108,0,1,0
BRDA:109,0,0,14
BRDA:109,0,1,0
BRDA:110,0,0,14
BRDA:110,0,1,0
BRDA:111,0,0,14
BRDA:111,0,1,0
BRDA:112,0,0,14
BRDA:112,0,1,0
BRDA:113,0,0,14
BRDA:113,0,1,0
BRDA:114,0,0,14
BRDA:114,0,1,0
BRDA:115,0,0,14
BRDA:115,0,1,0
BRDA:116,0,0,14
BRDA:116,0,1,0
BRDA:117,0,0,14
BRDA:117,0,1,0
BRDA:118,0,0,14
BRDA:118,0,1,0
BRDA:118,0,2,14
BRDA:118,0,3,0
BRDA:166,0,0,8
BRDA:166,0,1,0
BRDA:167,0,0,8
BRDA:167,0,1,0
BRDA:168,0,0,8
BRDA:168,0,1,0
BRDA:168,0,2,8
BRDA:168,0,3,0
BRF:50
BRH:25
DA:51,445
DA:53,445
DA:72,196
DA:74,196
DA:75,196
DA:76,196
DA:77,196
DA:78,196
DA:79,196
DA:80,196
DA:82,196
DA:83,196
DA:84,196
DA:85,196
DA:86,196
DA:88,196
DA:89,196
DA:90,196
DA:92,196
DA:95,14
DA:98,14
DA:99,14
DA:100,14
DA:101,14
DA:102,14
DA:103,14
DA:104,14
DA:105,14
DA:106,14
DA:107,14
DA:108,14
DA:109,14
DA:110,14
DA:111,14
DA:112,14
DA:113,14
DA:114,14
DA:115,14
DA:116,14
DA:117,14
DA:118,28
DA:159,327
DA:161,327
DA:163,8
DA:165,8
DA:166,8
DA:167,8
DA:168,16
LF:48
LH:48
end_of_record
TN:
SF:/root/project/source/detail/implementations/worksheet_impl.hpp
FNL:0,102,126
FNA:0,16,_ZNK4xlnt6detail14worksheet_impleqERKS1_
FNL:1,55,60
FNA:1,412,_ZN4xlnt6detail14worksheet_implC2EPNS_8workbookEmRKNSt7__cxx1112basic_stringIcSt11char_traitsIcESaIcEEE
FNL:2,62,65
FNA:2,294,_ZN4xlnt6detail14worksheet_implC2ERKS1_
FNL:3,67,98
FNA:3,296,_ZN4xlnt6detail14worksheet_implaSERKS1_
FNF:4
FNH:4
BRDA:58,0,0,412
BRDA:58,e0,1,0
BRDA:64,0,0,294
BRDA:64,e0,1,0
BRDA:94,0,0,5
BRDA:94,0,1,296
BRDA:106,0,0,16
BRDA:106,0,1,0
BRDA:107,0,0,16
BRDA:107,0,1,0
BRDA:108,0,0,15
BRDA:108,0,1,1
BRDA:109,0,0,15
BRDA:109,0,1,0
BRDA:110,0,0,15
BRDA:110,0,1,0
BRDA:111,0,0,15
BRDA:111,0,1,0
BRDA:112,0,0,15
BRDA:112,0,1,0
BRDA:113,0,0,15
BRDA:113,0,1,0
BRDA:114,0,0,15
BRDA:114,0,1,0
BRDA:115,0,0,15
BRDA:115,0,1,0
BRDA:116,0,0,15
BRDA:116,0,1,0
BRDA:117,0,0,15
BRDA:117,0,1,0
BRDA:118,0,0,15
BRDA:118,0,1,0
BRDA:119,0,0,15
BRDA:119,0,1,0
BRDA:120,0,0,15
BRDA:120,0,1,0
BRDA:121,0,0,15
BRDA:121,0,1,0
BRDA:122,0,0,15
BRDA:122,0,1,0
BRDA:123,0,0,15
BRDA:123,0,1,0
BRDA:124,0,0,15
BRDA:124,0,1,0
BRDA:125,0,0,16
BRDA:125,0,1,0
BRDA:125,0,2,15
BRDA:125,0,3,0
BRF:48
BRH:26
DA:55,412
DA:56,412
DA:57,412
DA:58,412
DA:60,412
DA:62,294
DA:63,294
DA:64,294
DA:65,294
DA:67,296
DA:69,296
DA:71,296
DA:72,296
DA:73,296
DA:74,296
DA:75,296
DA:76,296
DA:77,296
DA:78,296
DA:79,296
DA:80,296
DA:81,296
DA:82,296
DA:83,296
DA:84,296
DA:85,296
DA:86,296
DA:87,296
DA:88,296
DA:89,296
DA:90,296
DA:91,296
DA:92,296
DA:94,301
DA:96,5
DA:98,296
DA:102,16
DA:105,16
DA:106,16
DA:107,16
DA:108,16
DA:109,15
DA:110,15
DA:111,15
DA:112,15
DA:113,15
DA:114,15
DA:115,15
DA:116,15
DA:117,15
DA:118,15
DA:119,15
DA:120,15
DA:121,15
DA:122,15
DA:123,15
DA:124,15
DA:125,32
LF:58
LH:58
end_of_record
TN:
SF:/root/project/source/detail/limits.hpp
FNL:0,39,42
FNA:0,521,_ZN4xlnt6detail21clip_reserve_elementsEm
FNF:1
FNH:1
BRDA:41,0,0,521
BRDA:41,e0,1,0
BRF:2
BRH:1
DA:39,521
DA:41,521
LF:2
LH:2
end_of_record
TN:
SF:/root/project/source/detail/number_format/number_formatter.cpp
FNL:0,1013,1258
FNA:0,1429,_ZN4xlnt6detail20number_format_parser16parse_next_tokenEv
FNL:1,1017,1019
FNA:1,443,_ZZN4xlnt6detail20number_format_parser16parse_next_tokenEvENKUlcE_clEc
FNL:2,1260,1274
FNA:2,285,_ZN4xlnt6detail20number_format_parser8validateEv
FNL:3,1276,1349
FNA:3,356,_ZN4xlnt6detail20number_format_parser18parse_placeholdersERKNSt7__cxx1112basic_stringIcSt11char_traitsIcESaIcEEE
FNL:4,1351,1435
FNA:4,48,_ZN4xlnt6detail20number_format_parser17color_from_stringERKNSt7__cxx1112basic_stringIcSt11char_traitsIcESaIcEEE
FNL:5,1437,1485
FNA:5,7,_ZN4xlnt6detail20number_format_parser18locale_from_stringERKNSt7__cxx1112basic_stringIcSt11char_traitsIcESaIcEEE
FNL:6,1487,1492
FNA:6,303,_ZN4xlnt6detail16number_formatterC2ERKNSt7__cxx1112basic_stringIcSt11char_traitsIcESaIcEEENS_8calendarE
FNL:7,1494,1556
FNA:7,195,_ZN4xlnt6detail16number_formatter13format_numberB5cxx11Ed
FNL:8,1558,1571
FNA:8,84,_ZN4xlnt6detail16number_formatter11format_textERKNSt7__cxx1112basic_stringIcSt11char_traitsIcESaIcEEE
FNL:9,1573,1659
FNA:9,130,_ZN4xlnt6detail16number_formatter17fill_placeholdersB5cxx11ERKNS0_19format_placeholdersEd
FNL:10,1661,1705
FNA:10,7,_ZN4xlnt6detail16number_formatter28fill_scientific_placeholdersB5cxx11ERKNS0_19format_placeholdersES4_S4_d
FNL:11,1707,1744
FNA:11,4,_ZN4xlnt6detail16number_formatter26fill_fraction_placeholdersB5cxx11ERKNS0_19format_placeholdersES4_db
FNL:12,1746,2065
FNA:12,193,_ZN4xlnt6detail16number_formatter13format_numberB5cxx11ERKNS0_11format_codeEd
FNL:13,2067,2096
FNA:13,84,_ZN4xlnt6detail16number_formatter11format_textERKNS0_11format_codeERKNSt7__cxx1112basic_stringIcSt11char_traitsIcESaIcEEE
FNL:14,41,480
FNA:14,4,_ZN12_GLOBAL__N_113known_localesEv
FNL:15,482,485
FNA:15,8,_ZN12_GLOBAL__N_120unhandled_case_errorEv
FNL:16,487,493
FNA:16,8,_ZN12_GLOBAL__N_114unhandled_caseEb
FNL:17,500,519
FNA:17,48,_ZNK4xlnt6detail16format_condition12satisfied_byEd
FNL:18,521,524
FNA:18,307,_ZN4xlnt6detail20number_format_parserC2ERKNSt7__cxx1112basic_stringIcSt11char_traitsIcESaIcEEE
FNL:19,526,529
FNA:19,283,_ZNK4xlnt6detail20number_format_parser6resultEv
FNL:20,531,536
FNA:20,307,_ZN4xlnt6detail20number_format_parser5resetERKNSt7__cxx1112basic_stringIcSt11char_traitsIcESaIcEEE
FNL:21,538,839
FNA:21,307,_ZN4xlnt6detail20number_format_parser5parseEv
FNL:22,841,1011
FNA:22,285,_ZN4xlnt6detail20number_format_parser8finalizeEv
FNF:23
FNH:23
BRDA:477,0,0,1
BRDA:477,0,1,3
BRDA:477,0,2,1
BRDA:477,0,3,0
BRDA:477,0,4,432
BRDA:477,0,5,1
BRDA:477,0,6,0
BRDA:477,0,7,0
BRDA:477,0,8,0
BRDA:477,0,9,0
BRDA:480,0,0,1
BRDA:480,e0,1,0
BRDA:480,0,2,1
BRDA:480,e0,3,0
BRDA:480,0,4,1
BRDA:480,e0,5,0
BRDA:480,0,6,1
BRDA:480,e0,7,0
BRDA:480,0,8,1
BRDA:480,e0,9,0
BRDA:480,0,10,1
BRDA:480,e0,11,0
BRDA:480,0,12,1
BRDA:480,e0,13,0
BRDA:480,0,14,1
BRDA:480,e0,15,0
BRDA:480,0,16,1
BRDA:480,e0,17,0
BRDA:480,0,18,1
BRDA:480,e0,19,0
BRDA:480,0,20,1
BRDA:480,e0,21,0
BRDA:480,0,22,1
BRDA:480,e0,23,0
BRDA:480,0,24,1
BRDA:480,e0,25,0
BRDA:480,0,26,1
BRDA:480,e0,27,0
BRDA:480,0,28,1
BRDA:480,e0,29,0
BRDA:480,0,30,1
BRDA:480,e0,31,0
BRDA:480,0,32,1
BRDA:480,e0,33,0
BRDA:480,0,34,1
BRDA:480,e0,35,0
BRDA:480,0,36,1
BRDA:480,e0,37,0
BRDA:480,0,38,1
BRDA:480,e0,39,0
BRDA:480,0,40,1
BRDA:480,e0,41,0
BRDA:480,0,42,1
BRDA:480,e0,43,0
BRDA:480,0,44,1
BRDA:480,e0,45,0
BRDA:480,0,46,1
BRDA:480,e0,47,0
BRDA:480,0,48,1
BRDA:480,e0,49,0
BRDA:480,0,50,1
BRDA:480,e0,51,0
BRDA:480,0,52,1
BRDA:480,e0,53,0
BRDA:480,0,54,1
BRDA:480,e0,55,0
BRDA:480,0,56,1
BRDA:480,e0,57,0
BRDA:480,0,58,1
BRDA:480,e0,59,0
BRDA:480,0,60,1
BRDA:480,e0,61,0
BRDA:480,0,62,1
BRDA:480,e0,63,0
BRDA:480,0,64,1
BRDA:480,e0,65,0
BRDA:480,0,66,1
BRDA:480,e0,67,0
BRDA:480,0,68,1
BRDA:480,e0,69,0
BRDA:480,0,70,1
BRDA:480,e0,71,0
BRDA:480,0,72,1
BRDA:480,e0,73,0
BRDA:480,0,74,1
BRDA:480,e0,75,0
BRDA:480,0,76,1
BRDA:480,e0,77,0
BRDA:480,0,78,1
BRDA:480,e0,79,0
BRDA:480,0,80,1
BRDA:480,e0,81,0
BRDA:480,0,82,1
BRDA:480,e0,83,0
BRDA:480,0,84,1
BRDA:480,e0,85,0
BRDA:480,0,86,1
BRDA:480,e0,87,0
BRDA:480,0,88,1
BRDA:480,e0,89,0
BRDA:480,0,90,1
BRDA:480,e0,91,0
BRDA:480,0,92,1
BRDA:480,e0,93,0
BRDA:480,0,94,1
BRDA:480,e0,95,0
BRDA:480,0,96,1
BRDA:480,e0,97,0
BRDA:480,0,98,1
BRDA:480,e0,99,0
BRDA:480,0,100,1
BRDA:480,e0,101,0
BRDA:480,0,102,1
BRDA:480,e0,103,0
BRDA:480,0,104,1
BRDA:480,e0,105,0
BRDA:480,0,106,1
BRDA:480,e0,107,0
BRDA:480,0,108,1
BRDA:480,e0,109,0
BRDA:480,0,110,1
BRDA:480,e0,111,0
BRDA:480,0,112,1
BRDA:480,e0,113,0
BRDA:480,0,114,1
BRDA:480,e0,115,0
BRDA:480,0,116,1
BRDA:480,e0,117,0
BRDA:480,0,118,1
BRDA:480,e0,119,0
BRDA:480,0,120,1
BRDA:480,e0,121,0
BRDA:480,0,122,1
BRDA:480,e0,123,0
BRDA:480,0,124,1
BRDA:480,e0,125,0
BRDA:480,0,126,1
BRDA:480,e0,127,0
BRDA:480,0,128,1
BRDA:480,e0,129,0
BRDA:480,0,130,1
BRDA:480,e0,131,0
BRDA:480,0,132,1
BRDA:480,e0,133,0
BRDA:480,0,134,1
BRDA:480,e0,135,0
BRDA:480,0,136,1
BRDA:480,e0,137,0
BRDA:480,0,138,1
BRDA:480,e0,139,0
BRDA:480,0,140,1
BRDA:480,e0,141,0
BRDA:480,0,142,1
BRDA:480,e0,143,0
BRDA:480,0,144,1
BRDA:480,e0,145,0
BRDA:480,0,146,1
BRDA:480,e0,147,0
BRDA:480,0,148,1
BRDA:480,e0,149,0
BRDA:480,0,150,1
BRDA:480,e0,151,0
BRDA:480,0,152,1
BRDA:480,e0,153,0
BRDA:480,0,154,1
BRDA:480,e0,155,0
BRDA:480,0,156,1
BRDA:480,e0,157,0
BRDA:480,0,158,1
BRDA:480,e0,159,0
BRDA:480,0,160,1
BRDA:480,e0,161,0
BRDA:480,0,162,1
BRDA:480,e0,163,0
BRDA:480,0,164,1
BRDA:480,e0,165,0
BRDA:480,0,166,1
BRDA:480,e0,167,0
BRDA:480,0,168,1
BRDA:480,e0,169,0
BRDA:480,0,170,1
BRDA:480,e0,171,0
BRDA:480,0,172,1
BRDA:480,e0,173,0
BRDA:480,0,174,1
BRDA:480,e0,175,0
BRDA:480,0,176,1
BRDA:480,e0,177,0
BRDA:480,0,178,1
BRDA:480,e0,179,0
BRDA:480,0,180,1
BRDA:480,e0,181,0
BRDA:480,0,182,1
BRDA:480,e0,183,0
BRDA:480,0,184,1
BRDA:480,e0,185,0
BRDA:480,0,186,1
BRDA:480,e0,187,0
BRDA:480,0,188,1
BRDA:480,e0,189,0
BRDA:480,0,190,1
BRDA:480,e0,191,0
BRDA:480,0,192,1
BRDA:480,e0,193,0
BRDA:480,0,194,1
BRDA:480,e0,195,0
BRDA:480,0,196,1
BRDA:480,e0,197,0
BRDA:480,0,198,1
BRDA:480,e0,199,0
BRDA:480,0,200,1
BRDA:480,e0,201,0
BRDA:480,0,202,1
BRDA:480,e0,203,0
BRDA:480,0,204,1
BRDA:480,e0,205,0
BRDA:480,0,206,1
BRDA:480,e0,207,0
BRDA:480,0,208,1
BRDA:480,e0,209,0
BRDA:480,0,210,1
BRDA:480,e0,211,0
BRDA:480,0,212,1
BRDA:480,e0,213,0
BRDA:480,0,214,1
BRDA:480,e0,215,0
BRDA:480,0,216,1
BRDA:480,e0,217,0
BRDA:480,0,218,1
BRDA:480,e0,219,0
BRDA:480,0,220,1
BRDA:480,e0,221,0
BRDA:480,0,222,1
BRDA:480,e0,223,0
BRDA:480,0,224,1
BRDA:480,e0,225,0
BRDA:480,0,226,1
BRDA:480,e0,227,0
BRDA:480,0,228,1
BRDA:480,e0,229,0
BRDA:480,0,230,1
BRDA:480,e0,231,0
BRDA:480,0,232,1
BRDA:480,e0,233,0
BRDA:480,0,234,1
BRDA:480,e0,235,0
BRDA:480,0,236,1
BRDA:480,e0,237,0
BRDA:480,0,238,1
BRDA:480,e0,239,0
BRDA:480,0,240,1
BRDA:480,e0,241,0
BRDA:480,0,242,1
BRDA:480,e0,243,0
BRDA:480,0,244,1
BRDA:480,e0,245,0
BRDA:480,0,246,1
BRDA:480,e0,247,0
BRDA:480,0,248,1
BRDA:480,e0,249,0
BRDA:480,0,250,1
BRDA:480,e0,251,0
BRDA:480,0,252,1
BRDA:480,e0,253,0
BRDA:480,0,254,1
BRDA:480,e0,255,0
BRDA:480,0,256,1
BRDA:480,e0,257,0
BRDA:480,0,258,1
BRDA:480,e0,259,0
BRDA:480,0,260,1
BRDA:480,e0,261,0
BRDA:480,0,262,1
BRDA:480,e0,263,0
BRDA:480,0,264,1
BRDA:480,e0,265,0
BRDA:480,0,266,1
BRDA:480,e0,267,0
BRDA:480,0,268,1
BRDA:480,e0,269,0
BRDA:480,0,270,1
BRDA:480,e0,271,0
BRDA:480,0,272,1
BRDA:480,e0,273,0
BRDA:480,0,274,1
BRDA:480,e0,275,0
BRDA:480,0,276,1
BRDA:480,e0,277,0
BRDA:480,0,278,1
BRDA:480,e0,279,0
BRDA:480,0,280,1
BRDA:480,e0,281,0
BRDA:480,0,282,1
BRDA:480,e0,283,0
BRDA:480,0,284,1
BRDA:480,e0,285,0
BRDA:480,0,286,1
BRDA:480,e0,287,0
BRDA:480,0,288,1
BRDA:480,e0,289,0
BRDA:480,0,290,1
BRDA:480,e0,291,0
BRDA:480,0,292,1
BRDA:480,e0,293,0
BRDA:480,0,294,1
BRDA:480,e0,295,0
BRDA:480,0,296,1
BRDA:480,e0,297,0
BRDA:480,0,298,1
BRDA:480,e0,299,0
BRDA:480,0,300,1
BRDA:480,e0,301,0
BRDA:480,0,302,1
BRDA:480,e0,303,0
BRDA:480,0,304,1
BRDA:480,e0,305,0
BRDA:480,0,306,1
BRDA:480,e0,307,0
BRDA:480,0,308,1
BRDA:480,e0,309,0
BRDA:480,0,310,1
BRDA:480,e0,311,0
BRDA:480,0,312,1
BRDA:480,e0,313,0
BRDA:480,0,314,1
BRDA:480,e0,315,0
BRDA:480,0,316,1
BRDA:480,e0,317,0
BRDA:480,0,318,1
BRDA:480,e0,319,0
BRDA:480,0,320,1
BRDA:480,e0,321,0
BRDA:480,0,322,1
BRDA:480,e0,323,0
BRDA:480,0,324,1
BRDA:480,e0,325,0
BRDA:480,0,326,1
BRDA:480,e0,327,0
BRDA:480,0,328,1
BRDA:480,e0,329,0
BRDA:480,0,330,1
BRDA:480,e0,331,0
BRDA:480,0,332,1
BRDA:480,e0,333,0
BRDA:480,0,334,1
BRDA:480,e0,335,0
BRDA:480,0,336,1
BRDA:480,e0,337,0
BRDA:480,0,338,1
BRDA:480,e0,339,0
BRDA:480,0,340,1
BRDA:480,e0,341,0
BRDA:480,0,342,1
BRDA:480,e0,343,0
BRDA:480,0,344,1
BRDA:480,e0,345,0
BRDA:480,0,346,1
BRDA:480,e0,347,0
BRDA:480,0,348,1
BRDA:480,e0,349,0
BRDA:480,0,350,1
BRDA:480,e0,351,0
BRDA:480,0,352,1
BRDA:480,e0,353,0
BRDA:480,0,354,1
BRDA:480,e0,355,0
BRDA:480,0,356,1
BRDA:480,e0,357,0
BRDA:480,0,358,1
BRDA:480,e0,359,0
BRDA:480,0,360,1
BRDA:480,e0,361,0
BRDA:480,0,362,1
BRDA:480,e0,363,0
BRDA:480,0,364,1
BRDA:480,e0,365,0
BRDA:480,0,366,1
BRDA:480,e0,367,0
BRDA:480,0,368,1
BRDA:480,e0,369,0
BRDA:480,0,370,1
BRDA:480,e0,371,0
BRDA:480,0,372,1
BRDA:480,e0,373,0
BRDA:480,0,374,1
BRDA:480,e0,375,0
BRDA:480,0,376,1
BRDA:480,e0,377,0
BRDA:480,0,378,1
BRDA:480,e0,379,0
BRDA:480,0,380,1
BRDA:480,e0,381,0
BRDA:480,0,382,1
BRDA:480,e0,383,0
BRDA:480,0,384,1
BRDA:480,e0,385,0
BRDA:480,0,386,1
BRDA:480,e0,387,0
BRDA:480,0,388,1
BRDA:480,e0,389,0
BRDA:480,0,390,1
BRDA:480,e0,391,0
BRDA:480,0,392,1
BRDA:480,e0,393,0
BRDA:480,0,394,1
BRDA:480,e0,395,0
BRDA:480,0,396,1
BRDA:480,e0,397,0
BRDA:480,0,398,1
BRDA:480,e0,399,0
BRDA:480,0,400,1
BRDA:480,e0,401,0
BRDA:480,0,402,1
BRDA:480,e0,403,0
BRDA:480,0,404,1
BRDA:480,e0,405,0
BRDA:480,0,406,1
BRDA:480,e0,407,0
BRDA:480,0,408,1
BRDA:480,e0,409,0
BRDA:480,0,410,1
BRDA:480,e0,411,0
BRDA:480,0,412,1
BRDA:480,e0,413,0
BRDA:480,0,414,1
BRDA:480,e0,415,0
BRDA:480,0,416,1
BRDA:480,e0,417,0
BRDA:480,0,418,1
BRDA:480,e0,419,0
BRDA:480,0,420,1
BRDA:480,e0,421,0
BRDA:480,0,422,1
BRDA:480,e0,423,0
BRDA:480,0,424,1
BRDA:480,e0,425,0
BRDA:480,0,426,1
BRDA:480,e0,427,0
BRDA:480,0,428,1
BRDA:480,e0,429,0
BRDA:480,0,430,1
BRDA:480,e0,431,0
BRDA:480,0,432,1
BRDA:480,e0,433,0
BRDA:480,0,434,1
BRDA:480,e0,435,0
BRDA:480,0,436,1
BRDA:480,e0,437,0
BRDA:480,0,438,1
BRDA:480,e0,439,0
BRDA:480,0,440,1
BRDA:480,e0,441,0
BRDA:480,0,442,1
BRDA:480,e0,443,0
BRDA:480,0,444,1
BRDA:480,e0,445,0
BRDA:480,0,446,1
BRDA:480,e0,447,0
BRDA:480,0,448,1
BRDA:480,e0,449,0
BRDA:480,0,450,1
BRDA:480,e0,451,0
BRDA:480,0,452,1
BRDA:480,e0,453,0
BRDA:480,0,454,1
BRDA:480,e0,455,0
BRDA:480,0,456,1
BRDA:480,e0,457,0
BRDA:480,0,458,1
BRDA:480,e0,459,0
BRDA:480,0,460,1
BRDA:480,e0,461,0
BRDA:480,0,462,1
BRDA:480,e0,463,0
BRDA:480,0,464,1
BRDA:480,e0,465,0
BRDA:480,0,466,1
BRDA:480,e0,467,0
BRDA:480,0,468,1
BRDA:480,e0,469,0
BRDA:480,0,470,1
BRDA:480,e0,471,0
BRDA:480,0,472,1
BRDA:480,e0,473,0
BRDA:480,0,474,1
BRDA:480,e0,475,0
BRDA:480,0,476,1
BRDA:480,e0,477,0
BRDA:480,0,478,1
BRDA:480,e0,479,0
BRDA:480,0,480,1
BRDA:480,e0,481,0
BRDA:480,0,482,1
BRDA:480,e0,483,0
BRDA:480,0,484,1
BRDA:480,e0,485,0
BRDA:480,0,486,1
BRDA:480,e0,487,0
BRDA:480,0,488,1
BRDA:480,e0,489,0
BRDA:480,0,490,1
BRDA:480,e0,491,0
BRDA:480,0,492,1
BRDA:480,e0,493,0
BRDA:480,0,494,1
BRDA:480,e0,495,0
BRDA:480,0,496,1
BRDA:480,e0,497,0
BRDA:480,0,498,1
BRDA:480,e0,499,0
BRDA:480,0,500,1
BRDA:480,e0,501,0
BRDA:480,0,502,1
BRDA:480,e0,503,0
BRDA:480,0,504,1
BRDA:480,e0,505,0
BRDA:480,0,506,1
BRDA:480,e0,507,0
BRDA:480,0,508,1
BRDA:480,e0,509,0
BRDA:480,0,510,1
BRDA:480,e0,511,0
BRDA:480,0,512,1
BRDA:480,e0,513,0
BRDA:480,0,514,1
BRDA:480,e0,515,0
BRDA:480,0,516,1
BRDA:480,e0,517,0
BRDA:480,0,518,1
BRDA:480,e0,519,0
BRDA:480,0,520,1
BRDA:480,e0,521,0
BRDA:480,0,522,1
BRDA:480,e0,523,0
BRDA:480,0,524,1
BRDA:480,e0,525,0
BRDA:480,0,526,1
BRDA:480,e0,527,0
BRDA:480,0,528,1
BRDA:480,e0,529,0
BRDA:480,0,530,1
BRDA:480,e0,531,0
BRDA:480,0,532,1
BRDA:480,e0,533,0
BRDA:480,0,534,1
BRDA:480,e0,535,0
BRDA:480,0,536,1
BRDA:480,e0,537,0
BRDA:480,0,538,1
BRDA:480,e0,539,0
BRDA:480,0,540,1
BRDA:480,e0,541,0
BRDA:480,0,542,1
BRDA:480,e0,543,0
BRDA:480,0,544,1
BRDA:480,e0,545,0
BRDA:480,0,546,1
BRDA:480,e0,547,0
BRDA:480,0,548,1
BRDA:480,e0,549,0
BRDA:480,0,550,1
BRDA:480,e0,551,0
BRDA:480,0,552,1
BRDA:480,e0,553,0
BRDA:480,0,554,1
BRDA:480,e0,555,0
BRDA:480,0,556,1
BRDA:480,e0,557,0
BRDA:480,0,558,1
BRDA:480,e0,559,0
BRDA:480,0,560,1
BRDA:480,e0,561,0
BRDA:480,0,562,1
BRDA:480,e0,563,0
BRDA:480,0,564,1
BRDA:480,e0,565,0
BRDA:480,0,566,1
BRDA:480,e0,567,0
BRDA:480,0,568,1
BRDA:480,e0,569,0
BRDA:480,0,570,1
BRDA:480,e0,571,0
BRDA:480,0,572,1
BRDA:480,e0,573,0
BRDA:480,0,574,1
BRDA:480,e0,575,0
BRDA:480,0,576,1
BRDA:480,e0,577,0
BRDA:480,0,578,1
BRDA:480,e0,579,0
BRDA:480,0,580,1
BRDA:480,e0,581,0
BRDA:480,0,582,1
BRDA:480,e0,583,0
BRDA:480,0,584,1
BRDA:480,e0,585,0
BRDA:480,0,586,1
BRDA:480,e0,587,0
BRDA:480,0,588,1
BRDA:480,e0,589,0
BRDA:480,0,590,1
BRDA:480,e0,591,0
BRDA:480,0,592,1
BRDA:480,e0,593,0
BRDA:480,0,594,1
BRDA:480,e0,595,0
BRDA:480,0,596,1
BRDA:480,e0,597,0
BRDA:480,0,598,1
BRDA:480,e0,599,0
BRDA:480,0,600,1
BRDA:480,e0,601,0
BRDA:480,0,602,1
BRDA:480,e0,603,0
BRDA:480,0,604,1
BRDA:480,e0,605,0
BRDA:480,0,606,1
BRDA:480,e0,607,0
BRDA:480,0,608,1
BRDA:480,e0,609,0
BRDA:480,0,610,1
BRDA:480,e0,611,0
BRDA:480,0,612,1
BRDA:480,e0,613,0
BRDA:480,0,614,1
BRDA:480,e0,615,0
BRDA:480,0,616,1
BRDA:480,e0,617,0
BRDA:480,0,618,1
BRDA:480,e0,619,0
BRDA:480,0,620,1
BRDA:480,e0,621,0
BRDA:480,0,622,1
BRDA:480,e0,623,0
BRDA:480,0,624,1
BRDA:480,e0,625,0
BRDA:480,0,626,1
BRDA:480,e0,627,0
BRDA:480,0,628,1
BRDA:480,e0,629,0
BRDA:480,0,630,1
BRDA:480,e0,631,0
BRDA:480,0,632,1
BRDA:480,e0,633,0
BRDA:480,0,634,1
BRDA:480,e0,635,0
BRDA:480,0,636,1
BRDA:480,e0,637,0
BRDA:480,0,638,1
BRDA:480,e0,639,0
BRDA:480,0,640,1
BRDA:480,e0,641,0
BRDA:480,0,642,1
BRDA:480,e0,643,0
BRDA:480,0,644,1
BRDA:480,e0,645,0
BRDA:480,0,646,1
BRDA:480,e0,647,0
BRDA:480,0,648,1
BRDA:480,e0,649,0
BRDA:480,0,650,1
BRDA:480,e0,651,0
BRDA:480,0,652,1
BRDA:480,e0,653,0
BRDA:480,0,654,1
BRDA:480,e0,655,0
BRDA:480,0,656,1
BRDA:480,e0,657,0
BRDA:480,0,658,1
BRDA:480,e0,659,0
BRDA:480,0,660,1
BRDA:480,e0,661,0
BRDA:480,0,662,1
BRDA:480,e0,663,0
BRDA:480,0,664,1
BRDA:480,e0,665,0
BRDA:480,0,666,1
BRDA:480,e0,667,0
BRDA:480,0,668,1
BRDA:480,e0,669,0
BRDA:480,0,670,1
BRDA:480,e0,671,0
BRDA:480,0,672,1
BRDA:480,e0,673,0
BRDA:480,0,674,1
BRDA:480,e0,675,0
BRDA:480,0,676,1
BRDA:480,e0,677,0
BRDA:480,0,678,1
BRDA:480,e0,679,0
BRDA:480,0,680,1
BRDA:480,e0,681,0
BRDA:480,0,682,1
BRDA:480,e0,683,0
BRDA:480,0,684,1
BRDA:480,e0,685,0
BRDA:480,0,686,1
BRDA:480,e0,687,0
BRDA:480,0,688,1
BRDA:480,e0,689,0
BRDA:480,0,690,1
BRDA:480,e0,691,0
BRDA:480,0,692,1
BRDA:480,e0,693,0
BRDA:480,0,694,1
BRDA:480,e0,695,0
BRDA:480,0,696,1
BRDA:480,e0,697,0
BRDA:480,0,698,1
BRDA:480,e0,699,0
BRDA:480,0,700,1
BRDA:480,e0,701,0
BRDA:480,0,702,1
BRDA:480,e0,703,0
BRDA:480,0,704,1
BRDA:480,e0,705,0
BRDA:480,0,706,1
BRDA:480,e0,707,0
BRDA:480,0,708,1
BRDA:480,e0,709,0
BRDA:480,0,710,1
BRDA:480,e0,711,0
BRDA:480,0,712,1
BRDA:480,e0,713,0
BRDA:480,0,714,1
BRDA:480,e0,715,0
BRDA:480,0,716,1
BRDA:480,e0,717,0
BRDA:480,0,718,1
BRDA:480,e0,719,0
BRDA:480,0,720,1
BRDA:480,e0,721,0
BRDA:480,0,722,1
BRDA:480,e0,723,0
BRDA:480,0,724,1
BRDA:480,e0,725,0
BRDA:480,0,726,1
BRDA:480,e0,727,0
BRDA:480,0,728,1
BRDA:480,e0,729,0
BRDA:480,0,730,1
BRDA:480,e0,731,0
BRDA:480,0,732,1
BRDA:480,e0,733,0
BRDA:480,0,734,1
BRDA:480,e0,735,0
BRDA:480,0,736,1
BRDA:480,e0,737,0
BRDA:480,0,738,1
BRDA:480,e0,739,0
BRDA:480,0,740,1
BRDA:480,e0,741,0
BRDA:480,0,742,1
BRDA:480,e0,743,0
BRDA:480,0,744,1
BRDA:480,e0,745,0
BRDA:480,0,746,1
BRDA:480,e0,747,0
BRDA:480,0,748,1
BRDA:480,e0,749,0
BRDA:480,0,750,1
BRDA:480,e0,751,0
BRDA:480,0,752,1
BRDA:480,e0,753,0
BRDA:480,0,754,1
BRDA:480,e0,755,0
BRDA:480,0,756,1
BRDA:480,e0,757,0
BRDA:480,0,758,1
BRDA:480,e0,759,0
BRDA:480,0,760,1
BRDA:480,e0,761,0
BRDA:480,0,762,1
BRDA:480,e0,763,0
BRDA:480,0,764,1
BRDA:480,e0,765,0
BRDA:480,0,766,1
BRDA:480,e0,767,0
BRDA:480,0,768,1
BRDA:480,e0,769,0
BRDA:480,0,770,1
BRDA:480,e0,771,0
BRDA:480,0,772,1
BRDA:480,e0,773,0
BRDA:480,0,774,1
BRDA:480,e0,775,0
BRDA:480,0,776,1
BRDA:480,e0,777,0
BRDA:480,0,778,1
BRDA:480,e0,779,0
BRDA:480,0,780,1
BRDA:480,e0,781,0
BRDA:480,0,782,1
BRDA:480,e0,783,0
BRDA:480,0,784,1
BRDA:480,e0,785,0
BRDA:480,0,786,1
BRDA:480,e0,787,0
BRDA:480,0,788,1
BRDA:480,e0,789,0
BRDA:480,0,790,1
BRDA:480,e0,791,0
BRDA:480,0,792,1
BRDA:480,e0,793,0
BRDA:480,0,794,1
BRDA:480,e0,795,0
BRDA:480,0,796,1
BRDA:480,e0,797,0
BRDA:480,0,798,1
BRDA:480,e0,799,0
BRDA:480,0,800,1
BRDA:480,e0,801,0
BRDA:480,0,802,1
BRDA:480,e0,803,0
BRDA:480,0,804,1
BRDA:480,e0,805,0
BRDA:480,0,806,1
BRDA:480,e0,807,0
BRDA:480,0,808,1
BRDA:480,e0,809,0
BRDA:480,0,810,1
BRDA:480,e0,811,0
BRDA:480,0,812,1
BRDA:480,e0,813,0
BRDA:480,0,814,1
BRDA:480,e0,815,0
BRDA:480,0,816,1
BRDA:480,e0,817,0
BRDA:480,0,818,1
BRDA:480,e0,819,0
BRDA:480,0,820,1
BRDA:480,e0,821,0
BRDA:480,0,822,1
BRDA:480,e0,823,0
BRDA:480,0,824,1
BRDA:480,e0,825,0
BRDA:480,0,826,1
BRDA:480,e0,827,0
BRDA:480,0,828,1
BRDA:480,e0,829,0
BRDA:480,0,830,1
BRDA:480,e0,831,0
BRDA:480,0,832,1
BRDA:480,e0,833,0
BRDA:480,0,834,1
BRDA:480,e0,835,0
BRDA:480,0,836,1
BRDA:480,e0,837,0
BRDA:480,0,838,1
BRDA:480,e0,839,0
BRDA:480,0,840,1
BRDA:480,e0,841,0
BRDA:480,0,842,1
BRDA:480,e0,843,0
BRDA:480,0,844,1
BRDA:480,e0,845,0
BRDA:480,0,846,1
BRDA:480,e0,847,0
BRDA:480,0,848,1
BRDA:480,e0,849,0
BRDA:480,0,850,1
BRDA:480,e0,851,0
BRDA:480,0,852,1
BRDA:480,e0,853,0
BRDA:480,0,854,1
BRDA:480,e0,855,0
BRDA:480,0,856,1
BRDA:480,e0,857,0
BRDA:480,0,858,1
BRDA:480,e0,859,0
BRDA:480,0,860,1
BRDA:480,e0,861,0
BRDA:480,0,862,1
BRDA:480,e0,863,0
BRDA:480,0,864,1
BRDA:480,e0,865,0
BRDA:480,0,866,0
BRDA:480,0,867,0
BRDA:480,0,868,0
BRDA:480,0,869,0
BRDA:484,0,0,8
BRDA:484,e0,1,0
BRDA:484,0,2,8
BRDA:484,e0,3,0
BRDA:489,0,0,8
BRDA:489,0,1,0
BRDA:502,0,0,11
BRDA:502,0,1,9
BRDA:502,0,2,11
BRDA:502,0,3,7
BRDA:502,0,4,3
BRDA:502,0,5,7
BRDA:502,0,6,0
BRDA:518,0,0,-
BRDA:518,e0,1,-
BRDA:523,0,0,307
BRDA:523,e0,1,0
BRDA:540,0,0,297
BRDA:540,e0,1,10
BRDA:546,0,0,92
BRDA:546,0,1,23
BRDA:546,0,2,8
BRDA:546,0,3,62
BRDA:546,0,4,324
BRDA:546,0,5,3
BRDA:546,0,6,2
BRDA:546,0,7,356
BRDA:546,0,8,264
BRDA:546,0,9,285
BRDA:546,0,10,0
BRDA:549,0,0,92
BRDA:549,e0,1,0
BRDA:556,0,0,22
BRDA:556,0,1,1
BRDA:556,0,2,22
BRDA:556,0,3,0
BRDA:556,0,4,22
BRDA:556,0,5,0
BRDA:556,0,6,0
BRDA:556,0,7,22
BRDA:556,0,8,1
BRDA:556,0,9,22
BRDA:558,0,0,1
BRDA:558,e0,1,0
BRDA:558,0,2,1
BRDA:558,e0,3,0
BRDA:562,0,0,22
BRDA:562,e0,1,0
BRDA:568,0,0,1
BRDA:568,0,1,7
BRDA:570,0,0,1
BRDA:570,e0,1,0
BRDA:570,0,2,1
BRDA:570,e0,3,0
BRDA:574,0,0,3
BRDA:574,e0,1,4
BRDA:577,0,0,2
BRDA:577,0,1,1
BRDA:580,0,0,2
BRDA:580,e0,1,0
BRDA:581,0,0,2
BRDA:581,e0,1,0
BRDA:589,0,0,1
BRDA:589,0,1,61
BRDA:591,0,0,1
BRDA:591,e0,1,0
BRDA:591,0,2,1
BRDA:591,e0,3,0
BRDA:597,0,0,26
BRDA:597,0,1,35
BRDA:599,0,0,14
BRDA:599,0,1,12
BRDA:602,0,0,14
BRDA:602,e0,1,0
BRDA:604,0,0,4
BRDA:604,0,1,8
BRDA:607,0,0,4
BRDA:607,e0,1,0
BRDA:612,0,0,8
BRDA:612,e0,1,0
BRDA:615,0,0,24
BRDA:615,0,1,11
BRDA:617,0,0,13
BRDA:617,0,1,11
BRDA:620,0,0,13
BRDA:620,e0,1,0
BRDA:625,0,0,11
BRDA:625,e0,1,0
BRDA:628,0,0,11
BRDA:628,0,1,0
BRDA:631,0,0,11
BRDA:631,e0,1,0
BRDA:634,0,0,61
BRDA:634,e0,1,0
BRDA:640,0,0,324
BRDA:640,e0,1,0
BRDA:641,0,0,324
BRDA:641,e0,1,0
BRDA:649,0,0,3
BRDA:649,e0,1,0
BRDA:650,0,0,3
BRDA:650,e0,1,0
BRDA:658,0,0,2
BRDA:658,e0,1,0
BRDA:659,0,0,2
BRDA:659,e0,1,0
BRDA:667,0,0,356
BRDA:667,e0,1,0
BRDA:668,0,0,356
BRDA:668,e0,1,0
BRDA:677,0,0,7
BRDA:677,0,1,95
BRDA:677,0,2,42
BRDA:677,0,3,39
BRDA:677,0,4,35
BRDA:677,0,5,33
BRDA:677,0,6,13
BRDA:677,0,7,0
BRDA:682,0,0,7
BRDA:682,e0,1,0
BRDA:682,0,2,3
BRDA:682,0,3,4
BRDA:682,0,4,3
BRDA:682,e0,5,0
BRDA:682,0,6,1
BRDA:682,0,7,2
BRDA:682,0,8,5
BRDA:682,0,9,2
BRDA:687,0,0,2
BRDA:687,e0,1,0
BRDA:687,0,2,2
BRDA:687,0,3,0
BRDA:687,0,4,2
BRDA:687,e0,5,0
BRDA:687,0,6,1
BRDA:687,0,7,1
BRDA:687,0,8,1
BRDA:687,0,9,1
BRDA:692,0,0,1
BRDA:692,e0,1,0
BRDA:692,0,2,1
BRDA:692,0,3,0
BRDA:692,0,4,1
BRDA:692,e0,5,0
BRDA:692,0,6,1
BRDA:692,0,7,0
BRDA:692,0,8,1
BRDA:692,0,9,0
BRDA:698,0,0,-
BRDA:698,e0,1,-
BRDA:702,0,0,95
BRDA:702,e0,1,0
BRDA:702,0,2,27
BRDA:702,0,3,68
BRDA:707,0,0,68
BRDA:707,e0,1,0
BRDA:707,0,2,52
BRDA:707,0,3,16
BRDA:712,0,0,16
BRDA:712,e0,1,0
BRDA:712,0,2,13
BRDA:712,0,3,3
BRDA:717,0,0,3
BRDA:717,e0,1,0
BRDA:717,0,2,1
BRDA:717,0,3,2
BRDA:722,0,0,2
BRDA:722,e0,1,0
BRDA:722,0,2,1
BRDA:722,0,3,1
BRDA:728,0,0,0
BRDA:728,e0,1,1
BRDA:732,0,0,42
BRDA:732,e0,1,0
BRDA:732,0,2,25
BRDA:732,0,3,17
BRDA:737,0,0,17
BRDA:737,e0,1,0
BRDA:737,0,2,14
BRDA:737,0,3,3
BRDA:742,0,0,3
BRDA:742,e0,1,0
BRDA:742,0,2,1
BRDA:742,0,3,2
BRDA:747,0,0,2
BRDA:747,e0,1,0
BRDA:747,0,2,1
BRDA:747,0,3,1
BRDA:753,0,0,0
BRDA:753,e0,1,1
BRDA:757,0,0,39
BRDA:757,e0,1,0
BRDA:757,0,2,34
BRDA:757,0,3,5
BRDA:762,0,0,5
BRDA:762,e0,1,0
BRDA:762,0,2,4
BRDA:762,0,3,1
BRDA:768,0,0,0
BRDA:768,e0,1,1
BRDA:772,0,0,35
BRDA:772,e0,1,0
BRDA:772,0,2,30
BRDA:772,0,3,5
BRDA:777,0,0,5
BRDA:777,e0,1,0
BRDA:777,0,2,4
BRDA:777,0,3,1
BRDA:783,0,0,0
BRDA:783,e0,1,1
BRDA:787,0,0,33
BRDA:787,e0,1,0
BRDA:787,0,2,2
BRDA:787,0,3,31
BRDA:792,0,0,31
BRDA:792,e0,1,0
BRDA:792,0,2,30
BRDA:792,0,3,1
BRDA:798,0,0,0
BRDA:798,e0,1,1
BRDA:804,0,0,13
BRDA:804,e0,1,0
BRDA:804,0,2,11
BRDA:804,0,3,2
BRDA:809,0,0,2
BRDA:809,e0,1,0
BRDA:809,0,2,2
BRDA:809,0,3,0
BRDA:815,0,0,-
BRDA:815,e0,1,-
BRDA:819,0,0,-
BRDA:819,e0,1,-
BRDA:823,0,0,259
BRDA:823,e0,1,0
BRDA:830,0,0,285
BRDA:830,e0,1,0
BRDA:831,0,0,283
BRDA:831,e0,1,2
BRDA:837,0,0,1122
BRDA:837,e0,1,0
BRDA:843,0,0,377
BRDA:843,0,1,285
BRDA:866,0,0,946
BRDA:866,0,1,377
BRDA:870,0,0,303
BRDA:870,0,1,266
BRDA:870,0,2,173
BRDA:870,0,3,130
BRDA:871,0,0,173
BRDA:871,e0,1,0
BRDA:871,0,2,30
BRDA:871,0,3,143
BRDA:872,0,0,8
BRDA:872,0,1,22
BRDA:873,0,0,569
BRDA:873,0,1,377
BRDA:873,0,2,8
BRDA:873,0,3,0
BRDA:873,0,4,8
BRDA:873,0,5,938
BRDA:880,0,0,119
BRDA:880,0,1,827
BRDA:885,0,0,48
BRDA:885,0,1,779
BRDA:889,0,0,771
BRDA:889,0,1,8
BRDA:890,0,0,1
BRDA:890,0,1,770
BRDA:896,0,0,8
BRDA:896,0,1,938
BRDA:901,0,0,944
BRDA:901,0,1,2
BRDA:902,0,0,30
BRDA:902,0,1,914
BRDA:908,0,0,51
BRDA:908,0,1,895
BRDA:908,0,2,6
BRDA:908,0,3,45
BRDA:914,0,0,919
BRDA:914,0,1,27
BRDA:915,0,0,52
BRDA:915,0,1,867
BRDA:917,0,0,77
BRDA:917,0,1,2
BRDA:917,0,2,62
BRDA:917,0,3,15
BRDA:917,0,4,62
BRDA:917,0,5,17
BRDA:923,0,0,58
BRDA:923,0,1,4
BRDA:924,0,0,62
BRDA:924,0,1,0
BRDA:924,0,2,58
BRDA:924,0,3,0
BRDA:924,0,4,58
BRDA:924,e0,5,0
BRDA:924,0,6,25
BRDA:924,0,7,33
BRDA:924,0,8,29
BRDA:924,0,9,33
BRDA:925,0,0,24
BRDA:925,0,1,1
BRDA:926,0,0,24
BRDA:926,0,1,0
BRDA:934,0,0,50
BRDA:934,0,1,29
BRDA:934,0,2,34
BRDA:934,0,3,16
BRDA:939,0,0,34
BRDA:939,e0,1,0
BRDA:939,0,2,14
BRDA:939,0,3,20
BRDA:940,0,0,34
BRDA:940,0,1,0
BRDA:940,0,2,14
BRDA:940,0,3,0
BRDA:940,0,4,14
BRDA:940,0,5,20
BRDA:941,0,0,14
BRDA:941,0,1,0
BRDA:951,0,0,43
BRDA:951,0,1,334
BRDA:954,0,0,39
BRDA:954,0,1,4
BRDA:957,0,0,94
BRDA:957,0,1,283
BRDA:957,0,2,52
BRDA:957,0,3,42
BRDA:962,0,0,94
BRDA:962,0,1,283
BRDA:962,0,2,42
BRDA:962,0,3,52
BRDA:962,0,4,4
BRDA:962,0,5,38
BRDA:967,0,0,9
BRDA:967,0,1,368
BRDA:973,0,0,9
BRDA:973,e0,1,0
BRDA:975,0,0,27
BRDA:975,0,1,9
BRDA:981,0,0,8
BRDA:981,0,1,369
BRDA:988,0,0,40
BRDA:988,0,1,8
BRDA:990,0,0,8
BRDA:990,0,1,32
BRDA:997,0,0,6
BRDA:997,0,1,371
BRDA:999,0,0,1
BRDA:999,0,1,5
BRDA:1021,0,0,285
BRDA:1021,0,1,1144
BRDA:1029,0,0,105
BRDA:1029,0,1,2
BRDA:1029,0,2,176
BRDA:1029,0,3,2
BRDA:1029,0,4,3
BRDA:1029,0,5,167
BRDA:1029,0,6,244
BRDA:1029,0,7,15
BRDA:1029,0,8,108
BRDA:1029,0,9,92
BRDA:1029,0,10,16
BRDA:1029,0,11,16
BRDA:1029,0,12,52
BRDA:1029,0,13,0
BRDA:1029,0,14,61
BRDA:1029,0,15,39
BRDA:1029,0,16,30
BRDA:1029,0,17,5
BRDA:1029,0,18,9
BRDA:1029,0,19,2
BRDA:1032,0,0,1
BRDA:1032,0,1,104
BRDA:1034,0,0,1
BRDA:1034,e0,1,0
BRDA:1034,0,2,1
BRDA:1034,e0,3,0
BRDA:1037,0,0,1
BRDA:1037,0,1,103
BRDA:1039,0,0,1
BRDA:1039,e0,1,0
BRDA:1039,0,2,1
BRDA:1039,e0,3,0
BRDA:1044,0,0,312
BRDA:1044,e0,1,0
BRDA:1045,0,0,312
BRDA:1045,0,1,0
BRDA:1045,0,2,209
BRDA:1045,0,3,103
BRDA:1045,0,4,209
BRDA:1045,0,5,103
BRDA:1047,0,0,77
BRDA:1047,0,1,26
BRDA:1047,0,2,52
BRDA:1047,0,3,25
BRDA:1047,0,4,11
BRDA:1047,0,5,41
BRDA:1047,0,6,62
BRDA:1047,0,7,41
BRDA:1051,0,0,8
BRDA:1051,0,1,33
BRDA:1056,0,0,8
BRDA:1056,0,1,25
BRDA:1056,0,2,8
BRDA:1056,e0,3,0
BRDA:1056,0,4,4
BRDA:1056,0,5,4
BRDA:1056,0,6,4
BRDA:1056,e0,7,0
BRDA:1056,0,8,3
BRDA:1056,0,9,1
BRDA:1056,0,10,3
BRDA:1056,e0,11,0
BRDA:1056,0,12,3
BRDA:1056,0,13,0
BRDA:1056,0,14,3
BRDA:1056,e0,15,0
BRDA:1056,0,16,2
BRDA:1056,0,17,1
BRDA:1056,0,18,7
BRDA:1056,0,19,26
BRDA:1057,0,0,2
BRDA:1057,e0,1,0
BRDA:1057,0,2,2
BRDA:1057,0,3,0
BRDA:1057,0,4,2
BRDA:1057,e0,5,0
BRDA:1057,0,6,1
BRDA:1057,0,7,1
BRDA:1060,0,0,7
BRDA:1060,e0,1,0
BRDA:1060,0,2,7
BRDA:1060,e0,3,0
BRDA:1065,0,0,23
BRDA:1065,e0,1,3
BRDA:1074,0,0,2
BRDA:1074,e0,1,0
BRDA:1079,0,0,176
BRDA:1079,e0,1,0
BRDA:1079,0,2,176
BRDA:1079,e0,3,0
BRDA:1079,0,4,1
BRDA:1079,0,5,175
BRDA:1081,0,0,1
BRDA:1081,e0,1,0
BRDA:1081,0,2,1
BRDA:1081,e0,3,0
BRDA:1085,0,0,175
BRDA:1085,e0,1,0
BRDA:1092,0,0,2
BRDA:1092,e0,1,0
BRDA:1098,0,0,3
BRDA:1098,e0,1,0
BRDA:1110,0,0,445
BRDA:1110,e0,1,0
BRDA:1112,0,0,136
BRDA:1112,0,1,309
BRDA:1112,0,2,88
BRDA:1112,0,3,221
BRDA:1112,0,4,11
BRDA:1112,0,5,210
BRDA:1112,0,6,43
BRDA:1112,0,7,167
BRDA:1116,0,0,8
BRDA:1116,0,1,159
BRDA:1118,0,0,8
BRDA:1118,e0,1,0
BRDA:1135,0,0,244
BRDA:1135,e0,1,0
BRDA:1137,0,0,199
BRDA:1137,0,1,244
BRDA:1139,0,0,199
BRDA:1139,e0,1,0
BRDA:1148,0,0,15
BRDA:1148,e0,1,0
BRDA:1148,0,2,15
BRDA:1148,e0,3,0
BRDA:1148,0,4,11
BRDA:1148,0,5,4
BRDA:1151,0,0,11
BRDA:1151,e0,1,0
BRDA:1153,0,0,4
BRDA:1153,e0,1,0
BRDA:1153,0,2,4
BRDA:1153,e0,3,0
BRDA:1153,0,4,2
BRDA:1153,0,5,2
BRDA:1156,0,0,2
BRDA:1156,e0,1,0
BRDA:1160,0,0,2
BRDA:1160,e0,1,0
BRDA:1160,0,2,2
BRDA:1160,e0,3,0
BRDA:1170,0,0,109
BRDA:1170,0,1,0
BRDA:1170,0,2,1
BRDA:1170,0,3,108
BRDA:1170,0,4,1
BRDA:1170,0,5,108
BRDA:1172,0,0,1
BRDA:1172,e0,1,0
BRDA:1172,0,2,1
BRDA:1172,e0,3,0
BRDA:1173,0,0,1
BRDA:1173,e0,1,0
BRDA:1179,0,0,107
BRDA:1179,0,1,1
BRDA:1181,0,0,107
BRDA:1181,e0,1,0
BRDA:1181,0,2,107
BRDA:1181,e0,3,0
BRDA:1195,0,0,16
BRDA:1195,e0,1,0
BRDA:1201,0,0,16
BRDA:1201,e0,1,0
BRDA:1207,0,0,52
BRDA:1207,e0,1,0
BRDA:1213,0,0,-
BRDA:1213,e0,1,-
BRDA:1219,0,0,61
BRDA:1219,e0,1,0
BRDA:1225,0,0,39
BRDA:1225,e0,1,0
BRDA:1231,0,0,30
BRDA:1231,e0,1,0
BRDA:1237,0,0,5
BRDA:1237,e0,1,0
BRDA:1242,0,0,9
BRDA:1242,e0,1,0
BRDA:1245,0,0,1
BRDA:1245,0,1,8
BRDA:1245,0,2,1
BRDA:1245,0,3,0
BRDA:1247,0,0,9
BRDA:1247,e0,1,0
BRDA:1254,0,0,2
BRDA:1254,e0,1,0
BRDA:1254,0,2,2
BRDA:1254,e0,3,0
BRDA:1262,0,0,1
BRDA:1262,0,1,284
BRDA:1264,0,0,1
BRDA:1264,e0,1,0
BRDA:1264,0,2,1
BRDA:1264,e0,3,0
BRDA:1267,0,0,32
BRDA:1267,0,1,252
BRDA:1269,0,0,26
BRDA:1269,0,1,6
BRDA:1269,0,2,26
BRDA:1269,0,3,0
BRDA:1269,0,4,1
BRDA:1269,0,5,25
BRDA:1269,0,6,1
BRDA:1269,0,7,31
BRDA:1271,0,0,1
BRDA:1271,e0,1,0
BRDA:1271,0,2,1
BRDA:1271,e0,3,0
BRDA:1280,0,0,356
BRDA:1280,e0,1,0
BRDA:1280,0,2,175
BRDA:1280,0,3,181
BRDA:1285,0,0,181
BRDA:1285,e0,1,0
BRDA:1285,0,2,5
BRDA:1285,0,3,176
BRDA:1290,0,0,48
BRDA:1290,0,1,128
BRDA:1294,0,0,9
BRDA:1294,0,1,119
BRDA:1296,0,0,8
BRDA:1296,0,1,1
BRDA:1305,0,0,8
BRDA:1305,0,1,159
BRDA:1312,0,0,453
BRDA:1312,0,1,167
BRDA:1316,0,0,171
BRDA:1316,0,1,282
BRDA:1320,0,0,153
BRDA:1320,0,1,129
BRDA:1324,0,0,30
BRDA:1324,0,1,99
BRDA:1328,0,0,43
BRDA:1328,0,1,56
BRDA:1330,0,0,43
BRDA:1330,e0,1,0
BRDA:1334,0,0,43
BRDA:1334,0,1,124
BRDA:1338,0,0,43
BRDA:1338,0,1,1
BRDA:1338,0,2,1
BRDA:1338,0,3,42
BRDA:1338,0,4,1
BRDA:1338,0,5,43
BRDA:1353,0,0,4
BRDA:1353,0,1,6
BRDA:1353,0,2,9
BRDA:1353,0,3,2
BRDA:1353,0,4,2
BRDA:1353,0,5,2
BRDA:1353,0,6,21
BRDA:1353,0,7,2
BRDA:1356,0,0,2
BRDA:1356,0,1,2
BRDA:1356,0,2,0
BRDA:1356,0,3,2
BRDA:1356,0,4,2
BRDA:1356,0,5,2
BRDA:1360,0,0,2
BRDA:1360,e0,1,0
BRDA:1360,0,2,2
BRDA:1360,e0,3,0
BRDA:1360,0,4,0
BRDA:1360,0,5,2
BRDA:1360,0,6,0
BRDA:1360,e0,7,0
BRDA:1360,0,8,0
BRDA:1360,e0,9,0
BRDA:1360,0,10,0
BRDA:1360,0,11,0
BRDA:1360,0,12,0
BRDA:1360,0,13,2
BRDA:1360,0,14,2
BRDA:1360,0,15,0
BRDA:1360,0,16,2
BRDA:1360,0,17,0
BRDA:1360,0,18,0
BRDA:1360,0,19,0
BRDA:1360,0,20,0
BRDA:1360,0,21,0
BRDA:1363,0,0,2
BRDA:1363,e0,1,0
BRDA:1363,0,2,2
BRDA:1363,e0,3,0
BRDA:1363,0,4,2
BRDA:1363,0,5,0
BRDA:1363,0,6,2
BRDA:1363,0,7,0
BRDA:1363,0,8,2
BRDA:1363,0,9,0
BRDA:1363,0,10,2
BRDA:1363,0,11,0
BRDA:1363,0,12,2
BRDA:1363,0,13,0
BRDA:1363,0,14,0
BRDA:1363,0,15,0
BRDA:1373,0,0,2
BRDA:1373,0,1,4
BRDA:1373,0,2,0
BRDA:1373,0,3,2
BRDA:1373,0,4,4
BRDA:1373,0,5,2
BRDA:1377,0,0,0
BRDA:1377,0,1,2
BRDA:1377,0,2,0
BRDA:1377,0,3,0
BRDA:1377,0,4,2
BRDA:1377,0,5,0
BRDA:1386,0,0,0
BRDA:1386,0,1,9
BRDA:1386,0,2,0
BRDA:1386,0,3,0
BRDA:1386,0,4,9
BRDA:1386,0,5,0
BRDA:1395,0,0,0
BRDA:1395,0,1,2
BRDA:1395,0,2,0
BRDA:1395,0,3,0
BRDA:1395,0,4,2
BRDA:1395,0,5,0
BRDA:1404,0,0,0
BRDA:1404,0,1,2
BRDA:1404,0,2,0
BRDA:1404,0,3,0
BRDA:1404,0,4,2
BRDA:1404,0,5,0
BRDA:1413,0,0,0
BRDA:1413,0,1,2
BRDA:1413,0,2,0
BRDA:1413,0,3,0
BRDA:1413,0,4,2
BRDA:1413,0,5,0
BRDA:1422,0,0,1
BRDA:1422,0,1,20
BRDA:1422,0,2,0
BRDA:1422,0,3,1
BRDA:1422,0,4,20
BRDA:1422,0,5,1
BRDA:1441,0,0,7
BRDA:1441,0,1,0
BRDA:1441,0,2,7
BRDA:1441,0,3,0
BRDA:1441,0,4,1
BRDA:1441,0,5,6
BRDA:1441,0,6,1
BRDA:1441,0,7,6
BRDA:1443,0,0,1
BRDA:1443,e0,1,0
BRDA:1443,0,2,1
BRDA:1443,e0,3,0
BRDA:1448,0,0,2
BRDA:1448,0,1,4
BRDA:1450,0,0,2
BRDA:1450,e0,1,0
BRDA:1453,0,0,6
BRDA:1453,e0,1,0
BRDA:1455,0,0,1
BRDA:1455,0,1,5
BRDA:1457,0,0,1
BRDA:1457,e0,1,0
BRDA:1457,0,2,1
BRDA:1457,e0,3,0
BRDA:1460,0,0,15
BRDA:1460,0,1,4
BRDA:1462,0,0,1
BRDA:1462,0,1,14
BRDA:1462,0,2,1
BRDA:1462,0,3,0
BRDA:1462,0,4,0
BRDA:1462,0,5,15
BRDA:1462,0,6,0
BRDA:1462,0,7,0
BRDA:1462,0,8,15
BRDA:1462,0,9,0
BRDA:1462,0,10,1
BRDA:1462,0,11,14
BRDA:1464,0,0,1
BRDA:1464,e0,1,0
BRDA:1464,0,2,1
BRDA:1464,e0,3,0
BRDA:1469,0,0,4
BRDA:1469,e0,1,0
BRDA:1469,0,2,0
BRDA:1469,0,3,4
BRDA:1471,0,0,-
BRDA:1471,e0,1,-
BRDA:1471,0,2,-
BRDA:1471,e0,3,-
BRDA:1475,0,0,4
BRDA:1475,e0,1,0
BRDA:1475,0,2,1195
BRDA:1475,0,3,1
BRDA:1477,0,0,3
BRDA:1477,0,1,1192
BRDA:1482,0,0,1
BRDA:1482,0,1,3
BRDA:1484,0,0,1
BRDA:1484,e0,1,0
BRDA:1484,0,2,1
BRDA:1484,e0,3,0
BRDA:1490,0,0,279
BRDA:1490,e0,1,24
BRDA:1491,0,0,279
BRDA:1491,e0,1,0
BRDA:1496,0,0,29
BRDA:1496,0,1,166
BRDA:1498,0,0,9
BRDA:1498,0,1,20
BRDA:1503,0,0,1
BRDA:1503,0,1,19
BRDA:1505,0,0,1
BRDA:1505,e0,1,0
BRDA:1508,0,0,19
BRDA:1508,0,1,0
BRDA:1508,0,2,9
BRDA:1508,0,3,10
BRDA:1508,0,4,9
BRDA:1508,0,5,10
BRDA:1513,0,0,1
BRDA:1513,0,1,9
BRDA:1515,0,0,1
BRDA:1515,e0,1,0
BRDA:1524,0,0,149
BRDA:1524,0,1,17
BRDA:1529,0,0,14
BRDA:1529,0,1,3
BRDA:1531,0,0,9
BRDA:1531,0,1,5
BRDA:1543,0,0,1
BRDA:1543,0,1,2
BRDA:1547,0,0,1
BRDA:1547,0,1,1
BRDA:1560,0,0,81
BRDA:1560,0,1,3
BRDA:1566,0,0,81
BRDA:1566,e0,1,0
BRDA:1567,0,0,81
BRDA:1567,e0,1,0
BRDA:1577,0,0,84
BRDA:1577,0,1,46
BRDA:1578,0,0,3
BRDA:1578,0,1,81
BRDA:1580,0,0,49
BRDA:1580,e0,1,0
BRDA:1583,0,0,9
BRDA:1583,0,1,72
BRDA:1588,0,0,1
BRDA:1588,0,1,80
BRDA:1595,0,0,50
BRDA:1595,0,1,31
BRDA:1596,0,0,30
BRDA:1596,0,1,20
BRDA:1597,0,0,6
BRDA:1597,0,1,24
BRDA:1600,0,0,57
BRDA:1600,e0,1,0
BRDA:1602,0,0,1
BRDA:1602,0,1,56
BRDA:1605,0,0,1
BRDA:1605,e0,1,0
BRDA:1608,0,0,20
BRDA:1608,0,1,37
BRDA:1610,0,0,20
BRDA:1610,e0,1,0
BRDA:1613,0,0,76
BRDA:1613,0,1,20
BRDA:1615,0,0,76
BRDA:1615,e0,1,0
BRDA:1617,0,0,14
BRDA:1617,0,1,62
BRDA:1619,0,0,14
BRDA:1619,e0,1,0
BRDA:1623,0,0,20
BRDA:1623,e0,1,0
BRDA:1626,0,0,6
BRDA:1626,0,1,51
BRDA:1626,0,2,3
BRDA:1626,0,3,3
BRDA:1628,0,0,3
BRDA:1628,e0,1,0
BRDA:1631,0,0,24
BRDA:1631,0,1,0
BRDA:1636,0,0,24
BRDA:1636,e0,1,0
BRDA:1637,0,0,24
BRDA:1637,e0,1,0
BRDA:1640,0,0,10
BRDA:1640,0,1,16
BRDA:1640,0,2,2
BRDA:1640,0,3,8
BRDA:1640,0,4,2
BRDA:1640,0,5,24
BRDA:1646,0,0,2
BRDA:1646,0,1,22
BRDA:1649,0,0,2
BRDA:1649,e0,1,0
BRDA:1652,0,0,3
BRDA:1652,0,1,21
BRDA:1654,0,0,3
BRDA:1654,e0,1,0
BRDA:1666,0,0,5
BRDA:1666,0,1,2
BRDA:1670,0,0,2
BRDA:1670,0,1,3
BRDA:1684,0,0,2
BRDA:1684,0,1,5
BRDA:1688,0,0,7
BRDA:1688,e0,1,0
BRDA:1691,0,0,7
BRDA:1691,e0,1,0
BRDA:1692,0,0,7
BRDA:1692,e0,1,0
BRDA:1693,0,0,7
BRDA:1693,e0,1,0
BRDA:1695,0,0,6
BRDA:1695,0,1,1
BRDA:1697,0,0,6
BRDA:1697,e0,1,0
BRDA:1701,0,0,1
BRDA:1701,e0,1,0
BRDA:1704,0,0,7
BRDA:1704,e0,1,0
BRDA:1704,0,2,7
BRDA:1704,e0,3,0
BRDA:1715,0,0,16
BRDA:1715,0,1,0
BRDA:1715,0,2,12
BRDA:1715,0,3,4
BRDA:1715,0,4,12
BRDA:1715,0,5,4
BRDA:1729,0,0,198
BRDA:1729,0,1,4
BRDA:1735,0,0,30
BRDA:1735,0,1,168
BRDA:1743,0,0,4
BRDA:1743,e0,1,0
BRDA:1743,0,2,4
BRDA:1743,e0,3,0
BRDA:1743,0,4,4
BRDA:1743,e0,5,0
BRDA:1743,0,6,4
BRDA:1743,e0,7,0
BRDA:1749,0,0,2
BRDA:1749,0,1,191
BRDA:1749,0,2,2
BRDA:1749,0,3,0
BRDA:1749,0,4,24
BRDA:1749,e0,5,0
BRDA:1749,0,6,24
BRDA:1749,0,7,2
BRDA:1749,0,8,2
BRDA:1749,e0,9,0
BRDA:1749,0,10,24
BRDA:1749,0,11,2
BRDA:1749,0,12,0
BRDA:1749,0,13,0
BRDA:1749,0,14,0
BRDA:1749,0,15,0
BRDA:1749,0,16,0
BRDA:1749,0,17,0
BRDA:1749,0,18,0
BRDA:1749,0,19,0
BRDA:1752,0,0,2
BRDA:1752,0,1,191
BRDA:1752,0,2,2
BRDA:1752,0,3,0
BRDA:1752,0,4,14
BRDA:1752,e0,5,0
BRDA:1752,0,6,14
BRDA:1752,0,7,2
BRDA:1752,0,8,2
BRDA:1752,e0,9,0
BRDA:1752,0,10,14
BRDA:1752,0,11,2
BRDA:1752,0,12,0
BRDA:1752,0,13,0
BRDA:1752,0,14,0
BRDA:1752,0,15,0
BRDA:1752,0,16,0
BRDA:1752,0,17,0
BRDA:1752,0,18,0
BRDA:1752,0,19,0
BRDA:1756,0,0,33
BRDA:1756,0,1,160
BRDA:1758,0,0,33
BRDA:1758,e0,1,0
BRDA:1760,0,0,17
BRDA:1760,0,1,16
BRDA:1762,0,0,17
BRDA:1762,e0,1,0
BRDA:1768,0,0,176
BRDA:1768,e0,1,0
BRDA:1771,0,0,62
BRDA:1771,0,1,114
BRDA:1773,0,0,45
BRDA:1773,0,1,17
BRDA:1775,0,0,45
BRDA:1775,e0,1,0
BRDA:1778,0,0,62
BRDA:1778,e0,1,0
BRDA:1780,0,0,9
BRDA:1780,0,1,53
BRDA:1784,0,0,2
BRDA:1784,0,1,7
BRDA:1796,0,0,441
BRDA:1796,0,1,176
BRDA:1800,0,0,2
BRDA:1800,0,1,145
BRDA:1800,0,2,3
BRDA:1800,0,3,143
BRDA:1800,0,4,13
BRDA:1800,0,5,8
BRDA:1800,0,6,7
BRDA:1800,0,7,1
BRDA:1800,0,8,11
BRDA:1800,0,9,7
BRDA:1800,0,10,18
BRDA:1800,0,11,2
BRDA:1800,0,12,18
BRDA:1800,0,13,4
BRDA:1800,0,14,4
BRDA:1800,0,15,20
BRDA:1800,0,16,1
BRDA:1800,0,17,1
BRDA:1800,0,18,14
BRDA:1800,0,19,3
BRDA:1800,0,20,7
BRDA:1800,0,21,2
BRDA:1800,0,22,2
BRDA:1800,0,23,1
BRDA:1800,0,24,1
BRDA:1800,0,25,1
BRDA:1800,0,26,1
BRDA:1800,0,27,1
BRDA:1800,0,28,0
BRDA:1803,0,0,2
BRDA:1803,e0,1,0
BRDA:1808,0,0,145
BRDA:1808,e0,1,0
BRDA:1815,0,0,3
BRDA:1815,e0,1,0
BRDA:1820,0,0,24
BRDA:1820,0,1,119
BRDA:1821,0,0,20
BRDA:1821,0,1,4
BRDA:1821,0,2,0
BRDA:1821,0,3,20
BRDA:1826,0,0,4
BRDA:1826,e0,1,0
BRDA:1828,0,0,4
BRDA:1828,e0,1,0
BRDA:1828,0,2,4
BRDA:1828,e0,3,0
BRDA:1832,0,0,6
BRDA:1832,0,1,133
BRDA:1837,0,0,6
BRDA:1837,0,1,133
BRDA:1841,0,0,2
BRDA:1841,0,1,4
BRDA:1847,0,0,4
BRDA:1847,e0,1,0
BRDA:1848,0,0,4
BRDA:1848,e0,1,0
BRDA:1850,0,0,7
BRDA:1850,0,1,126
BRDA:1851,0,0,7
BRDA:1851,0,1,0
BRDA:1857,0,0,7
BRDA:1857,e0,1,0
BRDA:1857,0,2,7
BRDA:1857,e0,3,0
BRDA:1861,0,0,126
BRDA:1861,e0,1,0
BRDA:1861,0,2,126
BRDA:1861,e0,3,0
BRDA:1868,0,0,13
BRDA:1868,e0,1,0
BRDA:1868,0,2,13
BRDA:1868,e0,3,0
BRDA:1873,0,0,8
BRDA:1873,e0,1,0
BRDA:1873,0,2,3
BRDA:1873,0,3,5
BRDA:1875,0,0,3
BRDA:1875,e0,1,0
BRDA:1878,0,0,8
BRDA:1878,e0,1,0
BRDA:1878,0,2,8
BRDA:1878,e0,3,0
BRDA:1883,0,0,7
BRDA:1883,e0,1,0
BRDA:1883,0,2,7
BRDA:1883,e0,3,0
BRDA:1883,0,4,7
BRDA:1883,e0,5,0
BRDA:1883,0,6,7
BRDA:1883,e0,7,0
BRDA:1888,0,0,1
BRDA:1888,e0,1,0
BRDA:1888,0,2,1
BRDA:1888,e0,3,0
BRDA:1888,0,4,1
BRDA:1888,e0,5,0
BRDA:1893,0,0,11
BRDA:1893,e0,1,0
BRDA:1893,0,2,11
BRDA:1893,e0,3,0
BRDA:1898,0,0,7
BRDA:1898,e0,1,0
BRDA:1898,0,2,7
BRDA:1898,0,3,0
BRDA:1900,0,0,7
BRDA:1900,e0,1,0
BRDA:1903,0,0,7
BRDA:1903,e0,1,0
BRDA:1903,0,2,7
BRDA:1903,e0,3,0
BRDA:1908,0,0,18
BRDA:1908,e0,1,0
BRDA:1908,0,2,8
BRDA:1908,0,3,10
BRDA:1910,0,0,8
BRDA:1910,e0,1,0
BRDA:1913,0,0,18
BRDA:1913,e0,1,0
BRDA:1913,0,2,18
BRDA:1913,e0,3,0
BRDA:1918,0,0,2
BRDA:1918,e0,1,0
BRDA:1918,0,2,2
BRDA:1918,e0,3,0
BRDA:1923,0,0,18
BRDA:1923,e0,1,0
BRDA:1923,0,2,18
BRDA:1923,e0,3,0
BRDA:1928,0,0,3
BRDA:1928,0,1,1
BRDA:1930,0,0,3
BRDA:1930,e0,1,0
BRDA:1933,0,0,4
BRDA:1933,e0,1,0
BRDA:1933,0,2,4
BRDA:1933,e0,3,0
BRDA:1938,0,0,4
BRDA:1938,e0,1,0
BRDA:1938,0,2,4
BRDA:1938,e0,3,0
BRDA:1943,0,0,20
BRDA:1943,e0,1,0
BRDA:1943,0,2,9
BRDA:1943,0,3,11
BRDA:1945,0,0,9
BRDA:1945,e0,1,0
BRDA:1948,0,0,20
BRDA:1948,e0,1,0
BRDA:1948,0,2,20
BRDA:1948,e0,3,0
BRDA:1953,0,0,1
BRDA:1953,e0,1,0
BRDA:1953,0,2,1
BRDA:1953,e0,3,0
BRDA:1953,0,4,0
BRDA:1953,0,5,1
BRDA:1953,0,6,1
BRDA:1953,e0,7,0
BRDA:1958,0,0,1
BRDA:1958,e0,1,0
BRDA:1958,0,2,1
BRDA:1958,e0,3,0
BRDA:1963,0,0,14
BRDA:1963,e0,1,0
BRDA:1963,0,2,14
BRDA:1963,e0,3,0
BRDA:1963,0,4,4
BRDA:1963,0,5,10
BRDA:1963,0,6,7
BRDA:1963,0,7,7
BRDA:1965,0,0,7
BRDA:1965,e0,1,0
BRDA:1968,0,0,14
BRDA:1968,e0,1,0
BRDA:1968,0,2,14
BRDA:1968,e0,3,0
BRDA:1968,0,4,4
BRDA:1968,0,5,10
BRDA:1968,0,6,14
BRDA:1968,e0,7,0
BRDA:1973,0,0,3
BRDA:1973,e0,1,0
BRDA:1973,0,2,2
BRDA:1973,0,3,1
BRDA:1975,0,0,2
BRDA:1975,e0,1,0
BRDA:1978,0,0,3
BRDA:1978,e0,1,0
BRDA:1978,0,2,3
BRDA:1978,e0,3,0
BRDA:1983,0,0,7
BRDA:1983,e0,1,0
BRDA:1983,0,2,5
BRDA:1983,0,3,2
BRDA:1985,0,0,5
BRDA:1985,e0,1,0
BRDA:1989,0,0,2
BRDA:1989,e0,1,0
BRDA:1996,0,0,2
BRDA:1996,e0,1,0
BRDA:1996,0,2,1
BRDA:1996,0,3,1
BRDA:1998,0,0,1
BRDA:1998,e0,1,0
BRDA:2002,0,0,1
BRDA:2002,e0,1,0
BRDA:2009,0,0,2
BRDA:2009,e0,1,0
BRDA:2009,0,2,2
BRDA:2009,e0,3,0
BRDA:2009,0,4,2
BRDA:2009,e0,5,0
BRDA:2014,0,0,1
BRDA:2014,e0,1,0
BRDA:2015,0,0,1
BRDA:2015,e0,1,0
BRDA:2015,0,2,1
BRDA:2015,e0,3,0
BRDA:2015,0,4,1
BRDA:2015,e0,5,0
BRDA:2020,0,0,1
BRDA:2020,e0,1,0
BRDA:2021,0,0,1
BRDA:2021,e0,1,0
BRDA:2021,0,2,1
BRDA:2021,e0,3,0
BRDA:2021,0,4,1
BRDA:2021,e0,5,0
BRDA:2021,0,6,1
BRDA:2021,e0,7,0
BRDA:2026,0,0,1
BRDA:2026,e0,1,0
BRDA:2026,0,2,1
BRDA:2026,e0,3,0
BRDA:2026,0,4,1
BRDA:2026,e0,5,0
BRDA:2026,0,6,1
BRDA:2026,e0,7,0
BRDA:2031,0,0,1
BRDA:2031,e0,1,0
BRDA:2033,0,0,1
BRDA:2033,0,1,0
BRDA:2035,0,0,1
BRDA:2035,e0,1,0
BRDA:2035,0,2,1
BRDA:2035,e0,3,0
BRDA:2035,0,4,1
BRDA:2035,e0,5,0
BRDA:2041,0,0,1
BRDA:2041,e0,1,0
BRDA:2043,0,0,1
BRDA:2043,0,1,0
BRDA:2045,0,0,1
BRDA:2045,e0,1,0
BRDA:2045,0,2,1
BRDA:2045,e0,3,0
BRDA:2054,0,0,3
BRDA:2054,0,1,173
BRDA:2054,0,2,3
BRDA:2054,0,3,0
BRDA:2054,0,4,3
BRDA:2054,0,5,173
BRDA:2058,0,0,3
BRDA:2058,e0,1,0
BRDA:2061,0,0,3
BRDA:2061,e0,1,0
BRDA:2061,0,2,3
BRDA:2061,e0,3,0
BRDA:2061,0,4,3
BRDA:2061,e0,5,0
BRDA:2061,0,6,3
BRDA:2061,e0,7,0
BRDA:2072,0,0,87
BRDA:2072,0,1,84
BRDA:2074,0,0,3
BRDA:2074,0,1,84
BRDA:2076,0,0,3
BRDA:2076,e0,1,0
BRDA:2079,0,0,82
BRDA:2079,0,1,2
BRDA:2081,0,0,1
BRDA:2081,0,1,81
BRDA:2082,0,0,1
BRDA:2082,0,1,0
BRDA:2084,0,0,82
BRDA:2084,e0,1,0
BRDA:2090,0,0,84
BRDA:2090,0,1,0
BRDA:2090,0,2,1
BRDA:2090,0,3,83
BRDA:2090,0,4,1
BRDA:2090,0,5,83
BRDA:2092,0,0,1
BRDA:2092,e0,1,0
BRF:2133
BRH:1294
DA:41,4
DA:45,0
DA:46,0
DA:47,0
DA:48,0
DA:49,0
DA:50,0
DA:51,0
DA:52,0
DA:53,0
DA:54,0
DA:55,0
DA:56,0
DA:57,0
DA:58,0
DA:59,0
DA:60,0
DA:61,0
DA:62,0
DA:63,0
DA:64,0
DA:65,0
DA:66,0
DA:67,0
DA:68,0
DA:69,0
DA:70,0
DA:71,0
DA:72,0
DA:73,0
DA:74,0
DA:75,0
DA:76,0
DA:77,0
DA:78,0
DA:79,0
DA:80,0
DA:81,0
DA:82,0
DA:83,0
DA:84,0
DA:85,0
DA:86,0
DA:87,0
DA:88,0
DA:89,0
DA:90,0
DA:91,0
DA:92,0
DA:93,0
DA:94,0
DA:95,0
DA:96,0
DA:97,0
DA:98,0
DA:99,0
DA:100,0
DA:101,0
DA:102,0
DA:103,0
DA:104,0
DA:105,0
DA:106,0
DA:107,0
DA:108,0
DA:109,0
DA:110,0
DA:111,0
DA:112,0
DA:113,0
DA:114,0
DA:115,0
DA:116,0
DA:117,0
DA:118,0
DA:119,0
DA:120,0
DA:121,0
DA:122,0
DA:123,0
DA:124,0
DA:125,0
DA:126,0
DA:127,0
DA:128,0
DA:129,0
DA:130,0
DA:131,0
DA:132,0
DA:133,0
DA:134,0
DA:135,0
DA:136,0
DA:137,0
DA:138,0
DA:139,0
DA:140,0
DA:141,0
DA:142,0
DA:143,0
DA:144,0
DA:145,0
DA:146,0
DA:147,0
DA:148,0
DA:149,0
DA:150,0
DA:151,0
DA:152,0
DA:153,0
DA:154,0
DA:155,0
DA:156,0
DA:157,0
DA:158,0
DA:159,0
DA:160,0
DA:161,0
DA:162,0
DA:163,0
DA:164,0
DA:165,0
DA:166,0
DA:167,0
DA:168,0
DA:169,0
DA:170,0
DA:171,0
DA:172,0
DA:477,438
DA:479,4
DA:480,2
DA:482,8
DA:484,24
DA:487,8
DA:489,8
DA:491,8
DA:493,0
DA:500,48
DA:502,48
DA:504,11
DA:505,11
DA:506,9
DA:507,9
DA:508,11
DA:509,11
DA:510,7
DA:511,7
DA:512,3
DA:513,3
DA:514,7
DA:515,7
DA:518,0
DA:521,307
DA:523,307
DA:524,307
DA:526,283
DA:528,283
DA:531,307
DA:533,307
DA:534,307
DA:535,307
DA:536,307
DA:538,307
DA:540,307
DA:541,297
DA:542,297
DA:546,1419
DA:548,92
DA:549,92
DA:550,92
DA:552,92
DA:555,23
DA:556,23
DA:558,3
DA:561,22
DA:562,22
DA:564,22
DA:567,8
DA:568,8
DA:570,3
DA:573,7
DA:574,7
DA:575,3
DA:577,3
DA:579,2
DA:580,2
DA:581,2
DA:582,2
DA:585,3
DA:586,3
DA:588,62
DA:589,62
DA:591,3
DA:594,61
DA:595,61
DA:597,61
DA:599,26
DA:601,14
DA:602,14
DA:604,12
DA:606,4
DA:607,4
DA:611,8
DA:612,8
DA:615,35
DA:617,24
DA:619,13
DA:620,13
DA:624,11
DA:625,11
DA:628,11
DA:630,11
DA:631,11
DA:634,61
DA:635,61
DA:636,61
DA:638,324
DA:639,324
DA:640,324
DA:641,324
DA:642,324
DA:644,324
DA:647,3
DA:648,3
DA:649,3
DA:650,3
DA:651,3
DA:653,3
DA:656,2
DA:657,2
DA:658,2
DA:659,2
DA:660,2
DA:662,2
DA:665,356
DA:666,356
DA:667,356
DA:668,356
DA:669,356
DA:671,356
DA:674,264
DA:675,264
DA:677,264
DA:679,7
DA:680,7
DA:682,7
DA:684,5
DA:685,5
DA:687,2
DA:689,1
DA:690,1
DA:692,1
DA:694,1
DA:695,1
DA:698,0
DA:699,0
DA:701,95
DA:702,95
DA:704,27
DA:705,27
DA:707,68
DA:709,52
DA:710,52
DA:712,16
DA:714,13
DA:715,13
DA:717,3
DA:719,1
DA:720,1
DA:722,2
DA:724,1
DA:725,1
DA:728,1
DA:729,0
DA:731,42
DA:732,42
DA:734,25
DA:735,25
DA:737,17
DA:739,14
DA:740,14
DA:742,3
DA:744,1
DA:745,1
DA:747,2
DA:749,1
DA:750,1
DA:753,1
DA:754,0
DA:756,39
DA:757,39
DA:759,34
DA:760,34
DA:762,5
DA:764,4
DA:765,4
DA:768,1
DA:769,0
DA:771,35
DA:772,35
DA:774,30
DA:775,30
DA:777,5
DA:779,4
DA:780,4
DA:783,1
DA:784,0
DA:786,33
DA:787,33
DA:789,2
DA:790,2
DA:792,31
DA:794,30
DA:795,30
DA:798,1
DA:799,0
DA:801,13
DA:802,13
DA:804,13
DA:806,11
DA:807,11
DA:809,2
DA:811,2
DA:812,2
DA:815,0
DA:816,0
DA:818,0
DA:819,0
DA:820,0
DA:823,259
DA:824,259
DA:826,259
DA:829,285
DA:830,285
DA:831,285
DA:833,566
DA:837,1122
DA:838,1122
DA:839,325
DA:841,285
DA:843,662
DA:845,377
DA:846,377
DA:847,377
DA:849,377
DA:850,377
DA:851,377
DA:853,377
DA:855,377
DA:856,377
DA:858,377
DA:859,377
DA:860,377
DA:862,377
DA:863,377
DA:864,377
DA:866,1323
DA:868,946
DA:870,569
DA:871,173
DA:872,30
DA:873,1515
DA:875,8
DA:876,8
DA:877,8
DA:880,946
DA:882,119
DA:883,119
DA:885,827
DA:887,48
DA:889,779
DA:890,771
DA:892,9
DA:893,9
DA:896,946
DA:898,8
DA:901,946
DA:902,944
DA:904,32
DA:905,32
DA:908,946
DA:910,6
DA:914,946
DA:915,919
DA:917,79
DA:919,62
DA:920,62
DA:922,124
DA:923,62
DA:924,149
DA:925,25
DA:926,24
DA:928,29
DA:929,29
DA:930,29
DA:934,79
DA:936,34
DA:937,34
DA:939,34
DA:940,82
DA:941,14
DA:943,14
DA:944,14
DA:945,14
DA:951,377
DA:953,43
DA:954,43
DA:957,377
DA:959,52
DA:962,377
DA:964,4
DA:967,377
DA:969,9
DA:970,9
DA:971,9
DA:972,9
DA:973,9
DA:975,36
DA:977,27
DA:981,377
DA:983,8
DA:985,8
DA:988,48
DA:990,40
DA:992,8
DA:997,377
DA:999,6
DA:1001,1
DA:1005,5
DA:1010,285
DA:1011,283
DA:1013,1429
DA:1015,1429
DA:1017,443
DA:1018,443
DA:1021,1429
DA:1023,285
DA:1024,285
DA:1027,1144
DA:1029,1144
DA:1031,105
DA:1032,105
DA:1034,3
DA:1037,104
DA:1039,3
DA:1044,312
DA:1045,312
DA:1047,103
DA:1049,62
DA:1051,41
DA:1053,8
DA:1055,33
DA:1056,35
DA:1057,2
DA:1059,7
DA:1060,7
DA:1064,26
DA:1065,26
DA:1068,100
DA:1070,100
DA:1072,2
DA:1073,2
DA:1074,2
DA:1076,2
DA:1078,176
DA:1079,176
DA:1081,3
DA:1084,175
DA:1085,175
DA:1086,175
DA:1088,175
DA:1090,2
DA:1091,2
DA:1092,2
DA:1094,2
DA:1096,3
DA:1097,3
DA:1098,3
DA:1100,3
DA:1102,167
DA:1106,167
DA:1110,445
DA:1111,445
DA:1112,445
DA:1114,167
DA:1116,167
DA:1118,8
DA:1119,8
DA:1122,167
DA:1124,244
DA:1134,244
DA:1135,244
DA:1137,443
DA:1139,199
DA:1140,199
DA:1143,244
DA:1145,15
DA:1146,15
DA:1148,15
DA:1150,11
DA:1151,11
DA:1153,4
DA:1155,2
DA:1156,2
DA:1160,6
DA:1163,13
DA:1165,108
DA:1166,108
DA:1167,108
DA:1168,108
DA:1170,109
DA:1172,1
DA:1173,1
DA:1174,1
DA:1175,1
DA:1176,1
DA:1179,108
DA:1181,107
DA:1184,108
DA:1186,108
DA:1189,92
DA:1190,92
DA:1191,92
DA:1193,16
DA:1194,16
DA:1195,16
DA:1197,16
DA:1199,16
DA:1200,16
DA:1201,16
DA:1203,16
DA:1205,52
DA:1206,52
DA:1207,52
DA:1209,52
DA:1211,0
DA:1212,0
DA:1213,0
DA:1215,0
DA:1217,61
DA:1218,61
DA:1219,61
DA:1221,61
DA:1223,39
DA:1224,39
DA:1225,39
DA:1227,39
DA:1229,30
DA:1230,30
DA:1231,30
DA:1233,30
DA:1235,5
DA:1236,5
DA:1237,5
DA:1238,5
DA:1240,9
DA:1241,9
DA:1242,9
DA:1243,9
DA:1245,9
DA:1247,9
DA:1248,9
DA:1251,0
DA:1253,2
DA:1254,6
DA:1257,1134
DA:1258,10
DA:1260,285
DA:1262,285
DA:1264,3
DA:1267,284
DA:1269,32
DA:1271,3
DA:1274,283
DA:1276,356
DA:1278,356
DA:1280,356
DA:1282,175
DA:1283,175
DA:1285,181
DA:1287,5
DA:1288,5
DA:1290,176
DA:1292,48
DA:1294,128
DA:1296,9
DA:1298,9
DA:1302,119
DA:1305,167
DA:1307,8
DA:1310,167
DA:1312,620
DA:1314,453
DA:1316,453
DA:1318,171
DA:1320,282
DA:1322,153
DA:1324,129
DA:1326,30
DA:1328,99
DA:1330,43
DA:1334,167
DA:1336,43
DA:1338,44
DA:1340,1
DA:1341,1
DA:1342,1
DA:1345,43
DA:1348,167
DA:1349,167
DA:1351,48
DA:1353,48
DA:1355,4
DA:1356,4
DA:1358,2
DA:1360,2
DA:1362,2
DA:1363,2
DA:1365,2
DA:1369,0
DA:1370,0
DA:1372,6
DA:1373,6
DA:1375,4
DA:1377,2
DA:1379,2
DA:1382,0
DA:1383,0
DA:1385,9
DA:1386,9
DA:1388,9
DA:1391,0
DA:1392,0
DA:1394,2
DA:1395,2
DA:1397,2
DA:1400,0
DA:1401,0
DA:1403,2
DA:1404,2
DA:1406,2
DA:1409,0
DA:1410,0
DA:1412,2
DA:1413,2
DA:1415,2
DA:1418,0
DA:1419,0
DA:1421,21
DA:1422,21
DA:1424,20
DA:1427,1
DA:1428,0
DA:1430,2
DA:1431,2
DA:1434,0
DA:1437,7
DA:1439,7
DA:1441,7
DA:1443,1
DA:1446,6
DA:1448,6
DA:1450,2
DA:1453,6
DA:1455,6
DA:1457,1
DA:1460,19
DA:1462,15
DA:1464,1
DA:1468,4
DA:1469,4
DA:1471,0
DA:1473,4
DA:1475,1196
DA:1477,1195
DA:1479,3
DA:1480,6
DA:1482,4
DA:1484,1
DA:1485,9
DA:1487,303
DA:1488,303
DA:1490,303
DA:1491,279
DA:1492,327
DA:1494,195
DA:1496,195
DA:1498,29
DA:1500,9
DA:1503,20
DA:1505,2
DA:1508,19
DA:1510,9
DA:1513,10
DA:1515,2
DA:1518,9
DA:1524,166
DA:1526,149
DA:1529,17
DA:1531,14
DA:1533,9
DA:1537,5
DA:1543,3
DA:1545,1
DA:1547,2
DA:1549,1
DA:1553,1
DA:1558,84
DA:1560,84
DA:1562,81
DA:1563,81
DA:1564,81
DA:1565,81
DA:1566,81
DA:1567,81
DA:1568,81
DA:1570,3
DA:1573,130
DA:1575,130
DA:1577,130
DA:1578,84
DA:1580,49
DA:1583,81
DA:1585,9
DA:1588,81
DA:1590,1
DA:1593,81
DA:1595,81
DA:1596,50
DA:1597,30
DA:1600,57
DA:1602,57
DA:1605,1
DA:1608,57
DA:1610,20
DA:1611,20
DA:1613,96
DA:1615,76
DA:1617,76
DA:1619,14
DA:1623,20
DA:1624,20
DA:1626,57
DA:1628,3
DA:1630,57
DA:1631,24
DA:1633,24
DA:1636,24
DA:1637,24
DA:1640,26
DA:1642,2
DA:1646,24
DA:1649,2
DA:1652,24
DA:1654,3
DA:1658,81
DA:1659,130
DA:1661,7
DA:1664,7
DA:1666,7
DA:1668,5
DA:1670,5
DA:1672,2
DA:1676,7
DA:1678,7
DA:1679,7
DA:1682,7
DA:1684,7
DA:1686,2
DA:1688,7
DA:1691,7
DA:1692,7
DA:1693,7
DA:1695,7
DA:1697,6
DA:1701,1
DA:1704,14
DA:1705,7
DA:1707,4
DA:1710,4
DA:1711,4
DA:1712,4
DA:1714,16
DA:1715,16
DA:1717,12
DA:1720,4
DA:1721,4
DA:1724,4
DA:1725,4
DA:1726,4
DA:1727,4
DA:1729,202
DA:1731,198
DA:1732,198
DA:1733,198
DA:1735,198
DA:1737,30
DA:1738,30
DA:1742,4
DA:1743,4
DA:1746,193
DA:1749,245
DA:1752,225
DA:1754,193
DA:1756,193
DA:1758,33
DA:1760,33
DA:1762,34
DA:1766,176
DA:1768,176
DA:1769,176
DA:1771,176
DA:1773,62
DA:1775,45
DA:1778,62
DA:1780,62
DA:1782,9
DA:1784,9
DA:1786,2
DA:1791,176
DA:1792,176
DA:1793,176
DA:1794,176
DA:1796,617
DA:1798,441
DA:1800,441
DA:1802,2
DA:1803,2
DA:1804,2
DA:1807,145
DA:1808,145
DA:1809,145
DA:1812,3
DA:1813,3
DA:1814,3
DA:1815,3
DA:1816,3
DA:1819,143
DA:1820,143
DA:1821,24
DA:1823,4
DA:1824,4
DA:1825,4
DA:1826,4
DA:1827,4
DA:1828,4
DA:1829,4
DA:1832,139
DA:1834,6
DA:1837,139
DA:1839,6
DA:1841,6
DA:1843,2
DA:1844,2
DA:1847,4
DA:1848,4
DA:1850,133
DA:1851,7
DA:1853,7
DA:1854,7
DA:1855,7
DA:1856,7
DA:1857,7
DA:1858,7
DA:1861,126
DA:1864,137
DA:1867,13
DA:1868,13
DA:1869,13
DA:1872,8
DA:1873,8
DA:1875,3
DA:1878,8
DA:1879,8
DA:1882,7
DA:1883,7
DA:1884,7
DA:1887,1
DA:1888,1
DA:1889,1
DA:1892,11
DA:1893,11
DA:1894,11
DA:1897,7
DA:1898,7
DA:1900,7
DA:1903,7
DA:1904,7
DA:1907,18
DA:1908,18
DA:1910,8
DA:1913,18
DA:1914,18
DA:1917,2
DA:1918,2
DA:1919,2
DA:1922,18
DA:1923,18
DA:1924,18
DA:1927,4
DA:1928,4
DA:1930,3
DA:1933,4
DA:1934,4
DA:1937,4
DA:1938,4
DA:1939,4
DA:1942,20
DA:1943,20
DA:1945,9
DA:1948,20
DA:1949,20
DA:1952,1
DA:1953,1
DA:1954,1
DA:1957,1
DA:1958,1
DA:1959,1
DA:1962,14
DA:1963,14
DA:1965,7
DA:1968,14
DA:1969,14
DA:1972,3
DA:1973,3
DA:1975,2
DA:1978,3
DA:1979,3
DA:1982,7
DA:1983,7
DA:1985,5
DA:1989,2
DA:1992,7
DA:1995,2
DA:1996,2
DA:1998,1
DA:2002,1
DA:2005,2
DA:2008,2
DA:2009,2
DA:2010,2
DA:2013,1
DA:2014,1
DA:2015,1
DA:2016,1
DA:2019,1
DA:2020,1
DA:2021,1
DA:2022,1
DA:2025,1
DA:2026,1
DA:2027,1
DA:2030,1
DA:2031,1
DA:2033,1
DA:2035,1
DA:2037,1
DA:2040,1
DA:2041,1
DA:2043,1
DA:2045,1
DA:2047,1
DA:2052,176
DA:2054,176
DA:2056,3
DA:2058,3
DA:2061,3
DA:2062,3
DA:2064,176
DA:2065,193
DA:2067,84
DA:2069,84
DA:2070,84
DA:2072,171
DA:2074,87
DA:2076,3
DA:2077,3
DA:2079,84
DA:2081,82
DA:2082,1
DA:2084,82
DA:2085,82
DA:2090,84
DA:2092,1
DA:2095,83
DA:2096,84
LF:987
LH:825
end_of_record
TN:
SF:/root/project/source/detail/number_format/number_formatter.hpp
FNF:0
FNH:0
LF:0
LH:0
end_of_record
TN:
SF:/root/project/source/detail/serialization/custom_value_traits.cpp
FNL:0,134,179
FNA:0,227,_ZN4xlnt6detail9to_stringB5cxx11ENS_17pattern_fill_typeE
FNL:1,181,192
FNA:1,0,_ZN4xlnt6detail9to_stringB5cxx11ENS_18gradient_fill_typeE
FNL:2,194,229
FNA:2,116,_ZN4xlnt6detail9to_stringB5cxx11ENS_12border_styleE
FNL:3,231,248
FNA:3,74,_ZN4xlnt6detail9to_stringB5cxx11ENS_18vertical_alignmentE
FNL:4,250,273
FNA:4,24,_ZN4xlnt6detail9to_stringB5cxx11ENS_20horizontal_alignmentE
FNL:5,275,296
FNA:5,435,_ZN4xlnt6detail9to_stringB5cxx11ENS_11border_sideE
FNL:6,298,335
FNA:6,202,_ZN4xlnt6detail9to_stringB5cxx11ENS_13core_propertyE
FNL:7,33,50
FNA:7,20,_ZN4xlnt6detail9to_stringB5cxx11ENS_4font15underline_styleE
FNL:8,337,398
FNA:8,445,_ZN4xlnt6detail9to_stringB5cxx11ENS_17extended_propertyE
FNL:9,400,419
FNA:9,44,_ZN4xlnt6detail9to_stringB5cxx11ENS_7variant4typeE
FNL:10,421,436
FNA:10,10,_ZN4xlnt6detail9to_stringB5cxx11ENS_11pane_cornerE
FNL:11,438,449
FNA:11,0,_ZN4xlnt6detail9to_stringB5cxx11ENS_11target_modeE
FNL:12,451,464
FNA:12,3,_ZN4xlnt6detail9to_stringB5cxx11ENS_10pane_stateE
FNL:13,466,478
FNA:13,8,_ZN4xlnt6detail9to_stringB5cxx11ENS_11orientationE
FNL:14,55,132
FNA:14,392,_ZN4xlnt6detail9to_stringB5cxx11ENS_17relationship_typeE
FNF:15
FNH:13
BRDA:35,0,0,4
BRDA:35,0,1,12
BRDA:35,0,2,0
BRDA:35,0,3,4
BRDA:35,0,4,0
BRDA:35,0,5,0
BRDA:38,0,0,4
BRDA:38,e0,1,0
BRDA:40,0,0,12
BRDA:40,e0,1,0
BRDA:42,0,0,-
BRDA:42,e0,1,-
BRDA:44,0,0,4
BRDA:44,e0,1,0
BRDA:46,0,0,-
BRDA:46,e0,1,-
BRDA:49,0,0,-
BRDA:49,e0,1,-
BRDA:57,0,0,47
BRDA:57,0,1,32
BRDA:57,0,2,6
BRDA:57,0,3,44
BRDA:57,0,4,44
BRDA:57,0,5,56
BRDA:57,0,6,33
BRDA:57,0,7,45
BRDA:57,0,8,44
BRDA:57,0,9,16
BRDA:57,0,10,0
BRDA:57,0,11,8
BRDA:57,0,12,8
BRDA:57,0,13,3
BRDA:57,0,14,1
BRDA:57,0,15,0
BRDA:57,0,16,0
BRDA:57,0,17,0
BRDA:57,0,18,0
BRDA:57,0,19,2
BRDA:57,0,20,0
BRDA:57,0,21,0
BRDA:57,0,22,0
BRDA:57,0,23,0
BRDA:57,0,24,0
BRDA:57,0,25,0
BRDA:57,0,26,0
BRDA:57,0,27,0
BRDA:57,0,28,0
BRDA:57,0,29,0
BRDA:57,0,30,0
BRDA:57,0,31,0
BRDA:57,0,32,1
BRDA:57,0,33,2
BRDA:57,0,34,0
BRDA:57,0,35,0
BRDA:60,0,0,47
BRDA:60,e0,1,0
BRDA:62,0,0,32
BRDA:62,e0,1,0
BRDA:64,0,0,6
BRDA:64,e0,1,0
BRDA:66,0,0,44
BRDA:66,e0,1,0
BRDA:68,0,0,44
BRDA:68,e0,1,0
BRDA:70,0,0,56
BRDA:70,e0,1,0
BRDA:72,0,0,33
BRDA:72,e0,1,0
BRDA:74,0,0,45
BRDA:74,e0,1,0
BRDA:76,0,0,44
BRDA:76,e0,1,0
BRDA:78,0,0,16
BRDA:78,e0,1,0
BRDA:80,0,0,-
BRDA:80,e0,1,-
BRDA:82,0,0,8
BRDA:82,e0,1,0
BRDA:84,0,0,8
BRDA:84,e0,1,0
BRDA:86,0,0,3
BRDA:86,e0,1,0
BRDA:88,0,0,1
BRDA:88,e0,1,0
BRDA:90,0,0,-
BRDA:90,e0,1,-
BRDA:92,0,0,-
BRDA:92,e0,1,-
BRDA:94,0,0,-
BRDA:94,e0,1,-
BRDA:96,0,0,-
BRDA:96,e0,1,-
BRDA:98,0,0,2
BRDA:98,e0,1,0
BRDA:100,0,0,-
BRDA:100,e0,1,-
BRDA:102,0,0,-
BRDA:102,e0,1,-
BRDA:104,0,0,-
BRDA:104,e0,1,-
BRDA:106,0,0,-
BRDA:106,e0,1,-
BRDA:108,0,0,-
BRDA:108,e0,1,-
BRDA:110,0,0,-
BRDA:110,e0,1,-
BRDA:112,0,0,-
BRDA:112,e0,1,-
BRDA:114,0,0,-
BRDA:114,e0,1,-
BRDA:116,0,0,-
BRDA:116,e0,1,-
BRDA:118,0,0,-
BRDA:118,e0,1,-
BRDA:120,0,0,-
BRDA:120,e0,1,-
BRDA:122,0,0,-
BRDA:122,e0,1,-
BRDA:124,0,0,1
BRDA:124,e0,1,0
BRDA:126,0,0,2
BRDA:126,e0,1,0
BRDA:128,0,0,-
BRDA:128,e0,1,-
BRDA:131,0,0,-
BRDA:131,e0,1,-
BRDA:136,0,0,0
BRDA:136,0,1,0
BRDA:136,0,2,0
BRDA:136,0,3,0
BRDA:136,0,4,0
BRDA:136,0,5,0
BRDA:136,0,6,0
BRDA:136,0,7,0
BRDA:136,0,8,44
BRDA:136,0,9,0
BRDA:136,0,10,1
BRDA:136,0,11,0
BRDA:136,0,12,0
BRDA:136,0,13,0
BRDA:136,0,14,0
BRDA:136,0,15,0
BRDA:136,0,16,0
BRDA:136,0,17,137
BRDA:136,0,18,45
BRDA:136,0,19,0
BRDA:139,0,0,-
BRDA:139,e0,1,-
BRDA:141,0,0,-
BRDA:141,e0,1,-
BRDA:143,0,0,-
BRDA:143,e0,1,-
BRDA:145,0,0,-
BRDA:145,e0,1,-
BRDA:147,0,0,-
BRDA:147,e0,1,-
BRDA:149,0,0,-
BRDA:149,e0,1,-
BRDA:151,0,0,-
BRDA:151,e0,1,-
BRDA:153,0,0,-
BRDA:153,e0,1,-
BRDA:155,0,0,44
BRDA:155,e0,1,0
BRDA:157,0,0,-
BRDA:157,e0,1,-
BRDA:159,0,0,1
BRDA:159,e0,1,0
BRDA:161,0,0,-
BRDA:161,e0,1,-
BRDA:163,0,0,-
BRDA:163,e0,1,-
BRDA:165,0,0,-
BRDA:165,e0,1,-
BRDA:167,0,0,-
BRDA:167,e0,1,-
BRDA:169,0,0,-
BRDA:169,e0,1,-
BRDA:171,0,0,-
BRDA:171,e0,1,-
BRDA:173,0,0,137
BRDA:173,e0,1,0
BRDA:175,0,0,45
BRDA:175,e0,1,0
BRDA:178,0,0,-
BRDA:178,e0,1,-
BRDA:183,0,0,-
BRDA:183,0,1,-
BRDA:183,0,2,-
BRDA:186,0,0,-
BRDA:186,e0,1,-
BRDA:188,0,0,-
BRDA:188,e0,1,-
BRDA:191,0,0,-
BRDA:191,e0,1,-
BRDA:196,0,0,0
BRDA:196,0,1,0
BRDA:196,0,2,0
BRDA:196,0,3,0
BRDA:196,0,4,24
BRDA:196,0,5,0
BRDA:196,0,6,4
BRDA:196,0,7,0
BRDA:196,0,8,0
BRDA:196,0,9,0
BRDA:196,0,10,0
BRDA:196,0,11,8
BRDA:196,0,12,80
BRDA:196,0,13,0
BRDA:196,0,14,0
BRDA:199,0,0,-
BRDA:199,e0,1,-
BRDA:201,0,0,-
BRDA:201,e0,1,-
BRDA:203,0,0,-
BRDA:203,e0,1,-
BRDA:205,0,0,-
BRDA:205,e0,1,-
BRDA:207,0,0,24
BRDA:207,e0,1,0
BRDA:209,0,0,-
BRDA:209,e0,1,-
BRDA:211,0,0,4
BRDA:211,e0,1,0
BRDA:213,0,0,-
BRDA:213,e0,1,-
BRDA:215,0,0,-
BRDA:215,e0,1,-
BRDA:217,0,0,-
BRDA:217,e0,1,-
BRDA:219,0,0,-
BRDA:219,e0,1,-
BRDA:221,0,0,8
BRDA:221,e0,1,0
BRDA:223,0,0,80
BRDA:223,e0,1,0
BRDA:225,0,0,-
BRDA:225,e0,1,-
BRDA:228,0,0,-
BRDA:228,e0,1,-
BRDA:233,0,0,15
BRDA:233,0,1,52
BRDA:233,0,2,3
BRDA:233,0,3,0
BRDA:233,0,4,4
BRDA:233,0,5,0
BRDA:236,0,0,15
BRDA:236,e0,1,0
BRDA:238,0,0,52
BRDA:238,e0,1,0
BRDA:240,0,0,3
BRDA:240,e0,1,0
BRDA:242,0,0,-
BRDA:242,e0,1,-
BRDA:244,0,0,4
BRDA:244,e0,1,0
BRDA:247,0,0,-
BRDA:247,e0,1,-
BRDA:252,0,0,2
BRDA:252,0,1,13
BRDA:252,0,2,5
BRDA:252,0,3,4
BRDA:252,0,4,0
BRDA:252,0,5,0
BRDA:252,0,6,0
BRDA:252,0,7,0
BRDA:252,0,8,0
BRDA:255,0,0,2
BRDA:255,e0,1,0
BRDA:257,0,0,13
BRDA:257,e0,1,0
BRDA:259,0,0,5
BRDA:259,e0,1,0
BRDA:261,0,0,4
BRDA:261,e0,1,0
BRDA:263,0,0,-
BRDA:263,e0,1,-
BRDA:265,0,0,-
BRDA:265,e0,1,-
BRDA:267,0,0,-
BRDA:267,e0,1,-
BRDA:269,0,0,-
BRDA:269,e0,1,-
BRDA:272,0,0,-
BRDA:272,e0,1,-
BRDA:277,0,0,87
BRDA:277,0,1,87
BRDA:277,0,2,87
BRDA:277,0,3,87
BRDA:277,0,4,0
BRDA:277,0,5,0
BRDA:277,0,6,87
BRDA:277,0,7,0
BRDA:280,0,0,87
BRDA:280,e0,1,0
BRDA:282,0,0,87
BRDA:282,e0,1,0
BRDA:284,0,0,87
BRDA:284,e0,1,0
BRDA:286,0,0,87
BRDA:286,e0,1,0
BRDA:288,0,0,-
BRDA:288,e0,1,-
BRDA:290,0,0,-
BRDA:290,e0,1,-
BRDA:292,0,0,87
BRDA:292,e0,1,0
BRDA:295,0,0,-
BRDA:295,e0,1,-
BRDA:300,0,0,5
BRDA:300,0,1,1
BRDA:300,0,2,39
BRDA:300,0,3,41
BRDA:300,0,4,6
BRDA:300,0,5,1
BRDA:300,0,6,5
BRDA:300,0,7,2
BRDA:300,0,8,43
BRDA:300,0,9,1
BRDA:300,0,10,43
BRDA:300,0,11,2
BRDA:300,0,12,6
BRDA:300,0,13,6
BRDA:300,0,14,1
BRDA:300,0,15,0
BRDA:303,0,0,5
BRDA:303,e0,1,0
BRDA:305,0,0,1
BRDA:305,e0,1,0
BRDA:307,0,0,39
BRDA:307,e0,1,0
BRDA:309,0,0,41
BRDA:309,e0,1,0
BRDA:311,0,0,6
BRDA:311,e0,1,0
BRDA:313,0,0,1
BRDA:313,e0,1,0
BRDA:315,0,0,5
BRDA:315,e0,1,0
BRDA:317,0,0,2
BRDA:317,e0,1,0
BRDA:319,0,0,43
BRDA:319,e0,1,0
BRDA:321,0,0,1
BRDA:321,e0,1,0
BRDA:323,0,0,43
BRDA:323,e0,1,0
BRDA:325,0,0,2
BRDA:325,e0,1,0
BRDA:327,0,0,6
BRDA:327,e0,1,0
BRDA:329,0,0,6
BRDA:329,e0,1,0
BRDA:331,0,0,1
BRDA:331,e0,1,0
BRDA:334,0,0,-
BRDA:334,e0,1,-
BRDA:339,0,0,43
BRDA:339,0,1,42
BRDA:339,0,2,1
BRDA:339,0,3,1
BRDA:339,0,4,39
BRDA:339,0,5,1
BRDA:339,0,6,42
BRDA:339,0,7,42
BRDA:339,0,8,1
BRDA:339,0,9,42
BRDA:339,0,10,5
BRDA:339,0,11,1
BRDA:339,0,12,1
BRDA:339,0,13,42
BRDA:339,0,14,5
BRDA:339,0,15,1
BRDA:339,0,16,1
BRDA:339,0,17,1
BRDA:339,0,18,1
BRDA:339,0,19,1
BRDA:339,0,20,42
BRDA:339,0,21,42
BRDA:339,0,22,1
BRDA:339,0,23,2
BRDA:339,0,24,42
BRDA:339,0,25,2
BRDA:339,0,26,1
BRDA:339,0,27,0
BRDA:342,0,0,43
BRDA:342,e0,1,0
BRDA:344,0,0,42
BRDA:344,e0,1,0
BRDA:346,0,0,1
BRDA:346,e0,1,0
BRDA:348,0,0,1
BRDA:348,e0,1,0
BRDA:350,0,0,39
BRDA:350,e0,1,0
BRDA:352,0,0,1
BRDA:352,e0,1,0
BRDA:354,0,0,42
BRDA:354,e0,1,0
BRDA:356,0,0,42
BRDA:356,e0,1,0
BRDA:358,0,0,1
BRDA:358,e0,1,0
BRDA:360,0,0,42
BRDA:360,e0,1,0
BRDA:362,0,0,5
BRDA:362,e0,1,0
BRDA:364,0,0,1
BRDA:364,e0,1,0
BRDA:366,0,0,1
BRDA:366,e0,1,0
BRDA:368,0,0,42
BRDA:368,e0,1,0
BRDA:370,0,0,5
BRDA:370,e0,1,0
BRDA:372,0,0,1
BRDA:372,e0,1,0
BRDA:374,0,0,1
BRDA:374,e0,1,0
BRDA:376,0,0,1
BRDA:376,e0,1,0
BRDA:378,0,0,1
BRDA:378,e0,1,0
BRDA:380,0,0,1
BRDA:380,e0,1,0
BRDA:382,0,0,42
BRDA:382,e0,1,0
BRDA:384,0,0,42
BRDA:384,e0,1,0
BRDA:386,0,0,1
BRDA:386,e0,1,0
BRDA:388,0,0,2
BRDA:388,e0,1,0
BRDA:390,0,0,42
BRDA:390,e0,1,0
BRDA:392,0,0,2
BRDA:392,e0,1,0
BRDA:394,0,0,1
BRDA:394,e0,1,0
BRDA:397,0,0,-
BRDA:397,e0,1,-
BRDA:402,0,0,0
BRDA:402,0,1,0
BRDA:402,0,2,1
BRDA:402,0,3,43
BRDA:402,0,4,0
BRDA:402,0,5,0
BRDA:402,0,6,0
BRDA:405,0,0,-
BRDA:405,e0,1,-
BRDA:407,0,0,-
BRDA:407,e0,1,-
BRDA:409,0,0,1
BRDA:409,e0,1,0
BRDA:411,0,0,43
BRDA:411,e0,1,0
BRDA:413,0,0,-
BRDA:413,e0,1,-
BRDA:415,0,0,-
BRDA:415,e0,1,-
BRDA:418,0,0,-
BRDA:418,e0,1,-
BRDA:423,0,0,2
BRDA:423,0,1,6
BRDA:423,0,2,0
BRDA:423,0,3,2
BRDA:423,0,4,0
BRDA:426,0,0,2
BRDA:426,e0,1,0
BRDA:428,0,0,6
BRDA:428,e0,1,0
BRDA:430,0,0,-
BRDA:430,e0,1,-
BRDA:432,0,0,2
BRDA:432,e0,1,0
BRDA:435,0,0,-
BRDA:435,e0,1,-
BRDA:440,0,0,-
BRDA:440,0,1,-
BRDA:440,0,2,-
BRDA:443,0,0,-
BRDA:443,e0,1,-
BRDA:445,0,0,-
BRDA:445,e0,1,-
BRDA:448,0,0,-
BRDA:448,e0,1,-
BRDA:453,0,0,3
BRDA:453,0,1,0
BRDA:453,0,2,0
BRDA:453,0,3,0
BRDA:456,0,0,3
BRDA:456,e0,1,0
BRDA:458,0,0,-
BRDA:458,e0,1,-
BRDA:460,0,0,-
BRDA:460,e0,1,-
BRDA:463,0,0,-
BRDA:463,e0,1,-
BRDA:468,0,0,0
BRDA:468,0,1,0
BRDA:468,0,2,8
BRDA:468,0,3,0
BRDA:471,0,0,-
BRDA:471,e0,1,-
BRDA:473,0,0,-
BRDA:473,e0,1,-
BRDA:475,0,0,8
BRDA:475,e0,1,0
BRDA:477,0,0,-
BRDA:477,e0,1,-
BRF:510
BRH:180
DA:33,20
DA:35,20
DA:37,4
DA:38,8
DA:39,12
DA:40,24
DA:41,0
DA:42,0
DA:43,4
DA:44,8
DA:45,0
DA:46,0
DA:49,0
DA:55,392
DA:57,392
DA:59,47
DA:60,94
DA:61,32
DA:62,64
DA:63,6
DA:64,12
DA:65,44
DA:66,88
DA:67,44
DA:68,88
DA:69,56
DA:70,112
DA:71,33
DA:72,66
DA:73,45
DA:74,90
DA:75,44
DA:76,88
DA:77,16
DA:78,32
DA:79,0
DA:80,0
DA:81,8
DA:82,16
DA:83,8
DA:84,16
DA:85,3
DA:86,6
DA:87,1
DA:88,2
DA:89,0
DA:90,0
DA:91,0
DA:92,0
DA:93,0
DA:94,0
DA:95,0
DA:96,0
DA:97,2
DA:98,4
DA:99,0
DA:100,0
DA:101,0
DA:102,0
DA:103,0
DA:104,0
DA:105,0
DA:106,0
DA:107,0
DA:108,0
DA:109,0
DA:110,0
DA:111,0
DA:112,0
DA:113,0
DA:114,0
DA:115,0
DA:116,0
DA:117,0
DA:118,0
DA:119,0
DA:120,0
DA:121,0
DA:122,0
DA:123,1
DA:124,2
DA:125,2
DA:126,4
DA:127,0
DA:128,0
DA:131,0
DA:134,227
DA:136,227
DA:138,0
DA:139,0
DA:140,0
DA:141,0
DA:142,0
DA:143,0
DA:144,0
DA:145,0
DA:146,0
DA:147,0
DA:148,0
DA:149,0
DA:150,0
DA:151,0
DA:152,0
DA:153,0
DA:154,44
DA:155,88
DA:156,0
DA:157,0
DA:158,1
DA:159,2
DA:160,0
DA:161,0
DA:162,0
DA:163,0
DA:164,0
DA:165,0
DA:166,0
DA:167,0
DA:168,0
DA:169,0
DA:170,0
DA:171,0
DA:172,137
DA:173,274
DA:174,45
DA:175,90
DA:178,0
DA:181,0
DA:183,0
DA:185,0
DA:186,0
DA:187,0
DA:188,0
DA:191,0
DA:194,116
DA:196,116
DA:198,0
DA:199,0
DA:200,0
DA:201,0
DA:202,0
DA:203,0
DA:204,0
DA:205,0
DA:206,24
DA:207,48
DA:208,0
DA:209,0
DA:210,4
DA:211,8
DA:212,0
DA:213,0
DA:214,0
DA:215,0
DA:216,0
DA:217,0
DA:218,0
DA:219,0
DA:220,8
DA:221,16
DA:222,80
DA:223,160
DA:224,0
DA:225,0
DA:228,0
DA:231,74
DA:233,74
DA:235,15
DA:236,30
DA:237,52
DA:238,104
DA:239,3
DA:240,6
DA:241,0
DA:242,0
DA:243,4
DA:244,8
DA:247,0
DA:250,24
DA:252,24
DA:254,2
DA:255,4
DA:256,13
DA:257,26
DA:258,5
DA:259,10
DA:260,4
DA:261,8
DA:262,0
DA:263,0
DA:264,0
DA:265,0
DA:266,0
DA:267,0
DA:268,0
DA:269,0
DA:272,0
DA:275,435
DA:277,435
DA:279,87
DA:280,174
DA:281,87
DA:282,174
DA:283,87
DA:284,174
DA:285,87
DA:286,174
DA:287,0
DA:288,0
DA:289,0
DA:290,0
DA:291,87
DA:292,174
DA:295,0
DA:298,202
DA:300,202
DA:302,5
DA:303,10
DA:304,1
DA:305,2
DA:306,39
DA:307,78
DA:308,41
DA:309,82
DA:310,6
DA:311,12
DA:312,1
DA:313,2
DA:314,5
DA:315,10
DA:316,2
DA:317,4
DA:318,43
DA:319,86
DA:320,1
DA:321,2
DA:322,43
DA:323,86
DA:324,2
DA:325,4
DA:326,6
DA:327,12
DA:328,6
DA:329,12
DA:330,1
DA:331,2
DA:334,0
DA:337,445
DA:339,445
DA:341,43
DA:342,86
DA:343,42
DA:344,84
DA:345,1
DA:346,2
DA:347,1
DA:348,2
DA:349,39
DA:350,78
DA:351,1
DA:352,2
DA:353,42
DA:354,84
DA:355,42
DA:356,84
DA:357,1
DA:358,2
DA:359,42
DA:360,84
DA:361,5
DA:362,10
DA:363,1
DA:364,2
DA:365,1
DA:366,2
DA:367,42
DA:368,84
DA:369,5
DA:370,10
DA:371,1
DA:372,2
DA:373,1
DA:374,2
DA:375,1
DA:376,2
DA:377,1
DA:378,2
DA:379,1
DA:380,2
DA:381,42
DA:382,84
DA:383,42
DA:384,84
DA:385,1
DA:386,2
DA:387,2
DA:388,4
DA:389,42
DA:390,84
DA:391,2
DA:392,4
DA:393,1
DA:394,2
DA:397,0
DA:400,44
DA:402,44
DA:404,0
DA:405,0
DA:406,0
DA:407,0
DA:408,1
DA:409,2
DA:410,43
DA:411,86
DA:412,0
DA:413,0
DA:414,0
DA:415,0
DA:418,0
DA:421,10
DA:423,10
DA:425,2
DA:426,4
DA:427,6
DA:428,12
DA:429,0
DA:430,0
DA:431,2
DA:432,4
DA:435,0
DA:438,0
DA:440,0
DA:442,0
DA:443,0
DA:444,0
DA:445,0
DA:448,0
DA:451,3
DA:453,3
DA:455,3
DA:456,6
DA:457,0
DA:458,0
DA:459,0
DA:460,0
DA:463,0
DA:466,8
DA:468,8
DA:470,0
DA:471,0
DA:472,0
DA:473,0
DA:474,8
DA:475,16
DA:477,0
LF:355
LH:206
end_of_record
TN:
SF:/root/project/source/detail/serialization/custom_value_traits.hpp
FNL:0,177,230
FNA:0,450,_ZN4xlnt6detailL11from_stringINS_17pattern_fill_typeEEET_RKNSt7__cxx1112basic_stringIcSt11char_traitsIcESaIcEEE
FNL:1,204,214
FNA:1,450,_ZZN4xlnt6detailL11from_stringINS_17pattern_fill_typeEEET_RKNSt7__cxx1112basic_stringIcSt11char_traitsIcESaIcEEEENKUlS9_E_clES9_
FNL:2,208,211
FNA:2,2338,_ZZZN4xlnt6detailL11from_stringINS_17pattern_fill_typeEEET_RKNSt7__cxx1112basic_stringIcSt11char_traitsIcESaIcEEEENKUlS9_E_clES9_ENKUlcE_clEc
FNL:3,216,225
FNA:3,450,_ZZN4xlnt6detailL11from_stringINS_17pattern_fill_typeEEET_RKNSt7__cxx1112basic_stringIcSt11char_traitsIcESaIcEEEENKUlSB_E_clESB_
FNL:4,233,239
FNA:4,0,_ZN4xlnt6detailL11from_stringINS_18gradient_fill_typeEEET_RKNSt7__cxx1112basic_stringIcSt11char_traitsIcESaIcEEE
FNL:5,242,260
FNA:5,259,_ZN4xlnt6detailL11from_stringINS_12border_styleEEET_RKNSt7__cxx1112basic_stringIcSt11char_traitsIcESaIcEEE
FNL:6,263,272
FNA:6,399,_ZN4xlnt6detailL11from_stringINS_18vertical_alignmentEEET_RKNSt7__cxx1112basic_stringIcSt11char_traitsIcESaIcEEE
FNL:7,275,287
FNA:7,114,_ZN4xlnt6detailL11from_stringINS_20horizontal_alignmentEEET_RKNSt7__cxx1112basic_stringIcSt11char_traitsIcESaIcEEE
FNL:8,289,300
FNA:8,901,_ZN4xlnt6detailL11from_stringINS_11border_sideEEET_RKNSt7__cxx1112basic_stringIcSt11char_traitsIcESaIcEEE
FNL:9,303,322
FNA:9,410,_ZN4xlnt6detailL11from_stringINS_13core_propertyEEET_RKNSt7__cxx1112basic_stringIcSt11char_traitsIcESaIcEEE
FNL:10,325,356
FNA:10,726,_ZN4xlnt6detailL11from_stringINS_17extended_propertyEEET_RKNSt7__cxx1112basic_stringIcSt11char_traitsIcESaIcEEE
FNL:11,374,381
FNA:11,3,_ZN4xlnt6detailL11from_stringINS_10pane_stateEEET_RKNSt7__cxx1112basic_stringIcSt11char_traitsIcESaIcEEE
FNL:12,384,390
FNA:12,30,_ZN4xlnt6detailL11from_stringINS_11target_modeEEET_RKNSt7__cxx1112basic_stringIcSt11char_traitsIcESaIcEEE
FNL:13,393,401
FNA:13,16,_ZN4xlnt6detailL11from_stringINS_11pane_cornerEEET_RKNSt7__cxx1112basic_stringIcSt11char_traitsIcESaIcEEE
FNL:14,404,410
FNA:14,25,_ZN4xlnt6detailL11from_stringINS_11orientationEEET_RKNSt7__cxx1112basic_stringIcSt11char_traitsIcESaIcEEE
FNL:15,420,423
FNA:15,44,_ZN3xml12value_traitsIN4xlnt4font15underline_styleEE5parseENSt7__cxx1112basic_stringIcSt11char_traitsIcESaIcEEERKNS_6parserE
FNL:16,425,428
FNA:16,20,_ZN3xml12value_traitsIN4xlnt4font15underline_styleEE9serializeB5cxx11ES3_RKNS_10serializerE
FNL:17,434,437
FNA:17,777,_ZN3xml12value_traitsIN4xlnt17relationship_typeEE5parseENSt7__cxx1112basic_stringIcSt11char_traitsIcESaIcEEERKNS_6parserE
FNL:18,439,442
FNA:18,392,_ZN3xml12value_traitsIN4xlnt17relationship_typeEE9serializeB5cxx11ES2_RKNS_10serializerE
FNL:19,448,451
FNA:19,450,_ZN3xml12value_traitsIN4xlnt17pattern_fill_typeEE5parseENSt7__cxx1112basic_stringIcSt11char_traitsIcESaIcEEERKNS_6parserE
FNL:20,453,456
FNA:20,227,_ZN3xml12value_traitsIN4xlnt17pattern_fill_typeEE9serializeB5cxx11ES2_RKNS_10serializerE
FNL:21,462,465
FNA:21,0,_ZN3xml12value_traitsIN4xlnt18gradient_fill_typeEE5parseENSt7__cxx1112basic_stringIcSt11char_traitsIcESaIcEEERKNS_6parserE
FNL:22,467,470
FNA:22,0,_ZN3xml12value_traitsIN4xlnt18gradient_fill_typeEE9serializeB5cxx11ES2_RKNS_10serializerE
FNL:23,476,479
FNA:23,259,_ZN3xml12value_traitsIN4xlnt12border_styleEE5parseENSt7__cxx1112basic_stringIcSt11char_traitsIcESaIcEEERKNS_6parserE
FNL:24,482,485
FNA:24,116,_ZN3xml12value_traitsIN4xlnt12border_styleEE9serializeB5cxx11ES2_RKNS_10serializerE
FNL:25,491,494
FNA:25,399,_ZN3xml12value_traitsIN4xlnt18vertical_alignmentEE5parseENSt7__cxx1112basic_stringIcSt11char_traitsIcESaIcEEERKNS_6parserE
FNL:26,496,499
FNA:26,74,_ZN3xml12value_traitsIN4xlnt18vertical_alignmentEE9serializeB5cxx11ES2_RKNS_10serializerE
FNL:27,505,508
FNA:27,114,_ZN3xml12value_traitsIN4xlnt20horizontal_alignmentEE5parseENSt7__cxx1112basic_stringIcSt11char_traitsIcESaIcEEERKNS_6parserE
FNL:28,510,513
FNA:28,24,_ZN3xml12value_traitsIN4xlnt20horizontal_alignmentEE9serializeB5cxx11ES2_RKNS_10serializerE
FNL:29,519,522
FNA:29,901,_ZN3xml12value_traitsIN4xlnt11border_sideEE5parseENSt7__cxx1112basic_stringIcSt11char_traitsIcESaIcEEERKNS_6parserE
FNL:30,533,536
FNA:30,30,_ZN3xml12value_traitsIN4xlnt11target_modeEE5parseENSt7__cxx1112basic_stringIcSt11char_traitsIcESaIcEEERKNS_6parserE
FNL:31,547,550
FNA:31,3,_ZN3xml12value_traitsIN4xlnt10pane_stateEE5parseENSt7__cxx1112basic_stringIcSt11char_traitsIcESaIcEEERKNS_6parserE
FNL:32,552,555
FNA:32,3,_ZN3xml12value_traitsIN4xlnt10pane_stateEE9serializeB5cxx11ES2_RKNS_10serializerE
FNL:33,561,564
FNA:33,16,_ZN3xml12value_traitsIN4xlnt11pane_cornerEE5parseENSt7__cxx1112basic_stringIcSt11char_traitsIcESaIcEEERKNS_6parserE
FNL:34,566,569
FNA:34,10,_ZN3xml12value_traitsIN4xlnt11pane_cornerEE9serializeB5cxx11ES2_RKNS_10serializerE
FNL:35,603,606
FNA:35,25,_ZN3xml12value_traitsIN4xlnt11orientationEE5parseENSt7__cxx1112basic_stringIcSt11char_traitsIcESaIcEEERKNS_6parserE
FNL:36,608,611
FNA:36,8,_ZN3xml12value_traitsIN4xlnt11orientationEE9serializeB5cxx11ES2_RKNS_10serializerE
FNL:37,87,96
FNA:37,44,_ZN4xlnt6detailL11from_stringINS_4font15underline_styleEEET_RKNSt7__cxx1112basic_stringIcSt11char_traitsIcESaIcEEE
FNL:38,99,174
FNA:38,777,_ZN4xlnt6detailL11from_stringINS_17relationship_typeEEET_RKNSt7__cxx1112basic_stringIcSt11char_traitsIcESaIcEEE
FNF:39
FNH:36
BRDA:89,0,0,9
BRDA:89,0,1,35
BRDA:90,0,0,26
BRDA:90,0,1,9
BRDA:91,0,0,0
BRDA:91,0,1,9
BRDA:92,0,0,9
BRDA:92,0,1,0
BRDA:93,0,0,-
BRDA:93,0,1,-
BRDA:95,0,0,-
BRDA:95,e0,1,-
BRDA:101,0,0,96
BRDA:101,0,1,681
BRDA:103,0,0,42
BRDA:103,0,1,639
BRDA:105,0,0,12
BRDA:105,0,1,627
BRDA:107,0,0,84
BRDA:107,0,1,543
BRDA:110,0,0,469
BRDA:110,0,1,74
BRDA:110,0,2,10
BRDA:110,0,3,459
BRDA:110,0,4,84
BRDA:110,0,5,459
BRDA:112,0,0,122
BRDA:112,0,1,337
BRDA:114,0,0,69
BRDA:114,0,1,268
BRDA:116,0,0,84
BRDA:116,0,1,184
BRDA:118,0,0,74
BRDA:118,0,1,110
BRDA:120,0,0,29
BRDA:120,0,1,81
BRDA:122,0,0,0
BRDA:122,0,1,81
BRDA:124,0,0,14
BRDA:124,0,1,67
BRDA:126,0,0,14
BRDA:126,0,1,53
BRDA:128,0,0,4
BRDA:128,0,1,49
BRDA:130,0,0,5
BRDA:130,0,1,44
BRDA:132,0,0,0
BRDA:132,0,1,44
BRDA:134,0,0,0
BRDA:134,0,1,44
BRDA:136,0,0,0
BRDA:136,0,1,44
BRDA:138,0,0,0
BRDA:138,0,1,44
BRDA:140,0,0,4
BRDA:140,0,1,40
BRDA:142,0,0,0
BRDA:142,0,1,40
BRDA:144,0,0,0
BRDA:144,0,1,40
BRDA:146,0,0,0
BRDA:146,0,1,40
BRDA:148,0,0,0
BRDA:148,0,1,40
BRDA:150,0,0,0
BRDA:150,0,1,40
BRDA:152,0,0,0
BRDA:152,0,1,40
BRDA:154,0,0,0
BRDA:154,0,1,40
BRDA:156,0,0,0
BRDA:156,0,1,40
BRDA:158,0,0,0
BRDA:158,0,1,40
BRDA:160,0,0,0
BRDA:160,0,1,40
BRDA:162,0,0,0
BRDA:162,0,1,40
BRDA:164,0,0,0
BRDA:164,0,1,40
BRDA:166,0,0,2
BRDA:166,0,1,38
BRDA:168,0,0,4
BRDA:168,0,1,34
BRDA:201,0,0,3
BRDA:201,0,1,447
BRDA:201,0,2,3
BRDA:201,0,3,0
BRDA:201,0,4,3
BRDA:201,e0,5,0
BRDA:201,0,6,57
BRDA:201,0,7,3
BRDA:201,0,8,0
BRDA:201,0,9,0
BRDA:201,0,10,0
BRDA:201,0,11,0
BRDA:217,0,0,450
BRDA:217,e0,1,0
BRDA:218,0,0,450
BRDA:218,0,1,0
BRDA:227,0,0,450
BRDA:227,e0,1,0
BRDA:227,0,2,450
BRDA:227,e0,3,0
BRDA:229,0,0,450
BRDA:229,e0,1,0
BRDA:230,0,0,3
BRDA:230,e0,1,0
BRDA:230,0,2,3
BRDA:230,e0,3,0
BRDA:230,0,4,3
BRDA:230,e0,5,0
BRDA:230,0,6,3
BRDA:230,e0,7,0
BRDA:230,0,8,3
BRDA:230,e0,9,0
BRDA:230,0,10,3
BRDA:230,e0,11,0
BRDA:230,0,12,3
BRDA:230,e0,13,0
BRDA:230,0,14,3
BRDA:230,e0,15,0
BRDA:230,0,16,3
BRDA:230,e0,17,0
BRDA:230,0,18,3
BRDA:230,e0,19,0
BRDA:230,0,20,3
BRDA:230,e0,21,0
BRDA:230,0,22,3
BRDA:230,e0,23,0
BRDA:230,0,24,3
BRDA:230,e0,25,0
BRDA:230,0,26,3
BRDA:230,e0,27,0
BRDA:230,0,28,3
BRDA:230,e0,29,0
BRDA:230,0,30,3
BRDA:230,e0,31,0
BRDA:230,0,32,3
BRDA:230,e0,33,0
BRDA:230,0,34,3
BRDA:230,e0,35,0
BRDA:230,0,36,3
BRDA:230,e0,37,0
BRDA:230,0,38,0
BRDA:230,0,39,0
BRDA:230,0,40,0
BRDA:230,0,41,0
BRDA:235,0,0,-
BRDA:235,0,1,-
BRDA:236,0,0,-
BRDA:236,0,1,-
BRDA:238,0,0,-
BRDA:238,e0,1,-
BRDA:244,0,0,0
BRDA:244,0,1,259
BRDA:245,0,0,0
BRDA:245,0,1,259
BRDA:246,0,0,0
BRDA:246,0,1,259
BRDA:247,0,0,0
BRDA:247,0,1,259
BRDA:248,0,0,54
BRDA:248,0,1,205
BRDA:249,0,0,0
BRDA:249,0,1,205
BRDA:250,0,0,9
BRDA:250,0,1,196
BRDA:251,0,0,0
BRDA:251,0,1,196
BRDA:252,0,0,0
BRDA:252,0,1,196
BRDA:253,0,0,0
BRDA:253,0,1,196
BRDA:254,0,0,0
BRDA:254,0,1,196
BRDA:255,0,0,0
BRDA:255,0,1,196
BRDA:256,0,0,19
BRDA:256,0,1,177
BRDA:257,0,0,177
BRDA:257,0,1,0
BRDA:259,0,0,-
BRDA:259,e0,1,-
BRDA:265,0,0,44
BRDA:265,0,1,355
BRDA:266,0,0,305
BRDA:266,0,1,50
BRDA:267,0,0,9
BRDA:267,0,1,41
BRDA:268,0,0,0
BRDA:268,0,1,41
BRDA:269,0,0,41
BRDA:269,0,1,0
BRDA:271,0,0,-
BRDA:271,e0,1,-
BRDA:277,0,0,13
BRDA:277,0,1,101
BRDA:278,0,0,0
BRDA:278,0,1,101
BRDA:279,0,0,0
BRDA:279,0,1,101
BRDA:280,0,0,0
BRDA:280,0,1,101
BRDA:281,0,0,22
BRDA:281,0,1,79
BRDA:282,0,0,0
BRDA:282,0,1,79
BRDA:283,0,0,55
BRDA:283,0,1,24
BRDA:284,0,0,24
BRDA:284,0,1,0
BRDA:286,0,0,-
BRDA:286,e0,1,-
BRDA:291,0,0,181
BRDA:291,0,1,720
BRDA:292,0,0,180
BRDA:292,0,1,540
BRDA:293,0,0,180
BRDA:293,0,1,360
BRDA:294,0,0,0
BRDA:294,0,1,360
BRDA:295,0,0,180
BRDA:295,0,1,180
BRDA:296,0,0,180
BRDA:296,0,1,0
BRDA:297,0,0,-
BRDA:297,0,1,-
BRDA:299,0,0,-
BRDA:299,e0,1,-
BRDA:305,0,0,8
BRDA:305,0,1,402
BRDA:306,0,0,0
BRDA:306,0,1,402
BRDA:307,0,0,75
BRDA:307,0,1,327
BRDA:308,0,0,79
BRDA:308,0,1,248
BRDA:309,0,0,19
BRDA:309,0,1,229
BRDA:310,0,0,0
BRDA:310,0,1,229
BRDA:311,0,0,8
BRDA:311,0,1,221
BRDA:312,0,0,11
BRDA:312,0,1,210
BRDA:313,0,0,78
BRDA:313,0,1,132
BRDA:314,0,0,0
BRDA:314,0,1,132
BRDA:315,0,0,81
BRDA:315,0,1,51
BRDA:316,0,0,12
BRDA:316,0,1,39
BRDA:317,0,0,19
BRDA:317,0,1,20
BRDA:318,0,0,20
BRDA:318,0,1,0
BRDA:319,0,0,-
BRDA:319,0,1,-
BRDA:321,0,0,-
BRDA:321,e0,1,-
BRDA:327,0,0,82
BRDA:327,0,1,644
BRDA:328,0,0,70
BRDA:328,0,1,574
BRDA:329,0,0,0
BRDA:329,0,1,574
BRDA:330,0,0,0
BRDA:330,0,1,574
BRDA:331,0,0,60
BRDA:331,0,1,514
BRDA:332,0,0,0
BRDA:332,0,1,514
BRDA:333,0,0,66
BRDA:333,0,1,448
BRDA:334,0,0,67
BRDA:334,0,1,381
BRDA:335,0,0,1
BRDA:335,0,1,380
BRDA:336,0,0,67
BRDA:336,0,1,313
BRDA:337,0,0,8
BRDA:337,0,1,305
BRDA:338,0,0,0
BRDA:338,0,1,305
BRDA:339,0,0,0
BRDA:339,0,1,305
BRDA:340,0,0,67
BRDA:340,0,1,238
BRDA:341,0,0,8
BRDA:341,0,1,230
BRDA:342,0,0,1
BRDA:342,0,1,229
BRDA:343,0,0,1
BRDA:343,0,1,228
BRDA:344,0,0,0
BRDA:344,0,1,228
BRDA:345,0,0,1
BRDA:345,0,1,227
BRDA:346,0,0,1
BRDA:346,0,1,226
BRDA:347,0,0,67
BRDA:347,0,1,159
BRDA:348,0,0,67
BRDA:348,0,1,92
BRDA:349,0,0,1
BRDA:349,0,1,91
BRDA:350,0,0,11
BRDA:350,0,1,80
BRDA:351,0,0,67
BRDA:351,0,1,13
BRDA:352,0,0,12
BRDA:352,0,1,1
BRDA:353,0,0,1
BRDA:353,0,1,0
BRDA:355,0,0,-
BRDA:355,e0,1,-
BRDA:376,0,0,3
BRDA:376,0,1,0
BRDA:377,0,0,-
BRDA:377,0,1,-
BRDA:378,0,0,-
BRDA:378,0,1,-
BRDA:380,0,0,-
BRDA:380,e0,1,-
BRDA:386,0,0,0
BRDA:386,0,1,30
BRDA:387,0,0,30
BRDA:387,0,1,0
BRDA:389,0,0,-
BRDA:389,e0,1,-
BRDA:395,0,0,2
BRDA:395,0,1,14
BRDA:396,0,0,3
BRDA:396,0,1,11
BRDA:397,0,0,11
BRDA:397,0,1,0
BRDA:398,0,0,-
BRDA:398,0,1,-
BRDA:400,0,0,-
BRDA:400,e0,1,-
BRDA:406,0,0,0
BRDA:406,0,1,25
BRDA:407,0,0,0
BRDA:407,0,1,25
BRDA:408,0,0,25
BRDA:408,0,1,0
BRDA:409,0,0,-
BRDA:409,e0,1,-
BRF:350
BRH:219
DA:87,44
DA:89,44
DA:90,35
DA:91,9
DA:92,9
DA:93,0
DA:95,0
DA:99,777
DA:101,777
DA:102,96
DA:103,681
DA:104,42
DA:105,639
DA:106,12
DA:107,627
DA:108,84
DA:109,543
DA:110,543
DA:111,84
DA:112,459
DA:113,122
DA:114,337
DA:115,69
DA:116,268
DA:117,84
DA:118,184
DA:119,74
DA:120,110
DA:121,29
DA:122,81
DA:123,0
DA:124,81
DA:125,14
DA:126,67
DA:127,14
DA:128,53
DA:129,4
DA:130,49
DA:131,5
DA:132,44
DA:133,0
DA:134,44
DA:135,0
DA:136,44
DA:137,0
DA:138,44
DA:139,0
DA:140,44
DA:141,4
DA:142,40
DA:143,0
DA:144,40
DA:145,0
DA:146,40
DA:147,0
DA:148,40
DA:149,0
DA:150,40
DA:151,0
DA:152,40
DA:153,0
DA:154,40
DA:155,0
DA:156,40
DA:157,0
DA:158,40
DA:159,0
DA:160,40
DA:161,0
DA:162,40
DA:163,0
DA:164,40
DA:165,0
DA:166,40
DA:167,2
DA:168,38
DA:169,4
DA:173,34
DA:177,450
DA:182,0
DA:183,0
DA:184,0
DA:185,0
DA:186,0
DA:187,0
DA:188,0
DA:189,0
DA:190,0
DA:191,0
DA:192,0
DA:193,0
DA:194,0
DA:195,0
DA:196,0
DA:197,0
DA:198,0
DA:199,0
DA:200,0
DA:201,513
DA:204,450
DA:205,450
DA:206,450
DA:207,450
DA:208,2338
DA:210,2338
DA:213,450
DA:216,450
DA:217,450
DA:218,450
DA:219,450
DA:223,0
DA:227,450
DA:229,900
DA:230,453
DA:233,0
DA:235,0
DA:236,0
DA:238,0
DA:242,259
DA:244,259
DA:245,259
DA:246,259
DA:247,259
DA:248,259
DA:249,205
DA:250,205
DA:251,196
DA:252,196
DA:253,196
DA:254,196
DA:255,196
DA:256,196
DA:257,177
DA:259,0
DA:263,399
DA:265,399
DA:266,355
DA:267,50
DA:268,41
DA:269,41
DA:271,0
DA:275,114
DA:277,114
DA:278,101
DA:279,101
DA:280,101
DA:281,101
DA:282,79
DA:283,79
DA:284,24
DA:286,0
DA:289,901
DA:291,901
DA:292,720
DA:293,540
DA:294,360
DA:295,360
DA:296,180
DA:297,0
DA:299,0
DA:303,410
DA:305,410
DA:306,402
DA:307,402
DA:308,327
DA:309,248
DA:310,229
DA:311,229
DA:312,221
DA:313,210
DA:314,132
DA:315,132
DA:316,51
DA:317,39
DA:318,20
DA:319,0
DA:321,0
DA:325,726
DA:327,726
DA:328,644
DA:329,574
DA:330,574
DA:331,574
DA:332,514
DA:333,514
DA:334,448
DA:335,381
DA:336,380
DA:337,313
DA:338,305
DA:339,305
DA:340,305
DA:341,238
DA:342,230
DA:343,229
DA:344,228
DA:345,228
DA:346,227
DA:347,226
DA:348,159
DA:349,92
DA:350,91
DA:351,80
DA:352,13
DA:353,1
DA:355,0
DA:374,3
DA:376,3
DA:377,0
DA:378,0
DA:380,0
DA:384,30
DA:386,30
DA:387,30
DA:389,0
DA:393,16
DA:395,16
DA:396,14
DA:397,11
DA:398,0
DA:400,0
DA:404,25
DA:406,25
DA:407,25
DA:408,25
DA:409,0
DA:420,44
DA:422,44
DA:425,20
DA:427,20
DA:434,777
DA:436,777
DA:439,392
DA:441,392
DA:448,450
DA:450,450
DA:453,227
DA:455,227
DA:462,0
DA:464,0
DA:467,0
DA:469,0
DA:476,259
DA:478,259
DA:482,116
DA:484,116
DA:491,399
DA:493,399
DA:496,74
DA:498,74
DA:505,114
DA:507,114
DA:510,24
DA:512,24
DA:519,901
DA:521,901
DA:533,30
DA:535,30
DA:547,3
DA:549,3
DA:552,3
DA:554,3
DA:561,16
DA:563,16
DA:566,10
DA:568,10
DA:603,25
DA:605,25
DA:608,8
DA:610,8
LF:270
LH:208
end_of_record
TN:
SF:/root/project/source/detail/serialization/defined_name.hpp
FNF:0
FNH:0
LF:0
LH:0
end_of_record
TN:
SF:/root/project/source/detail/serialization/excel_thumbnail.hpp
FNL:0,34,454
FNA:0,250,_ZN4xlnt15excel_thumbnailEv
FNF:1
FNH:1
BRDA:451,0,0,4
BRDA:451,0,1,246
BRDA:451,0,2,4
BRDA:451,0,3,0
BRDA:451,0,4,4
BRDA:451,e0,5,0
BRDA:451,0,6,0
BRDA:451,0,7,0
BRF:8
BRH:4
DA:34,250
DA:451,258
DA:453,250
LF:3
LH:3
end_of_record
TN:
SF:/root/project/source/detail/serialization/open_stream.cpp
FNL:0,35,42
FNA:0,69,_ZN4xlnt6detail11open_streamERSt14basic_ifstreamIcSt11char_traitsIcEERKNSt7__cxx1112basic_stringIcS3_SaIcEEE
FNL:1,44,51
FNA:1,34,_ZN4xlnt6detail11open_streamERSt14basic_ofstreamIcSt11char_traitsIcEERKNSt7__cxx1112basic_stringIcS3_SaIcEEE
FNL:2,66,81
FNA:2,0,_ZN4xlnt6detail11open_streamERSt14basic_ifstreamIcSt11char_traitsIcEESt17basic_string_viewIDuS2_IDuEE
FNL:3,83,98
FNA:3,0,_ZN4xlnt6detail11open_streamERSt14basic_ofstreamIcSt11char_traitsIcEESt17basic_string_viewIDuS2_IDuEE
FNF:4
FNH:2
BRDA:71,0,0,-
BRDA:71,e0,1,-
BRDA:71,0,2,-
BRDA:71,e0,3,-
BRDA:88,0,0,-
BRDA:88,e0,1,-
BRDA:88,0,2,-
BRDA:88,e0,3,-
BRF:8
BRH:0
DA:35,69
DA:40,69
DA:42,69
DA:44,34
DA:49,34
DA:51,34
DA:66,0
DA:71,0
DA:81,0
DA:83,0
DA:88,0
DA:98,0
LF:12
LH:6
end_of_record
TN:
SF:/root/project/source/detail/serialization/parsers.hpp
FNL:0,107,122
FNA:0,3723,_ZN4xlnt6detail5parseIdLb1EEESt4errcRKNSt7__cxx1112basic_stringIcSt11char_traitsIcESaIcEEERT_Pmc
FNA:0,3,_ZN4xlnt6detail5parseIfLb1EEESt4errcRKNSt7__cxx1112basic_stringIcSt11char_traitsIcESaIcEEERT_Pmc
FNL:1,48,64
FNA:1,1,_ZN4xlnt6detail5parseIiLb1EEESt4errcPKcRT_PS4_i
FNA:1,3,_ZN4xlnt6detail5parseIjLb1EEESt4errcPKcRT_PS4_i
FNA:1,1,_ZN4xlnt6detail5parseIlLb1EEESt4errcPKcRT_PS4_i
FNA:1,3,_ZN4xlnt6detail5parseImLb1EEESt4errcPKcRT_PS4_i
FNA:1,1,_ZN4xlnt6detail5parseIxLb1EEESt4errcPKcRT_PS4_i
FNA:1,3,_ZN4xlnt6detail5parseIyLb1EEESt4errcPKcRT_PS4_i
FNL:2,67,83
FNA:2,2,_ZN4xlnt6detail5parseIhLb1EEESt4errcRKNSt7__cxx1112basic_stringIcSt11char_traitsIcESaIcEEERT_Pmi
FNA:2,2745,_ZN4xlnt6detail5parseIiLb1EEESt4errcRKNSt7__cxx1112basic_stringIcSt11char_traitsIcESaIcEEERT_Pmi
FNA:2,2154,_ZN4xlnt6detail5parseIjLb1EEESt4errcRKNSt7__cxx1112basic_stringIcSt11char_traitsIcESaIcEEERT_Pmi
FNA:2,3,_ZN4xlnt6detail5parseIlLb1EEESt4errcRKNSt7__cxx1112basic_stringIcSt11char_traitsIcESaIcEEERT_Pmi
FNA:2,245,_ZN4xlnt6detail5parseImLb1EEESt4errcRKNSt7__cxx1112basic_stringIcSt11char_traitsIcESaIcEEERT_Pmi
FNA:2,1463,_ZN4xlnt6detail5parseIxLb1EEESt4errcRKNSt7__cxx1112basic_stringIcSt11char_traitsIcESaIcEEERT_Pmi
FNA:2,3,_ZN4xlnt6detail5parseIyLb1EEESt4errcRKNSt7__cxx1112basic_stringIcSt11char_traitsIcESaIcEEERT_Pmi
FNL:3,89,104
FNA:3,6,_ZN4xlnt6detail5parseIdLb1EEESt4errcPKcRT_PS4_c
FNA:3,4,_ZN4xlnt6detail5parseIfLb1EEESt4errcPKcRT_PS4_c
FNF:4
FNH:4
BRDA:58,0,0,12
BRDA:58,0,1,0
BRDA:77,0,0,57
BRDA:77,0,1,6558
BRDA:98,0,0,6
BRDA:98,0,1,4
BRDA:116,0,0,17
BRDA:116,0,1,3709
BRF:8
BRH:7
DA:48,12
DA:50,12
DA:56,12
DA:58,12
DA:60,12
DA:63,12
DA:67,6615
DA:69,6615
DA:75,6615
DA:77,6615
DA:79,57
DA:82,6615
DA:89,10
DA:91,10
DA:96,10
DA:98,10
DA:100,6
DA:103,10
DA:107,3726
DA:109,3726
DA:114,3726
DA:116,3726
DA:118,17
DA:121,3726
LF:24
LH:24
end_of_record
TN:
SF:/root/project/source/detail/serialization/serialisation_helpers.cpp
FNL:0,13,16
FNA:0,3446,_ZN4xlnt6detail9serialiseB5cxx11Ed
FNL:1,18,24
FNA:1,3720,_ZN4xlnt6detail11deserialiseERKNSt7__cxx1112basic_stringIcSt11char_traitsIcESaIcEEEPm
FNL:2,26,32
FNA:2,4,_ZN4xlnt6detail11deserialiseEPKcPS2_
FNF:3
FNH:3
BRDA:20,0,0,0
BRDA:20,0,1,3720
BRDA:22,0,0,3720
BRDA:22,e0,1,0
BRDA:28,0,0,0
BRDA:28,0,1,4
BRDA:30,0,0,4
BRDA:30,e0,1,0
BRF:8
BRH:4
DA:13,3446
DA:15,3446
DA:18,3720
DA:20,3720
DA:21,3720
DA:22,3720
DA:23,3720
DA:26,4
DA:28,4
DA:29,4
DA:30,4
DA:31,4
LF:12
LH:12
end_of_record
TN:
SF:/root/project/source/detail/serialization/serialisation_helpers.hpp
FNL:0,27,30
FNA:0,2046,_ZN4xlnt6detail14Cell_ReferenceC2Ejj
FNL:1,34,55
FNA:1,2046,_ZN4xlnt6detail14Cell_ReferenceC2EjRKNSt7__cxx1112basic_stringIcSt11char_traitsIcESaIcEEE
FNF:2
FNH:2
BRDA:43,0,0,0
BRDA:43,0,1,2046
BRDA:48,0,0,-
BRDA:48,0,1,-
BRF:4
BRH:1
DA:27,2046
DA:28,2046
DA:30,2046
DA:34,2046
DA:35,2046
DA:40,2046
DA:41,2046
DA:42,2046
DA:43,2046
DA:45,0
DA:46,0
DA:47,0
DA:48,0
DA:50,0
DA:51,0
DA:54,2046
DA:55,2046
LF:17
LH:11
end_of_record
TN:
SF:/root/project/source/detail/serialization/vector_streambuf.cpp
FNL:0,107,123
FNA:0,3685,_ZN4xlnt6detail17vector_istreambuf7seekposESt4fposI11__mbstate_tESt13_Ios_Openmode
FNL:1,125,129
FNA:1,74,_ZN4xlnt6detail17vector_ostreambufC2ERSt6vectorIhSaIhEE
FNL:2,131,140
FNA:2,0,_ZN4xlnt6detail17vector_ostreambuf8overflowEi
FNL:3,142,159
FNA:3,40301,_ZN4xlnt6detail17vector_ostreambuf6xsputnEPKcl
FNL:4,161,198
FNA:4,4525,_ZN4xlnt6detail17vector_ostreambuf7seekoffElSt12_Ios_SeekdirSt13_Ios_Openmode
FNL:5,200,216
FNA:5,11039,_ZN4xlnt6detail17vector_ostreambuf7seekposESt4fposI11__mbstate_tESt13_Ios_Openmode
FNL:6,218,228
FNA:6,271,_ZN4xlnt6detail9to_vectorERSi
FNL:7,230,238
FNA:7,0,_ZN4xlnt6detail9to_streamERKSt6vectorIhSaIhEERSo
FNL:8,240,244
FNA:8,0,_ZN4xlnt6detaillsERSoRKSt6vectorIhSaIhEE
FNL:9,32,36
FNA:9,129,_ZN4xlnt6detail17vector_istreambufC2ERKSt6vectorIhSaIhEE
FNL:10,38,46
FNA:10,2648349,_ZN4xlnt6detail17vector_istreambuf9underflowEv
FNL:11,48,56
FNA:11,6267357,_ZN4xlnt6detail17vector_istreambuf5uflowEv
FNL:12,58,66
FNA:12,0,_ZN4xlnt6detail17vector_istreambuf9showmanycEv
FNL:13,68,105
FNA:13,314,_ZN4xlnt6detail17vector_istreambuf7seekoffElSt12_Ios_SeekdirSt13_Ios_Openmode
FNF:14
FNH:10
BRDA:40,0,0,45
BRDA:40,0,1,2648304
BRDA:50,0,0,0
BRDA:50,0,1,6267357
BRDA:60,0,0,-
BRDA:60,0,1,-
BRDA:70,0,0,190
BRDA:70,0,1,124
BRDA:74,0,0,62
BRDA:74,0,1,62
BRDA:79,0,0,0
BRDA:79,0,1,314
BRDA:81,0,0,-
BRDA:81,0,1,-
BRDA:91,0,0,168
BRDA:91,0,1,146
BRDA:93,0,0,0
BRDA:93,0,1,168
BRDA:109,0,0,0
BRDA:109,0,1,3685
BRDA:113,0,0,0
BRDA:113,0,1,3685
BRDA:133,0,0,-
BRDA:133,0,1,-
BRDA:135,0,0,-
BRDA:135,e0,1,-
BRDA:144,0,0,32
BRDA:144,0,1,40269
BRDA:152,0,0,40269
BRDA:152,e0,1,0
BRDA:155,0,0,40301
BRDA:155,e0,1,0
BRDA:163,0,0,4107
BRDA:163,0,1,418
BRDA:167,0,0,0
BRDA:167,0,1,418
BRDA:172,0,0,0
BRDA:172,0,1,4525
BRDA:174,0,0,-
BRDA:174,0,1,-
BRDA:184,0,0,4012
BRDA:184,0,1,513
BRDA:186,0,0,0
BRDA:186,0,1,4012
BRDA:202,0,0,0
BRDA:202,0,1,11039
BRDA:206,0,0,0
BRDA:206,0,1,11039
BRDA:220,0,0,0
BRDA:220,0,1,271
BRDA:222,0,0,-
BRDA:222,e0,1,-
BRDA:222,0,2,-
BRDA:222,e0,3,-
BRDA:227,0,0,271
BRDA:227,e0,1,0
BRDA:232,0,0,-
BRDA:232,0,1,-
BRDA:234,0,0,-
BRDA:234,e0,1,-
BRDA:234,0,2,-
BRDA:234,e0,3,-
BRF:62
BRH:28
DA:32,129
DA:33,129
DA:34,129
DA:36,129
DA:38,2648349
DA:40,2648349
DA:42,45
DA:45,2648304
DA:48,6267357
DA:50,6267357
DA:52,0
DA:55,6267357
DA:58,0
DA:60,0
DA:62,0
DA:65,0
DA:68,314
DA:70,314
DA:72,190
DA:74,124
DA:76,62
DA:79,314
DA:81,0
DA:83,0
DA:84,0
DA:88,0
DA:91,314
DA:93,168
DA:95,0
DA:96,0
DA:100,168
DA:104,314
DA:107,3685
DA:109,3685
DA:111,0
DA:113,3685
DA:115,0
DA:119,3685
DA:122,3685
DA:125,74
DA:126,74
DA:127,74
DA:129,74
DA:131,0
DA:133,0
DA:135,0
DA:136,0
DA:139,0
DA:142,40301
DA:144,40301
DA:146,32
DA:150,40269
DA:151,40269
DA:152,40269
DA:155,40301
DA:156,40301
DA:158,40301
DA:161,4525
DA:163,4525
DA:165,4107
DA:167,418
DA:169,0
DA:172,4525
DA:174,0
DA:176,0
DA:177,0
DA:181,0
DA:184,4525
DA:186,4012
DA:188,0
DA:189,0
DA:193,4012
DA:197,4525
DA:200,11039
DA:202,11039
DA:204,0
DA:206,11039
DA:208,0
DA:212,11039
DA:215,11039
DA:218,271
DA:220,271
DA:222,0
DA:226,271
DA:227,542
DA:230,0
DA:232,0
DA:234,0
DA:237,0
DA:238,0
DA:240,0
DA:242,0
DA:243,0
LF:93
LH:57
end_of_record
TN:
SF:/root/project/source/detail/serialization/vector_streambuf.hpp
FNF:0
FNH:0
LF:0
LH:0
end_of_record
TN:
SF:/root/project/source/detail/serialization/xlsx_consumer.cpp
FNL:0,1025,1025
FNA:0,50,_ZZN4xlnt6detail13xlsx_consumer18read_worksheet_endERKNSt7__cxx1112basic_stringIcSt11char_traitsIcESaIcEEEENKUlRKNS_12relationshipEE_clESC_
FNL:1,123,133
FNA:1,433,_ZN12_GLOBAL__N_117set_style_by_xfidERKSt6vectorISt4pairIN4xlnt6detail10style_implEmESaIS5_EEmRNS2_8optionalINSt7__cxx1112basic_stringIcSt11char_traitsIcESaIcEEEEE
FNL:2,1392,1395
FNA:2,199515,_ZN4xlnt6detail13xlsx_consumer6parserEv
FNL:3,1397,1622
FNA:3,147,_ZN4xlnt6detail13xlsx_consumer8has_cellEv
FNL:4,142,169
FNA:4,1479,_ZN12_GLOBAL__N_116type_from_stringERKNSt7__cxx1112basic_stringIcSt11char_traitsIcESaIcEEE
FNL:5,1624,1663
FNA:5,1164,_ZN4xlnt6detail13xlsx_consumer18read_relationshipsERKNS_4pathE
FNL:6,1665,1672
FNA:6,1,_ZN4xlnt6detail13xlsx_consumer15read_stylesheetERKNSt7__cxx1112basic_stringIcSt11char_traitsIcESaIcEEE
FNL:7,1674,1813
FNA:7,663,_ZN4xlnt6detail13xlsx_consumer9read_partERKSt6vectorINS_12relationshipESaIS3_EE
FNL:8,171,279
FNA:8,2046,_ZN12_GLOBAL__N_110parse_cellEjPN3xml6parserERSt13unordered_mapINSt7__cxx1112basic_stringIcSt11char_traitsIcESaIcEEES9_St4hashIS9_ESt8equal_toIS9_ESaISt4pairIKS9_S9_EEERS3_IiS9_SA_IiESC_IiESaISE_IKiS9_EEE
FNL:9,1815,1850
FNA:9,96,_ZN4xlnt6detail13xlsx_consumer17populate_workbookEb
FNL:10,1854,1889
FNA:10,96,_ZN4xlnt6detail13xlsx_consumer18read_content_typesEv
FNL:11,1891,1910
FNA:11,84,_ZN4xlnt6detail13xlsx_consumer20read_core_propertiesEv
FNL:12,1912,1925
FNA:12,84,_ZN4xlnt6detail13xlsx_consumer24read_extended_propertiesEv
FNL:13,1927,1942
FNA:13,4,_ZN4xlnt6detail13xlsx_consumer22read_custom_propertiesEv
FNL:14,1944,2277
FNA:14,96,_ZN4xlnt6detail13xlsx_consumer20read_office_documentERKNSt7__cxx1112basic_stringIcSt11char_traitsIcESaIcEEE
FNL:15,2256,2258
FNA:15,172,_ZZN4xlnt6detail13xlsx_consumer20read_office_documentERKNSt7__cxx1112basic_stringIcSt11char_traitsIcESaIcEEEENKUlRKSt4pairIS7_S7_EE_clESD_
FNL:16,2281,2283
FNA:16,0,_ZN4xlnt6detail13xlsx_consumer22read_calculation_chainEv
FNL:17,2285,2287
FNA:17,0,_ZN4xlnt6detail13xlsx_consumer15read_chartsheetERKNSt7__cxx1112basic_stringIcSt11char_traitsIcESaIcEEE
FNL:18,2289,2291
FNA:18,0,_ZN4xlnt6detail13xlsx_consumer16read_connectionsEv
FNL:19,2293,2295
FNA:19,0,_ZN4xlnt6detail13xlsx_consumer20read_custom_propertyEv
FNL:20,2297,2299
FNA:20,0,_ZN4xlnt6detail13xlsx_consumer24read_custom_xml_mappingsEv
FNL:21,2301,2303
FNA:21,0,_ZN4xlnt6detail13xlsx_consumer16read_dialogsheetERKNSt7__cxx1112basic_stringIcSt11char_traitsIcESaIcEEE
FNL:22,2305,2307
FNA:22,0,_ZN4xlnt6detail13xlsx_consumer33read_external_workbook_referencesEv
FNL:23,2309,2311
FNA:23,0,_ZN4xlnt6detail13xlsx_consumer16read_pivot_tableEv
FNL:24,2313,2338
FNA:24,69,_ZN4xlnt6detail13xlsx_consumer24read_shared_string_tableEv
FNL:25,2340,2342
FNA:25,0,_ZN4xlnt6detail13xlsx_consumer37read_shared_workbook_revision_headersEv
FNL:26,2344,2346
FNA:26,0,_ZN4xlnt6detail13xlsx_consumer20read_shared_workbookEv
FNL:27,2348,2350
FNA:27,0,_ZN4xlnt6detail13xlsx_consumer30read_shared_workbook_user_dataEv
FNL:28,2352,3088
FNA:28,85,_ZN4xlnt6detail13xlsx_consumer15read_stylesheetEv
FNL:29,282,358
FNA:29,1590,_ZN12_GLOBAL__N_19parse_rowEPN3xml6parserERSt6vectorIN4xlnt6detail4CellESaIS6_EERSt13unordered_mapINSt7__cxx1112basic_stringIcSt11char_traitsIcESaIcEEESG_St4hashISG_ESt8equal_toISG_ESaISt4pairIKSG_SG_EEERSA_IiSG_SH_IiESJ_IiESaISL_IKiSG_EEE
FNL:30,3031,3031
FNA:30,19911,_ZZN4xlnt6detail13xlsx_consumer15read_stylesheetEvENKUlRKSt4pairINS0_10style_implEmEE_clES6_
FNL:31,3090,3106
FNA:31,72,_ZN4xlnt6detail13xlsx_consumer10read_themeEv
FNL:32,3108,3110
FNA:32,0,_ZN4xlnt6detail13xlsx_consumer26read_volatile_dependenciesEv
FNL:33,3114,3116
FNA:33,14,_ZN4xlnt6detail13xlsx_consumer17read_vml_drawingsENS_9worksheetE
FNL:34,3118,3163
FNA:34,14,_ZN4xlnt6detail13xlsx_consumer13read_commentsENS_9worksheetE
FNL:35,3165,3185
FNA:35,3,_ZN4xlnt6detail13xlsx_consumer13read_drawingsENS_9worksheetERKNS_4pathE
FNL:36,3174,3174
FNA:36,2,_ZZN4xlnt6detail13xlsx_consumer13read_drawingsENS_9worksheetERKNS_4pathEENKUlRKNS_12relationshipEE_clES8_
FNL:37,3189,3191
FNA:37,0,_ZN4xlnt6detail13xlsx_consumer18read_unknown_partsEv
FNL:38,3193,3195
FNA:38,0,_ZN4xlnt6detail13xlsx_consumer26read_unknown_relationshipsEv
FNL:39,3197,3203
FNA:39,46,_ZN4xlnt6detail13xlsx_consumer10read_imageERKNS_4pathE
FNL:40,3205,3211
FNA:40,7,_ZN4xlnt6detail13xlsx_consumer11read_binaryERKNS_4pathE
FNL:41,3213,3224
FNA:41,5169,_ZN4xlnt6detail13xlsx_consumer9read_textB5cxx11Ev
FNL:42,3226,3288
FNA:42,973,_ZN4xlnt6detail13xlsx_consumer12read_variantEv
FNL:43,3290,3299
FNA:43,392,_ZN4xlnt6detail13xlsx_consumer15skip_attributesERKSt6vectorINSt7__cxx1112basic_stringIcSt11char_traitsIcESaIcEEESaIS8_EE
FNL:44,3301,3310
FNA:44,207,_ZN4xlnt6detail13xlsx_consumer15skip_attributesERKSt6vectorIN3xml5qnameESaIS4_EE
FNL:45,3312,3315
FNA:45,1491,_ZN4xlnt6detail13xlsx_consumer15skip_attributesEv
FNL:46,3317,3323
FNA:46,265,_ZN4xlnt6detail13xlsx_consumer14skip_attributeERKN3xml5qnameE
FNL:47,3325,3331
FNA:47,2027,_ZN4xlnt6detail13xlsx_consumer14skip_attributeERKNSt7__cxx1112basic_stringIcSt11char_traitsIcESaIcEEE
FNL:48,3333,3348
FNA:48,475,_ZN4xlnt6detail13xlsx_consumer22skip_remaining_contentERKN3xml5qnameE
FNL:49,3350,3354
FNA:49,23920,_ZN4xlnt6detail13xlsx_consumer10in_elementERKN3xml5qnameE
FNL:50,3356,3366
FNA:50,11057,_ZN4xlnt6detail13xlsx_consumer20expect_start_elementEN3xml7contentE
FNL:51,3368,3376
FNA:51,6760,_ZN4xlnt6detail13xlsx_consumer20expect_start_elementERKN3xml5qnameENS2_7contentE
FNL:52,3378,3383
FNA:52,17694,_ZN4xlnt6detail13xlsx_consumer18expect_end_elementERKN3xml5qnameE
FNL:53,3385,3392
FNA:53,11,_ZN4xlnt6detail13xlsx_consumer18unexpected_elementERKN3xml5qnameE
FNL:54,3394,3550
FNA:54,755,_ZN4xlnt6detail13xlsx_consumer14read_rich_textERKN3xml5qnameE
FNL:55,3552,3581
FNA:55,1342,_ZN4xlnt6detail13xlsx_consumer10read_colorEv
FNL:56,3583,3586
FNA:56,2059,_ZN4xlnt6detail13xlsx_consumer8manifestEv
FNL:57,361,396
FNA:57,119,_ZN12_GLOBAL__N_116parse_sheet_dataEPN3xml6parserERSt13unordered_mapINSt7__cxx1112basic_stringIcSt11char_traitsIcESaIcEEES9_St4hashIS9_ESt8equal_toIS9_ESaISt4pairIKS9_S9_EEERS3_IiS9_SA_IiESC_IiESaISE_IKiS9_EEE
FNL:58,420,424
FNA:58,102,_ZN4xlnt6detail13xlsx_consumerC2ERNS_8workbookE
FNL:59,426,428
FNA:59,102,_ZN4xlnt6detail13xlsx_consumerD2Ev
FNL:60,430,434
FNA:60,93,_ZN4xlnt6detail13xlsx_consumer4readERSi
FNL:61,436,440
FNA:61,3,_ZN4xlnt6detail13xlsx_consumer4openERSi
FNL:62,442,445
FNA:62,145,_ZN4xlnt6detail13xlsx_consumer9read_cellEv
FNL:63,447,456
FNA:63,119,_ZN4xlnt6detail13xlsx_consumer14read_worksheetERKNSt7__cxx1112basic_stringIcSt11char_traitsIcESaIcEEE
FNL:64,458,527
FNA:64,122,_ZN4xlnt6detail18read_defined_namesENS_9worksheetESt6vectorINS0_12defined_nameESaIS3_EE
FNL:65,529,853
FNA:65,122,_ZN4xlnt6detail13xlsx_consumer20read_worksheet_beginERKNSt7__cxx1112basic_stringIcSt11char_traitsIcESaIcEEE
FNL:66,541,543
FNA:66,172,_ZZN4xlnt6detail13xlsx_consumer20read_worksheet_beginERKNSt7__cxx1112basic_stringIcSt11char_traitsIcESaIcEEEENKUlRKSt4pairIS7_S7_EE_clESD_
FNL:67,57,67
FNA:67,495,_ZN12_GLOBAL__N_121string_arr_loop_equalILm10EEEbRKNSt7__cxx1112basic_stringIcSt11char_traitsIcESaIcEEERAT__Kc
FNA:67,2229,_ZN12_GLOBAL__N_121string_arr_loop_equalILm13EEEbRKNSt7__cxx1112basic_stringIcSt11char_traitsIcESaIcEEERAT__Kc
FNA:67,15450,_ZN12_GLOBAL__N_121string_arr_loop_equalILm2EEEbRKNSt7__cxx1112basic_stringIcSt11char_traitsIcESaIcEEERAT__Kc
FNA:67,1158,_ZN12_GLOBAL__N_121string_arr_loop_equalILm3EEEbRKNSt7__cxx1112basic_stringIcSt11char_traitsIcESaIcEEERAT__Kc
FNA:67,15,_ZN12_GLOBAL__N_121string_arr_loop_equalILm4EEEbRKNSt7__cxx1112basic_stringIcSt11char_traitsIcESaIcEEERAT__Kc
FNA:67,530,_ZN12_GLOBAL__N_121string_arr_loop_equalILm6EEEbRKNSt7__cxx1112basic_stringIcSt11char_traitsIcESaIcEEERAT__Kc
FNA:67,22,_ZN12_GLOBAL__N_121string_arr_loop_equalILm7EEEbRKNSt7__cxx1112basic_stringIcSt11char_traitsIcESaIcEEERAT__Kc
FNL:68,70,78
FNA:68,4958,_ZN12_GLOBAL__N_112string_equalILm10EEEbRKNSt7__cxx1112basic_stringIcSt11char_traitsIcESaIcEEERAT__Kc
FNA:68,3843,_ZN12_GLOBAL__N_112string_equalILm13EEEbRKNSt7__cxx1112basic_stringIcSt11char_traitsIcESaIcEEERAT__Kc
FNA:68,17807,_ZN12_GLOBAL__N_112string_equalILm2EEEbRKNSt7__cxx1112basic_stringIcSt11char_traitsIcESaIcEEERAT__Kc
FNA:68,6634,_ZN12_GLOBAL__N_112string_equalILm3EEEbRKNSt7__cxx1112basic_stringIcSt11char_traitsIcESaIcEEERAT__Kc
FNA:68,15,_ZN12_GLOBAL__N_112string_equalILm4EEEbRKNSt7__cxx1112basic_stringIcSt11char_traitsIcESaIcEEERAT__Kc
FNA:68,4460,_ZN12_GLOBAL__N_112string_equalILm6EEEbRKNSt7__cxx1112basic_stringIcSt11char_traitsIcESaIcEEERAT__Kc
FNA:68,2755,_ZN12_GLOBAL__N_112string_equalILm7EEEbRKNSt7__cxx1112basic_stringIcSt11char_traitsIcESaIcEEERAT__Kc
FNL:69,795,801
FNA:69,90,_ZZN4xlnt6detail13xlsx_consumer20read_worksheet_beginERKNSt7__cxx1112basic_stringIcSt11char_traitsIcESaIcEEEENKUlRN3xml6parserEE_clESC_
FNL:70,80,93
FNA:70,80325,_ZN12_GLOBAL__N_12qnERKNSt7__cxx1112basic_stringIcSt11char_traitsIcESaIcEEES7_
FNL:71,803,809
FNA:71,90,_ZZN4xlnt6detail13xlsx_consumer20read_worksheet_beginERKNSt7__cxx1112basic_stringIcSt11char_traitsIcESaIcEEEENKUlRN3xml6parserEE0_clESC_
FNL:72,855,929
FNA:72,119,_ZN4xlnt6detail13xlsx_consumer24read_worksheet_sheetdataEv
FNL:73,931,1390
FNA:73,120,_ZN4xlnt6detail13xlsx_consumer18read_worksheet_endERKNSt7__cxx1112basic_stringIcSt11char_traitsIcESaIcEEE
FNL:74,98,116
FNA:74,5188,_ZN12_GLOBAL__N_17is_trueERKNSt7__cxx1112basic_stringIcSt11char_traitsIcESaIcEEE
FNF:75
FNH:61
BRDA:59,0,0,46006
BRDA:59,0,1,12415
BRDA:61,0,0,7484
BRDA:61,0,1,38522
BRDA:72,0,0,20573
BRDA:72,0,1,19899
BRDA:83,0,0,3
BRDA:83,0,1,80322
BRDA:83,0,2,3
BRDA:83,0,3,0
BRDA:87,0,0,80325
BRDA:87,e0,1,0
BRDA:87,0,2,323
BRDA:87,0,3,80002
BRDA:89,0,0,323
BRDA:89,e0,1,0
BRDA:89,0,2,323
BRDA:89,e0,3,0
BRDA:89,0,4,323
BRDA:89,e0,5,0
BRDA:100,0,0,3059
BRDA:100,0,1,2129
BRDA:100,0,2,386
BRDA:100,0,3,2673
BRDA:100,0,4,2515
BRDA:100,0,5,2673
BRDA:126,0,0,2428
BRDA:126,0,1,433
BRDA:128,0,0,409
BRDA:128,0,1,2019
BRDA:130,0,0,409
BRDA:130,e0,1,0
BRDA:144,0,0,1460
BRDA:144,0,1,19
BRDA:148,0,0,2
BRDA:148,0,1,17
BRDA:152,0,0,0
BRDA:152,0,1,17
BRDA:156,0,0,0
BRDA:156,0,1,17
BRDA:160,0,0,2
BRDA:160,0,1,15
BRDA:164,0,0,15
BRDA:164,0,1,0
BRDA:174,0,0,2046
BRDA:174,e0,1,0
BRDA:174,0,2,4379
BRDA:174,0,3,2046
BRDA:176,0,0,4379
BRDA:176,e0,1,0
BRDA:176,0,2,2046
BRDA:176,0,3,2333
BRDA:180,0,0,2333
BRDA:180,e0,1,0
BRDA:180,0,2,1479
BRDA:180,0,3,854
BRDA:182,0,0,1479
BRDA:182,e0,1,0
BRDA:184,0,0,854
BRDA:184,e0,1,0
BRDA:184,0,2,850
BRDA:184,0,3,4
BRDA:186,0,0,850
BRDA:186,e0,1,0
BRDA:188,0,0,4
BRDA:188,e0,1,0
BRDA:188,0,2,4
BRDA:188,0,3,0
BRDA:190,0,0,4
BRDA:190,e0,1,0
BRDA:192,0,0,-
BRDA:192,e0,1,-
BRDA:192,0,2,-
BRDA:192,0,3,-
BRDA:194,0,0,-
BRDA:194,e0,1,-
BRDA:202,0,0,7275
BRDA:202,0,1,2046
BRDA:204,0,0,7275
BRDA:204,e0,1,0
BRDA:205,0,0,1597
BRDA:205,0,1,3643
BRDA:205,0,2,2035
BRDA:205,0,3,0
BRDA:208,0,0,1597
BRDA:208,e0,1,0
BRDA:208,0,2,49
BRDA:208,0,3,1548
BRDA:208,0,4,49
BRDA:208,e0,5,0
BRDA:208,0,6,49
BRDA:208,e0,7,0
BRDA:208,0,8,11
BRDA:208,0,9,38
BRDA:208,0,10,49
BRDA:208,0,11,1548
BRDA:208,0,12,49
BRDA:208,0,13,1548
BRDA:208,0,14,11
BRDA:208,0,15,1586
BRDA:208,0,16,0
BRDA:208,0,17,0
BRDA:208,0,18,0
BRDA:208,0,19,0
BRDA:212,0,0,11
BRDA:212,e0,1,0
BRDA:212,0,2,11
BRDA:212,e0,3,0
BRDA:212,0,4,11
BRDA:212,e0,5,0
BRDA:212,0,6,6
BRDA:212,0,7,5
BRDA:212,0,8,6
BRDA:212,e0,9,0
BRDA:212,0,10,6
BRDA:212,e0,11,0
BRDA:212,0,12,4
BRDA:212,0,13,2
BRDA:212,0,14,6
BRDA:212,0,15,5
BRDA:212,0,16,6
BRDA:212,0,17,5
BRDA:212,0,18,11
BRDA:212,0,19,0
BRDA:212,0,20,11
BRDA:212,0,21,0
BRDA:212,0,22,4
BRDA:212,0,23,7
BRDA:212,0,24,0
BRDA:212,0,25,0
BRDA:212,0,26,0
BRDA:212,0,27,0
BRDA:212,0,28,0
BRDA:212,0,29,0
BRDA:212,0,30,0
BRDA:212,0,31,0
BRDA:214,0,0,4
BRDA:214,e0,1,0
BRDA:214,0,2,4
BRDA:214,e0,3,0
BRDA:215,0,0,4
BRDA:215,e0,1,0
BRDA:215,0,2,4
BRDA:215,e0,3,0
BRDA:228,0,0,1589
BRDA:228,0,1,446
BRDA:231,0,0,1589
BRDA:231,e0,1,0
BRDA:231,0,2,1544
BRDA:231,0,3,45
BRDA:233,0,0,1544
BRDA:233,e0,1,0
BRDA:236,0,0,45
BRDA:236,e0,1,0
BRDA:236,0,2,45
BRDA:236,0,3,0
BRDA:238,0,0,45
BRDA:238,e0,1,0
BRDA:240,0,0,45
BRDA:240,e0,1,0
BRDA:240,0,2,45
BRDA:240,e0,3,0
BRDA:240,0,4,7
BRDA:240,0,5,38
BRDA:242,0,0,7
BRDA:242,e0,1,0
BRDA:242,0,2,7
BRDA:242,e0,3,0
BRDA:242,0,4,7
BRDA:242,e0,5,0
BRDA:243,0,0,7
BRDA:243,e0,1,0
BRDA:243,0,2,7
BRDA:243,e0,3,0
BRDA:243,0,4,7
BRDA:243,e0,5,0
BRDA:244,0,0,7
BRDA:244,e0,1,0
BRDA:244,0,2,2
BRDA:244,0,3,5
BRDA:246,0,0,2
BRDA:246,e0,1,0
BRDA:246,0,2,2
BRDA:246,e0,3,0
BRDA:247,0,0,2
BRDA:247,e0,1,0
BRDA:247,0,2,2
BRDA:247,e0,3,0
BRDA:249,0,0,5
BRDA:249,e0,1,0
BRDA:249,0,2,5
BRDA:249,0,3,0
BRDA:251,0,0,5
BRDA:251,e0,1,0
BRDA:251,0,2,5
BRDA:251,e0,3,0
BRDA:256,0,0,2
BRDA:256,0,1,444
BRDA:259,0,0,2
BRDA:259,e0,1,0
BRDA:259,0,2,2
BRDA:259,0,3,0
BRDA:261,0,0,2
BRDA:261,e0,1,0
BRDA:272,0,0,-
BRDA:272,e0,1,-
BRDA:272,0,2,-
BRDA:272,e0,3,-
BRDA:276,0,0,7275
BRDA:276,e0,1,0
BRDA:285,0,0,1590
BRDA:285,e0,1,0
BRDA:285,0,2,4941
BRDA:285,0,3,1590
BRDA:287,0,0,4941
BRDA:287,e0,1,0
BRDA:287,0,2,481
BRDA:287,0,3,4460
BRDA:289,0,0,481
BRDA:289,e0,1,0
BRDA:291,0,0,4460
BRDA:291,e0,1,0
BRDA:291,0,2,530
BRDA:291,0,3,3930
BRDA:293,0,0,530
BRDA:293,e0,1,0
BRDA:295,0,0,3930
BRDA:295,e0,1,0
BRDA:295,0,2,1154
BRDA:295,0,3,2776
BRDA:297,0,0,1154
BRDA:297,e0,1,0
BRDA:299,0,0,2776
BRDA:299,e0,1,0
BRDA:299,0,2,21
BRDA:299,0,3,2755
BRDA:302,0,0,21
BRDA:302,e0,1,0
BRDA:302,0,2,21
BRDA:302,0,3,0
BRDA:304,0,0,21
BRDA:304,e0,1,0
BRDA:307,0,0,2755
BRDA:307,e0,1,0
BRDA:307,0,2,22
BRDA:307,0,3,2733
BRDA:309,0,0,22
BRDA:309,e0,1,0
BRDA:311,0,0,2733
BRDA:311,e0,1,0
BRDA:311,0,2,33
BRDA:311,0,3,2700
BRDA:313,0,0,33
BRDA:313,e0,1,0
BRDA:315,0,0,2700
BRDA:315,e0,1,0
BRDA:315,0,2,0
BRDA:315,0,3,2700
BRDA:317,0,0,-
BRDA:317,e0,1,-
BRDA:319,0,0,2700
BRDA:319,e0,1,0
BRDA:319,0,2,1590
BRDA:319,0,3,1110
BRDA:321,0,0,1590
BRDA:321,e0,1,0
BRDA:323,0,0,1110
BRDA:323,e0,1,0
BRDA:323,0,2,1086
BRDA:323,0,3,24
BRDA:325,0,0,1086
BRDA:325,e0,1,0
BRDA:330,0,0,3992
BRDA:330,0,1,1590
BRDA:332,0,0,3992
BRDA:332,e0,1,0
BRDA:333,0,0,2046
BRDA:333,0,1,1590
BRDA:333,0,2,356
BRDA:333,0,3,0
BRDA:336,0,0,2046
BRDA:336,e0,1,0
BRDA:336,0,2,2046
BRDA:336,e0,3,0
BRDA:353,0,0,-
BRDA:353,e0,1,-
BRDA:353,0,2,-
BRDA:353,e0,3,-
BRDA:368,0,0,1709
BRDA:368,0,1,119
BRDA:370,0,0,1709
BRDA:370,e0,1,0
BRDA:371,0,0,1590
BRDA:371,0,1,119
BRDA:371,0,2,0
BRDA:371,0,3,0
BRDA:374,0,0,1590
BRDA:374,e0,1,0
BRDA:374,0,2,1590
BRDA:374,e0,3,0
BRDA:391,0,0,-
BRDA:391,e0,1,-
BRDA:391,0,2,-
BRDA:391,e0,3,-
BRDA:432,0,0,93
BRDA:432,e0,1,0
BRDA:432,0,2,0
BRDA:432,0,3,0
BRDA:438,0,0,3
BRDA:438,e0,1,0
BRDA:438,0,2,0
BRDA:438,0,3,0
BRDA:444,0,0,145
BRDA:444,e0,1,0
BRDA:449,0,0,119
BRDA:449,e0,1,0
BRDA:451,0,0,119
BRDA:451,0,1,0
BRDA:454,0,0,119
BRDA:454,e0,1,0
BRDA:460,0,0,19
BRDA:460,0,1,122
BRDA:462,0,0,19
BRDA:462,e0,1,0
BRDA:462,0,2,13
BRDA:462,0,3,6
BRDA:467,0,0,6
BRDA:467,e0,1,0
BRDA:467,0,2,3
BRDA:467,0,3,3
BRDA:477,0,0,4
BRDA:477,0,1,0
BRDA:482,0,0,4
BRDA:482,e0,1,0
BRDA:485,0,0,4
BRDA:485,e0,1,0
BRDA:488,0,0,4
BRDA:488,e0,1,0
BRDA:491,0,0,2
BRDA:491,0,1,2
BRDA:493,0,0,2
BRDA:493,e0,1,0
BRDA:493,0,2,2
BRDA:493,e0,3,0
BRDA:493,0,4,2
BRDA:493,e0,5,0
BRDA:500,0,0,2
BRDA:500,e0,1,0
BRDA:500,0,2,2
BRDA:500,0,3,0
BRDA:500,0,4,2
BRDA:500,0,5,0
BRDA:501,0,0,2
BRDA:501,e0,1,0
BRDA:501,0,2,2
BRDA:501,0,3,0
BRDA:503,0,0,2
BRDA:503,e0,1,0
BRDA:508,0,0,3
BRDA:508,0,1,1
BRDA:514,0,0,1
BRDA:514,0,1,3
BRDA:514,0,2,1
BRDA:514,0,3,3
BRDA:514,0,4,1
BRDA:514,0,5,3
BRDA:516,0,0,3
BRDA:516,e0,1,0
BRDA:516,0,2,1
BRDA:516,0,3,2
BRDA:519,0,0,1
BRDA:519,e0,1,0
BRDA:519,0,2,1
BRDA:519,e0,3,0
BRDA:521,0,0,2
BRDA:521,e0,1,0
BRDA:521,0,2,2
BRDA:521,0,3,0
BRDA:524,0,0,2
BRDA:524,e0,1,0
BRDA:524,0,2,2
BRDA:524,e0,3,0
BRDA:531,0,0,3
BRDA:531,0,1,119
BRDA:531,0,2,3
BRDA:531,0,3,0
BRDA:531,0,4,3
BRDA:531,0,5,119
BRDA:533,0,0,3
BRDA:533,e0,1,0
BRDA:533,0,2,3
BRDA:533,e0,3,0
BRDA:533,0,4,0
BRDA:533,0,5,0
BRDA:539,0,0,122
BRDA:539,e0,1,0
BRDA:543,0,0,122
BRDA:543,e0,1,0
BRDA:545,0,0,122
BRDA:545,e0,1,0
BRDA:547,0,0,122
BRDA:547,e0,1,0
BRDA:547,0,2,122
BRDA:547,e0,3,0
BRDA:547,0,4,122
BRDA:547,e0,5,0
BRDA:547,0,6,122
BRDA:547,e0,7,0
BRDA:548,0,0,122
BRDA:548,e0,1,0
BRDA:548,0,2,122
BRDA:548,e0,3,0
BRDA:548,0,4,122
BRDA:548,e0,5,0
BRDA:548,0,6,122
BRDA:548,e0,7,0
BRDA:548,0,8,122
BRDA:548,e0,9,0
BRDA:548,0,10,122
BRDA:548,0,11,122
BRDA:548,0,12,0
BRDA:548,0,13,0
BRDA:550,0,0,122
BRDA:550,e0,1,0
BRDA:550,0,2,122
BRDA:550,e0,3,0
BRDA:550,0,4,122
BRDA:550,e0,5,0
BRDA:552,0,0,538
BRDA:552,e0,1,0
BRDA:552,0,2,538
BRDA:552,e0,3,0
BRDA:552,0,4,538
BRDA:552,e0,5,0
BRDA:552,0,6,538
BRDA:552,e0,7,0
BRDA:552,0,8,538
BRDA:552,0,9,0
BRDA:554,0,0,538
BRDA:554,e0,1,0
BRDA:556,0,0,538
BRDA:556,e0,1,0
BRDA:556,0,2,538
BRDA:556,e0,3,0
BRDA:556,0,4,538
BRDA:556,e0,5,0
BRDA:556,0,6,24
BRDA:556,0,7,514
BRDA:559,0,0,24
BRDA:559,e0,1,0
BRDA:559,0,2,24
BRDA:559,e0,3,0
BRDA:559,0,4,0
BRDA:559,0,5,24
BRDA:561,0,0,-
BRDA:561,e0,1,-
BRDA:561,0,2,-
BRDA:561,e0,3,-
BRDA:563,0,0,24
BRDA:563,e0,1,0
BRDA:563,0,2,24
BRDA:563,e0,3,0
BRDA:563,0,4,0
BRDA:563,0,5,24
BRDA:565,0,0,-
BRDA:565,e0,1,-
BRDA:565,0,2,-
BRDA:565,e0,3,-
BRDA:567,0,0,24
BRDA:567,e0,1,0
BRDA:567,0,2,24
BRDA:567,e0,3,0
BRDA:567,0,4,0
BRDA:567,0,5,24
BRDA:569,0,0,-
BRDA:569,e0,1,-
BRDA:569,0,2,-
BRDA:569,e0,3,-
BRDA:569,0,4,-
BRDA:569,e0,5,-
BRDA:571,0,0,24
BRDA:571,e0,1,0
BRDA:571,0,2,24
BRDA:571,e0,3,0
BRDA:571,0,4,0
BRDA:571,0,5,24
BRDA:573,0,0,-
BRDA:573,e0,1,-
BRDA:573,0,2,-
BRDA:573,e0,3,-
BRDA:575,0,0,24
BRDA:575,e0,1,0
BRDA:575,0,2,24
BRDA:575,e0,3,0
BRDA:575,0,4,0
BRDA:575,0,5,24
BRDA:577,0,0,-
BRDA:577,e0,1,-
BRDA:577,0,2,-
BRDA:577,e0,3,-
BRDA:579,0,0,24
BRDA:579,e0,1,0
BRDA:579,0,2,24
BRDA:579,e0,3,0
BRDA:579,0,4,0
BRDA:579,0,5,24
BRDA:581,0,0,-
BRDA:581,e0,1,-
BRDA:581,0,2,-
BRDA:581,e0,3,-
BRDA:583,0,0,24
BRDA:583,e0,1,0
BRDA:583,0,2,24
BRDA:583,e0,3,0
BRDA:583,0,4,3
BRDA:583,0,5,21
BRDA:585,0,0,3
BRDA:585,e0,1,0
BRDA:585,0,2,3
BRDA:585,e0,3,0
BRDA:587,0,0,24
BRDA:587,e0,1,0
BRDA:587,0,2,24
BRDA:587,e0,3,0
BRDA:587,0,4,12
BRDA:587,0,5,12
BRDA:589,0,0,12
BRDA:589,e0,1,0
BRDA:589,0,2,12
BRDA:589,e0,3,0
BRDA:591,0,0,24
BRDA:591,e0,1,0
BRDA:591,0,2,24
BRDA:591,e0,3,0
BRDA:591,0,4,0
BRDA:591,0,5,24
BRDA:593,0,0,-
BRDA:593,e0,1,-
BRDA:593,0,2,-
BRDA:593,e0,3,-
BRDA:595,0,0,24
BRDA:595,e0,1,0
BRDA:596,0,0,52
BRDA:596,e0,1,0
BRDA:596,0,2,28
BRDA:596,0,3,24
BRDA:598,0,0,28
BRDA:598,e0,1,0
BRDA:600,0,0,28
BRDA:600,e0,1,0
BRDA:600,0,2,28
BRDA:600,e0,3,0
BRDA:600,0,4,28
BRDA:600,e0,5,0
BRDA:600,0,6,0
BRDA:600,0,7,28
BRDA:602,0,0,-
BRDA:602,e0,1,-
BRDA:604,0,0,28
BRDA:604,e0,1,0
BRDA:604,0,2,28
BRDA:604,e0,3,0
BRDA:604,0,4,28
BRDA:604,e0,5,0
BRDA:604,0,6,7
BRDA:604,0,7,21
BRDA:606,0,0,7
BRDA:606,e0,1,0
BRDA:606,0,2,7
BRDA:606,e0,3,0
BRDA:607,0,0,7
BRDA:607,e0,1,0
BRDA:607,0,2,7
BRDA:607,e0,3,0
BRDA:608,0,0,7
BRDA:608,e0,1,0
BRDA:608,0,2,7
BRDA:608,e0,3,0
BRDA:609,0,0,7
BRDA:609,e0,1,0
BRDA:609,0,2,7
BRDA:609,e0,3,0
BRDA:611,0,0,21
BRDA:611,e0,1,0
BRDA:611,0,2,21
BRDA:611,e0,3,0
BRDA:611,0,4,21
BRDA:611,e0,5,0
BRDA:611,0,6,21
BRDA:611,0,7,0
BRDA:613,0,0,21
BRDA:613,e0,1,0
BRDA:613,0,2,21
BRDA:613,e0,3,0
BRDA:614,0,0,21
BRDA:614,e0,1,0
BRDA:614,0,2,21
BRDA:614,e0,3,0
BRDA:618,0,0,-
BRDA:618,e0,1,-
BRDA:621,0,0,28
BRDA:621,e0,1,0
BRDA:624,0,0,514
BRDA:624,e0,1,0
BRDA:624,0,2,514
BRDA:624,e0,3,0
BRDA:624,0,4,514
BRDA:624,e0,5,0
BRDA:624,0,6,121
BRDA:624,0,7,393
BRDA:626,0,0,121
BRDA:626,e0,1,0
BRDA:628,0,0,393
BRDA:628,e0,1,0
BRDA:628,0,2,393
BRDA:628,e0,3,0
BRDA:628,0,4,393
BRDA:628,e0,5,0
BRDA:628,0,6,110
BRDA:628,0,7,283
BRDA:630,0,0,220
BRDA:630,e0,1,0
BRDA:630,0,2,110
BRDA:630,0,3,110
BRDA:632,0,0,110
BRDA:632,e0,1,0
BRDA:632,0,2,110
BRDA:632,e0,3,0
BRDA:632,0,4,110
BRDA:632,e0,5,0
BRDA:632,0,6,110
BRDA:632,e0,7,0
BRDA:635,0,0,110
BRDA:635,e0,1,0
BRDA:635,0,2,110
BRDA:635,e0,3,0
BRDA:637,0,0,110
BRDA:637,e0,1,0
BRDA:637,0,2,110
BRDA:637,e0,3,0
BRDA:637,0,4,13
BRDA:637,0,5,97
BRDA:639,0,0,13
BRDA:639,e0,1,0
BRDA:639,0,2,13
BRDA:639,e0,3,0
BRDA:639,0,4,13
BRDA:639,e0,5,0
BRDA:641,0,0,110
BRDA:641,e0,1,0
BRDA:641,0,2,110
BRDA:641,e0,3,0
BRDA:641,0,4,15
BRDA:641,0,5,95
BRDA:643,0,0,15
BRDA:643,e0,1,0
BRDA:643,0,2,15
BRDA:643,e0,3,0
BRDA:643,0,4,15
BRDA:643,e0,5,0
BRDA:646,0,0,110
BRDA:646,e0,1,0
BRDA:646,0,2,110
BRDA:646,e0,3,0
BRDA:646,0,4,13
BRDA:646,0,5,97
BRDA:648,0,0,13
BRDA:648,e0,1,0
BRDA:648,0,2,13
BRDA:648,e0,3,0
BRDA:648,0,4,13
BRDA:648,e0,5,0
BRDA:651,0,0,110
BRDA:651,e0,1,0
BRDA:651,0,2,110
BRDA:651,0,3,0
BRDA:651,0,4,4
BRDA:651,0,5,106
BRDA:651,0,6,0
BRDA:651,0,7,0
BRDA:651,0,8,0
BRDA:651,0,9,0
BRDA:652,0,0,110
BRDA:652,e0,1,0
BRDA:652,0,2,15
BRDA:652,0,3,95
BRDA:652,0,4,15
BRDA:652,e0,5,0
BRDA:652,0,6,15
BRDA:652,e0,7,0
BRDA:652,0,8,15
BRDA:652,e0,9,0
BRDA:652,0,10,4
BRDA:652,0,11,11
BRDA:652,0,12,15
BRDA:652,0,13,95
BRDA:652,0,14,15
BRDA:652,0,15,95
BRDA:652,0,16,110
BRDA:652,0,17,0
BRDA:652,0,18,0
BRDA:652,0,19,0
BRDA:652,0,20,0
BRDA:652,0,21,0
BRDA:654,0,0,4
BRDA:654,e0,1,0
BRDA:654,0,2,4
BRDA:654,e0,3,0
BRDA:654,0,4,4
BRDA:654,e0,5,0
BRDA:654,0,6,0
BRDA:654,0,7,4
BRDA:659,0,0,110
BRDA:659,e0,1,0
BRDA:659,0,2,110
BRDA:659,0,3,0
BRDA:659,0,4,77
BRDA:659,0,5,33
BRDA:659,0,6,0
BRDA:659,0,7,0
BRDA:659,0,8,0
BRDA:659,0,9,0
BRDA:660,0,0,110
BRDA:660,e0,1,0
BRDA:660,0,2,77
BRDA:660,0,3,33
BRDA:660,0,4,77
BRDA:660,e0,5,0
BRDA:660,0,6,77
BRDA:660,e0,7,0
BRDA:660,0,8,77
BRDA:660,e0,9,0
BRDA:660,0,10,77
BRDA:660,0,11,0
BRDA:660,0,12,77
BRDA:660,0,13,33
BRDA:660,0,14,77
BRDA:660,0,15,33
BRDA:660,0,16,110
BRDA:660,0,17,0
BRDA:660,0,18,0
BRDA:660,0,19,0
BRDA:660,0,20,0
BRDA:660,0,21,0
BRDA:662,0,0,77
BRDA:662,e0,1,0
BRDA:662,0,2,77
BRDA:662,e0,3,0
BRDA:665,0,0,110
BRDA:665,e0,1,0
BRDA:665,0,2,110
BRDA:665,e0,3,0
BRDA:669,0,0,176
BRDA:669,e0,1,0
BRDA:669,0,2,176
BRDA:669,e0,3,0
BRDA:669,0,4,176
BRDA:669,e0,5,0
BRDA:669,0,6,176
BRDA:669,e0,7,0
BRDA:669,0,8,66
BRDA:669,0,9,110
BRDA:671,0,0,66
BRDA:671,e0,1,0
BRDA:673,0,0,66
BRDA:673,e0,1,0
BRDA:673,0,2,66
BRDA:673,e0,3,0
BRDA:673,0,4,66
BRDA:673,e0,5,0
BRDA:673,0,6,3
BRDA:673,0,7,63
BRDA:675,0,0,3
BRDA:675,e0,1,0
BRDA:677,0,0,3
BRDA:677,e0,1,0
BRDA:677,0,2,3
BRDA:677,e0,3,0
BRDA:677,0,4,3
BRDA:677,0,5,0
BRDA:679,0,0,3
BRDA:679,e0,1,0
BRDA:679,0,2,3
BRDA:679,e0,3,0
BRDA:679,0,4,3
BRDA:679,e0,5,0
BRDA:682,0,0,3
BRDA:682,e0,1,0
BRDA:682,0,2,3
BRDA:682,e0,3,0
BRDA:682,0,4,2
BRDA:682,0,5,1
BRDA:684,0,0,2
BRDA:684,e0,1,0
BRDA:684,0,2,2
BRDA:684,e0,3,0
BRDA:684,0,4,2
BRDA:684,e0,5,0
BRDA:687,0,0,3
BRDA:687,e0,1,0
BRDA:687,0,2,3
BRDA:687,e0,3,0
BRDA:687,0,4,3
BRDA:687,0,5,0
BRDA:689,0,0,3
BRDA:689,e0,1,0
BRDA:689,0,2,3
BRDA:689,e0,3,0
BRDA:692,0,0,3
BRDA:692,e0,1,0
BRDA:692,0,2,3
BRDA:692,e0,3,0
BRDA:692,0,4,3
BRDA:692,0,5,0
BRDA:694,0,0,3
BRDA:694,e0,1,0
BRDA:694,0,2,3
BRDA:694,e0,3,0
BRDA:697,0,0,3
BRDA:697,e0,1,0
BRDA:697,0,2,3
BRDA:697,e0,3,0
BRDA:697,0,4,3
BRDA:697,0,5,0
BRDA:699,0,0,3
BRDA:699,e0,1,0
BRDA:699,0,2,3
BRDA:699,e0,3,0
BRDA:704,0,0,63
BRDA:704,e0,1,0
BRDA:704,0,2,63
BRDA:704,e0,3,0
BRDA:704,0,4,63
BRDA:704,e0,5,0
BRDA:704,0,6,63
BRDA:704,0,7,0
BRDA:708,0,0,63
BRDA:708,e0,1,0
BRDA:708,0,2,63
BRDA:708,e0,3,0
BRDA:708,0,4,60
BRDA:708,0,5,3
BRDA:710,0,0,60
BRDA:710,e0,1,0
BRDA:710,0,2,60
BRDA:710,e0,3,0
BRDA:710,0,4,60
BRDA:710,e0,5,0
BRDA:713,0,0,63
BRDA:713,e0,1,0
BRDA:713,0,2,63
BRDA:713,e0,3,0
BRDA:713,0,4,63
BRDA:713,0,5,0
BRDA:715,0,0,63
BRDA:715,e0,1,0
BRDA:715,0,2,63
BRDA:715,e0,3,0
BRDA:715,0,4,63
BRDA:715,e0,5,0
BRDA:718,0,0,63
BRDA:718,e0,1,0
BRDA:718,0,2,63
BRDA:718,e0,3,0
BRDA:718,0,4,13
BRDA:718,0,5,50
BRDA:720,0,0,13
BRDA:720,e0,1,0
BRDA:720,0,2,13
BRDA:720,e0,3,0
BRDA:723,0,0,63
BRDA:723,e0,1,0
BRDA:725,0,0,63
BRDA:725,e0,1,0
BRDA:727,0,0,-
BRDA:727,e0,1,-
BRDA:727,0,2,-
BRDA:727,e0,3,-
BRDA:727,0,4,-
BRDA:727,e0,5,-
BRDA:727,0,6,-
BRDA:727,0,7,-
BRDA:729,0,0,-
BRDA:729,e0,1,-
BRDA:731,0,0,-
BRDA:731,e0,1,-
BRDA:731,0,2,-
BRDA:731,e0,3,-
BRDA:731,0,4,-
BRDA:731,e0,5,-
BRDA:731,0,6,-
BRDA:731,0,7,-
BRDA:733,0,0,-
BRDA:733,e0,1,-
BRDA:737,0,0,-
BRDA:737,e0,1,-
BRDA:740,0,0,66
BRDA:740,e0,1,0
BRDA:743,0,0,110
BRDA:743,e0,1,0
BRDA:743,0,2,110
BRDA:743,e0,3,0
BRDA:743,0,4,110
BRDA:743,e0,5,0
BRDA:743,0,6,110
BRDA:743,e0,7,0
BRDA:745,0,0,110
BRDA:745,e0,1,0
BRDA:748,0,0,283
BRDA:748,e0,1,0
BRDA:748,0,2,283
BRDA:748,e0,3,0
BRDA:748,0,4,283
BRDA:748,e0,5,0
BRDA:748,0,6,121
BRDA:748,0,7,162
BRDA:750,0,0,121
BRDA:750,e0,1,0
BRDA:750,0,2,121
BRDA:750,e0,3,0
BRDA:750,0,4,81
BRDA:750,0,5,40
BRDA:753,0,0,81
BRDA:753,e0,1,0
BRDA:753,0,2,81
BRDA:753,e0,3,0
BRDA:753,0,4,81
BRDA:753,e0,5,0
BRDA:755,0,0,121
BRDA:755,e0,1,0
BRDA:755,0,2,121
BRDA:755,e0,3,0
BRDA:755,0,4,9
BRDA:755,0,5,112
BRDA:758,0,0,9
BRDA:758,e0,1,0
BRDA:758,0,2,9
BRDA:758,e0,3,0
BRDA:758,0,4,9
BRDA:758,e0,5,0
BRDA:760,0,0,121
BRDA:760,e0,1,0
BRDA:760,0,2,121
BRDA:760,e0,3,0
BRDA:760,0,4,121
BRDA:760,0,5,0
BRDA:763,0,0,121
BRDA:763,e0,1,0
BRDA:763,0,2,121
BRDA:763,e0,3,0
BRDA:763,0,4,121
BRDA:763,e0,5,0
BRDA:766,0,0,121
BRDA:766,e0,1,0
BRDA:766,0,2,121
BRDA:766,e0,3,0
BRDA:766,0,4,121
BRDA:766,e0,5,0
BRDA:766,0,6,121
BRDA:766,e0,7,0
BRDA:766,0,8,68
BRDA:766,0,9,53
BRDA:769,0,0,68
BRDA:769,e0,1,0
BRDA:769,0,2,68
BRDA:769,e0,3,0
BRDA:769,0,4,68
BRDA:769,e0,5,0
BRDA:769,0,6,68
BRDA:769,e0,7,0
BRDA:769,0,8,68
BRDA:769,e0,9,0
BRDA:772,0,0,121
BRDA:772,e0,1,0
BRDA:774,0,0,162
BRDA:774,e0,1,0
BRDA:774,0,2,162
BRDA:774,e0,3,0
BRDA:774,0,4,162
BRDA:774,e0,5,0
BRDA:774,0,6,40
BRDA:774,0,7,122
BRDA:776,0,0,130
BRDA:776,e0,1,0
BRDA:776,0,2,130
BRDA:776,e0,3,0
BRDA:776,0,4,130
BRDA:776,e0,5,0
BRDA:776,0,6,130
BRDA:776,e0,7,0
BRDA:776,0,8,90
BRDA:776,0,9,40
BRDA:778,0,0,90
BRDA:778,e0,1,0
BRDA:778,0,2,90
BRDA:778,e0,3,0
BRDA:778,0,4,90
BRDA:778,e0,5,0
BRDA:778,0,6,90
BRDA:778,e0,7,0
BRDA:780,0,0,180
BRDA:780,e0,1,0
BRDA:780,0,2,180
BRDA:780,0,3,90
BRDA:780,0,4,90
BRDA:780,e0,5,0
BRDA:780,0,6,90
BRDA:780,e0,7,0
BRDA:780,0,8,180
BRDA:780,0,9,90
BRDA:780,0,10,0
BRDA:780,0,11,0
BRDA:780,0,12,0
BRDA:780,0,13,0
BRDA:780,0,14,0
BRDA:780,0,15,0
BRDA:784,0,0,90
BRDA:784,e0,1,0
BRDA:784,0,2,90
BRDA:784,e0,3,0
BRDA:784,0,4,90
BRDA:784,e0,5,0
BRDA:785,0,0,90
BRDA:785,e0,1,0
BRDA:785,0,2,90
BRDA:785,e0,3,0
BRDA:785,0,4,90
BRDA:785,e0,5,0
BRDA:785,0,6,90
BRDA:785,0,7,0
BRDA:785,0,8,90
BRDA:785,0,9,0
BRDA:785,0,10,90
BRDA:785,0,11,0
BRDA:785,0,12,90
BRDA:785,0,13,0
BRDA:785,0,14,0
BRDA:785,0,15,0
BRDA:785,0,16,0
BRDA:785,0,17,0
BRDA:796,0,0,90
BRDA:796,e0,1,0
BRDA:796,0,2,90
BRDA:796,e0,3,0
BRDA:796,0,4,90
BRDA:796,0,5,0
BRDA:798,0,0,90
BRDA:798,e0,1,0
BRDA:798,0,2,90
BRDA:798,e0,3,0
BRDA:798,0,4,90
BRDA:798,e0,5,0
BRDA:801,0,0,90
BRDA:801,e0,1,0
BRDA:804,0,0,90
BRDA:804,e0,1,0
BRDA:804,0,2,90
BRDA:804,e0,3,0
BRDA:804,0,4,45
BRDA:804,0,5,45
BRDA:806,0,0,45
BRDA:806,e0,1,0
BRDA:806,0,2,45
BRDA:806,e0,3,0
BRDA:809,0,0,90
BRDA:809,e0,1,0
BRDA:811,0,0,90
BRDA:811,e0,1,0
BRDA:811,0,2,90
BRDA:811,e0,3,0
BRDA:812,0,0,73
BRDA:812,0,1,17
BRDA:812,0,2,73
BRDA:812,e0,3,0
BRDA:812,0,4,73
BRDA:812,e0,5,0
BRDA:812,0,6,73
BRDA:812,e0,7,0
BRDA:812,0,8,73
BRDA:812,0,9,17
BRDA:812,0,10,0
BRDA:812,0,11,0
BRDA:812,0,12,0
BRDA:812,0,13,0
BRDA:813,0,0,73
BRDA:813,0,1,17
BRDA:814,0,0,90
BRDA:814,e0,1,0
BRDA:814,0,2,90
BRDA:814,e0,3,0
BRDA:815,0,0,15
BRDA:815,0,1,75
BRDA:815,0,2,15
BRDA:815,e0,3,0
BRDA:815,0,4,15
BRDA:815,e0,5,0
BRDA:815,0,6,15
BRDA:815,e0,7,0
BRDA:815,0,8,15
BRDA:815,0,9,75
BRDA:815,0,10,0
BRDA:815,0,11,0
BRDA:815,0,12,0
BRDA:815,0,13,0
BRDA:816,0,0,15
BRDA:816,0,1,75
BRDA:817,0,0,90
BRDA:817,e0,1,0
BRDA:817,0,2,90
BRDA:817,e0,3,0
BRDA:818,0,0,11
BRDA:818,0,1,79
BRDA:818,0,2,11
BRDA:818,e0,3,0
BRDA:818,0,4,11
BRDA:818,e0,5,0
BRDA:818,0,6,11
BRDA:818,e0,7,0
BRDA:818,0,8,11
BRDA:818,0,9,79
BRDA:818,0,10,0
BRDA:818,0,11,0
BRDA:818,0,12,0
BRDA:818,0,13,0
BRDA:819,0,0,11
BRDA:819,0,1,79
BRDA:821,0,0,90
BRDA:821,e0,1,0
BRDA:821,0,2,90
BRDA:821,e0,3,0
BRDA:821,0,4,90
BRDA:821,e0,5,0
BRDA:821,0,6,90
BRDA:821,e0,7,0
BRDA:823,0,0,43605
BRDA:823,0,1,90
BRDA:827,0,0,43605
BRDA:827,0,1,0
BRDA:829,0,0,43605
BRDA:829,e0,1,0
BRDA:829,0,2,43605
BRDA:829,e0,3,0
BRDA:832,0,0,43535
BRDA:832,0,1,70
BRDA:834,0,0,43535
BRDA:834,e0,1,0
BRDA:834,0,2,43535
BRDA:834,e0,3,0
BRDA:840,0,0,43605
BRDA:840,e0,1,0
BRDA:840,0,2,43605
BRDA:840,e0,3,0
BRDA:844,0,0,122
BRDA:844,e0,1,0
BRDA:844,0,2,122
BRDA:844,e0,3,0
BRDA:844,0,4,122
BRDA:844,e0,5,0
BRDA:844,0,6,122
BRDA:844,0,7,0
BRDA:849,0,0,416
BRDA:849,e0,1,0
BRDA:850,0,0,416
BRDA:850,0,1,122
BRDA:853,0,0,122
BRDA:853,e0,1,0
BRDA:853,0,2,0
BRDA:853,0,3,0
BRDA:853,0,4,0
BRDA:853,0,5,0
BRDA:857,0,0,119
BRDA:857,e0,1,0
BRDA:857,0,2,119
BRDA:857,e0,3,0
BRDA:857,0,4,119
BRDA:857,e0,5,0
BRDA:857,0,6,0
BRDA:857,0,7,119
BRDA:862,0,0,119
BRDA:862,e0,1,0
BRDA:865,0,0,1590
BRDA:865,0,1,119
BRDA:867,0,0,1590
BRDA:867,e0,1,0
BRDA:869,0,0,119
BRDA:869,e0,1,0
BRDA:870,0,0,2046
BRDA:870,0,1,119
BRDA:873,0,0,2046
BRDA:873,e0,1,0
BRDA:875,0,0,2046
BRDA:875,e0,1,0
BRDA:875,0,2,2046
BRDA:875,e0,3,0
BRDA:876,0,0,850
BRDA:876,0,1,1196
BRDA:878,0,0,850
BRDA:878,e0,1,0
BRDA:884,0,0,49
BRDA:884,0,1,1997
BRDA:886,0,0,0
BRDA:886,0,1,49
BRDA:886,0,2,0
BRDA:886,e0,3,0
BRDA:888,0,0,1546
BRDA:888,0,1,500
BRDA:891,0,0,0
BRDA:891,0,1,69
BRDA:891,0,2,1460
BRDA:891,0,3,2
BRDA:891,0,4,15
BRDA:891,0,5,0
BRDA:891,0,6,0
BRDA:894,0,0,-
BRDA:894,e0,1,-
BRDA:894,0,2,-
BRDA:894,0,3,-
BRDA:900,0,0,69
BRDA:900,e0,1,0
BRDA:905,0,0,1460
BRDA:905,e0,1,0
BRDA:905,0,2,1460
BRDA:905,0,3,0
BRDA:912,0,0,2
BRDA:912,e0,1,0
BRDA:912,0,2,2
BRDA:912,e0,3,0
BRDA:916,0,0,15
BRDA:916,e0,1,0
BRDA:916,0,2,15
BRDA:916,e0,3,0
BRDA:920,0,0,-
BRDA:920,e0,1,-
BRDA:933,0,0,120
BRDA:933,e0,1,0
BRDA:935,0,0,120
BRDA:935,e0,1,0
BRDA:935,0,2,120
BRDA:935,e0,3,0
BRDA:935,0,4,120
BRDA:935,e0,5,0
BRDA:936,0,0,120
BRDA:936,e0,1,0
BRDA:936,0,2,120
BRDA:936,e0,3,0
BRDA:936,0,4,120
BRDA:936,e0,5,0
BRDA:937,0,0,120
BRDA:937,e0,1,0
BRDA:937,0,2,120
BRDA:937,e0,3,0
BRDA:937,0,4,120
BRDA:937,e0,5,0
BRDA:937,0,6,120
BRDA:937,e0,7,0
BRDA:937,0,8,120
BRDA:937,e0,9,0
BRDA:937,0,10,120
BRDA:937,e0,11,0
BRDA:938,0,0,120
BRDA:938,e0,1,0
BRDA:940,0,0,120
BRDA:940,e0,1,0
BRDA:942,0,0,328
BRDA:942,e0,1,0
BRDA:942,0,2,328
BRDA:942,e0,3,0
BRDA:942,0,4,328
BRDA:942,e0,5,0
BRDA:942,0,6,328
BRDA:942,e0,7,0
BRDA:942,0,8,208
BRDA:942,0,9,120
BRDA:944,0,0,208
BRDA:944,e0,1,0
BRDA:946,0,0,208
BRDA:946,e0,1,0
BRDA:946,0,2,208
BRDA:946,e0,3,0
BRDA:946,0,4,208
BRDA:946,e0,5,0
BRDA:946,0,6,0
BRDA:946,0,7,208
BRDA:948,0,0,-
BRDA:948,e0,1,-
BRDA:950,0,0,208
BRDA:950,e0,1,0
BRDA:950,0,2,208
BRDA:950,e0,3,0
BRDA:950,0,4,208
BRDA:950,e0,5,0
BRDA:950,0,6,0
BRDA:950,0,7,208
BRDA:952,0,0,-
BRDA:952,e0,1,-
BRDA:954,0,0,208
BRDA:954,e0,1,0
BRDA:954,0,2,208
BRDA:954,e0,3,0
BRDA:954,0,4,208
BRDA:954,e0,5,0
BRDA:954,0,6,0
BRDA:954,0,7,208
BRDA:956,0,0,-
BRDA:956,e0,1,-
BRDA:958,0,0,208
BRDA:958,e0,1,0
BRDA:958,0,2,208
BRDA:958,e0,3,0
BRDA:958,0,4,208
BRDA:958,e0,5,0
BRDA:958,0,6,0
BRDA:958,0,7,208
BRDA:960,0,0,-
BRDA:960,e0,1,-
BRDA:962,0,0,208
BRDA:962,e0,1,0
BRDA:962,0,2,208
BRDA:962,e0,3,0
BRDA:962,0,4,208
BRDA:962,e0,5,0
BRDA:962,0,6,1
BRDA:962,0,7,207
BRDA:964,0,0,1
BRDA:964,e0,1,0
BRDA:964,0,2,1
BRDA:964,e0,3,0
BRDA:964,0,4,1
BRDA:964,e0,5,0
BRDA:964,0,6,1
BRDA:964,e0,7,0
BRDA:966,0,0,1
BRDA:966,e0,1,0
BRDA:968,0,0,207
BRDA:968,e0,1,0
BRDA:968,0,2,207
BRDA:968,e0,3,0
BRDA:968,0,4,207
BRDA:968,e0,5,0
BRDA:968,0,6,0
BRDA:968,0,7,207
BRDA:970,0,0,-
BRDA:970,e0,1,-
BRDA:972,0,0,207
BRDA:972,e0,1,0
BRDA:972,0,2,207
BRDA:972,e0,3,0
BRDA:972,0,4,207
BRDA:972,e0,5,0
BRDA:972,0,6,0
BRDA:972,0,7,207
BRDA:974,0,0,-
BRDA:974,e0,1,-
BRDA:976,0,0,207
BRDA:976,e0,1,0
BRDA:976,0,2,207
BRDA:976,e0,3,0
BRDA:976,0,4,207
BRDA:976,e0,5,0
BRDA:976,0,6,0
BRDA:976,0,7,207
BRDA:978,0,0,-
BRDA:978,e0,1,-
BRDA:980,0,0,207
BRDA:980,e0,1,0
BRDA:980,0,2,207
BRDA:980,e0,3,0
BRDA:980,0,4,207
BRDA:980,e0,5,0
BRDA:980,0,6,2
BRDA:980,0,7,205
BRDA:982,0,0,2
BRDA:982,e0,1,0
BRDA:984,0,0,4
BRDA:984,e0,1,0
BRDA:984,0,2,4
BRDA:984,e0,3,0
BRDA:984,0,4,4
BRDA:984,e0,5,0
BRDA:984,0,6,4
BRDA:984,e0,7,0
BRDA:984,0,8,2
BRDA:984,0,9,2
BRDA:986,0,0,2
BRDA:986,e0,1,0
BRDA:986,0,2,2
BRDA:986,e0,3,0
BRDA:986,0,4,2
BRDA:986,e0,5,0
BRDA:986,0,6,2
BRDA:986,e0,7,0
BRDA:987,0,0,2
BRDA:987,e0,1,0
BRDA:987,0,2,2
BRDA:987,e0,3,0
BRDA:987,0,4,2
BRDA:987,e0,5,0
BRDA:987,0,6,2
BRDA:987,e0,7,0
BRDA:988,0,0,2
BRDA:988,e0,1,0
BRDA:988,0,2,2
BRDA:988,e0,3,0
BRDA:988,0,4,2
BRDA:988,e0,5,0
BRDA:988,0,6,2
BRDA:988,e0,7,0
BRDA:991,0,0,205
BRDA:991,e0,1,0
BRDA:991,0,2,205
BRDA:991,e0,3,0
BRDA:991,0,4,205
BRDA:991,e0,5,0
BRDA:991,0,6,12
BRDA:991,0,7,193
BRDA:993,0,0,12
BRDA:993,e0,1,0
BRDA:993,0,2,12
BRDA:993,e0,3,0
BRDA:993,0,4,12
BRDA:993,e0,5,0
BRDA:994,0,0,12
BRDA:994,e0,1,0
BRDA:994,0,2,12
BRDA:994,e0,3,0
BRDA:994,0,4,10
BRDA:994,0,5,2
BRDA:996,0,0,10
BRDA:996,e0,1,0
BRDA:996,0,2,10
BRDA:996,e0,3,0
BRDA:996,0,4,10
BRDA:996,e0,5,0
BRDA:996,0,6,10
BRDA:996,e0,7,0
BRDA:998,0,0,12
BRDA:998,e0,1,0
BRDA:998,0,2,12
BRDA:998,e0,3,0
BRDA:998,0,4,0
BRDA:998,0,5,12
BRDA:1000,0,0,-
BRDA:1000,e0,1,-
BRDA:1000,0,2,-
BRDA:1000,e0,3,-
BRDA:1000,0,4,-
BRDA:1000,e0,5,-
BRDA:1000,0,6,-
BRDA:1000,e0,7,-
BRDA:1004,0,0,193
BRDA:1004,e0,1,0
BRDA:1004,0,2,193
BRDA:1004,e0,3,0
BRDA:1004,0,4,193
BRDA:1004,e0,5,0
BRDA:1004,0,6,0
BRDA:1004,0,7,193
BRDA:1006,0,0,-
BRDA:1006,e0,1,-
BRDA:1008,0,0,193
BRDA:1008,e0,1,0
BRDA:1008,0,2,193
BRDA:1008,e0,3,0
BRDA:1008,0,4,193
BRDA:1008,e0,5,0
BRDA:1008,0,6,0
BRDA:1008,0,7,193
BRDA:1010,0,0,-
BRDA:1010,e0,1,-
BRDA:1012,0,0,193
BRDA:1012,e0,1,0
BRDA:1012,0,2,193
BRDA:1012,e0,3,0
BRDA:1012,0,4,193
BRDA:1012,e0,5,0
BRDA:1012,0,6,15
BRDA:1012,0,7,178
BRDA:1014,0,0,51
BRDA:1014,e0,1,0
BRDA:1014,0,2,36
BRDA:1014,0,3,15
BRDA:1017,0,0,36
BRDA:1017,e0,1,0
BRDA:1017,0,2,36
BRDA:1017,e0,3,0
BRDA:1017,0,4,36
BRDA:1017,e0,5,0
BRDA:1017,0,6,36
BRDA:1017,e0,7,0
BRDA:1019,0,0,36
BRDA:1019,e0,1,0
BRDA:1019,0,2,36
BRDA:1019,e0,3,0
BRDA:1019,0,4,36
BRDA:1019,e0,5,0
BRDA:1019,0,6,36
BRDA:1019,e0,7,0
BRDA:1021,0,0,36
BRDA:1021,e0,1,0
BRDA:1021,0,2,36
BRDA:1021,e0,3,0
BRDA:1021,0,4,36
BRDA:1021,e0,5,0
BRDA:1021,0,6,36
BRDA:1021,e0,7,0
BRDA:1021,0,8,29
BRDA:1021,0,9,7
BRDA:1023,0,0,29
BRDA:1023,e0,1,0
BRDA:1023,0,2,29
BRDA:1023,e0,3,0
BRDA:1023,0,4,29
BRDA:1023,e0,5,0
BRDA:1023,0,6,29
BRDA:1023,e0,7,0
BRDA:1023,0,8,29
BRDA:1023,e0,9,0
BRDA:1024,0,0,29
BRDA:1024,e0,1,0
BRDA:1027,0,0,29
BRDA:1027,0,1,0
BRDA:1029,0,0,29
BRDA:1029,e0,1,0
BRDA:1029,0,2,29
BRDA:1029,e0,3,0
BRDA:1029,0,4,29
BRDA:1029,e0,5,0
BRDA:1029,0,6,29
BRDA:1029,e0,7,0
BRDA:1031,0,0,29
BRDA:1031,e0,1,0
BRDA:1031,0,2,29
BRDA:1031,0,3,0
BRDA:1033,0,0,29
BRDA:1033,e0,1,0
BRDA:1033,0,2,29
BRDA:1033,e0,3,0
BRDA:1037,0,0,-
BRDA:1037,e0,1,-
BRDA:1037,0,2,-
BRDA:1037,e0,3,-
BRDA:1041,0,0,7
BRDA:1041,e0,1,0
BRDA:1041,0,2,7
BRDA:1041,e0,3,0
BRDA:1041,0,4,7
BRDA:1041,0,5,0
BRDA:1043,0,0,7
BRDA:1043,e0,1,0
BRDA:1045,0,0,7
BRDA:1045,e0,1,0
BRDA:1045,0,2,7
BRDA:1045,e0,3,0
BRDA:1045,0,4,7
BRDA:1045,e0,5,0
BRDA:1047,0,0,7
BRDA:1047,e0,1,0
BRDA:1047,0,2,7
BRDA:1047,e0,3,0
BRDA:1047,0,4,7
BRDA:1047,e0,5,0
BRDA:1047,0,6,7
BRDA:1047,e0,7,0
BRDA:1047,0,8,7
BRDA:1047,e0,9,0
BRDA:1049,0,0,7
BRDA:1049,e0,1,0
BRDA:1049,0,2,7
BRDA:1049,e0,3,0
BRDA:1049,0,4,7
BRDA:1049,0,5,0
BRDA:1051,0,0,7
BRDA:1051,e0,1,0
BRDA:1051,0,2,7
BRDA:1051,e0,3,0
BRDA:1051,0,4,7
BRDA:1051,e0,5,0
BRDA:1054,0,0,7
BRDA:1054,e0,1,0
BRDA:1054,0,2,7
BRDA:1054,e0,3,0
BRDA:1054,0,4,0
BRDA:1054,0,5,7
BRDA:1056,0,0,-
BRDA:1056,e0,1,-
BRDA:1056,0,2,-
BRDA:1056,e0,3,-
BRDA:1056,0,4,-
BRDA:1056,e0,5,-
BRDA:1059,0,0,7
BRDA:1059,e0,1,0
BRDA:1062,0,0,36
BRDA:1062,e0,1,0
BRDA:1062,0,2,36
BRDA:1062,e0,3,0
BRDA:1062,0,4,36
BRDA:1062,e0,5,0
BRDA:1062,0,6,36
BRDA:1062,e0,7,0
BRDA:1065,0,0,178
BRDA:1065,e0,1,0
BRDA:1065,0,2,178
BRDA:1065,e0,3,0
BRDA:1065,0,4,178
BRDA:1065,e0,5,0
BRDA:1065,0,6,12
BRDA:1065,0,7,166
BRDA:1068,0,0,12
BRDA:1068,e0,1,0
BRDA:1068,0,2,12
BRDA:1068,e0,3,0
BRDA:1068,0,4,11
BRDA:1068,0,5,1
BRDA:1070,0,0,11
BRDA:1070,e0,1,0
BRDA:1070,0,2,11
BRDA:1070,e0,3,0
BRDA:1072,0,0,12
BRDA:1072,e0,1,0
BRDA:1072,0,2,12
BRDA:1072,e0,3,0
BRDA:1072,0,4,11
BRDA:1072,0,5,1
BRDA:1074,0,0,11
BRDA:1074,e0,1,0
BRDA:1074,0,2,11
BRDA:1074,e0,3,0
BRDA:1076,0,0,12
BRDA:1076,e0,1,0
BRDA:1076,0,2,12
BRDA:1076,e0,3,0
BRDA:1076,0,4,11
BRDA:1076,0,5,1
BRDA:1078,0,0,11
BRDA:1078,e0,1,0
BRDA:1078,0,2,11
BRDA:1078,e0,3,0
BRDA:1080,0,0,12
BRDA:1080,e0,1,0
BRDA:1080,0,2,12
BRDA:1080,e0,3,0
BRDA:1080,0,4,11
BRDA:1080,0,5,1
BRDA:1082,0,0,11
BRDA:1082,e0,1,0
BRDA:1082,0,2,11
BRDA:1082,e0,3,0
BRDA:1084,0,0,12
BRDA:1084,e0,1,0
BRDA:1084,0,2,12
BRDA:1084,e0,3,0
BRDA:1084,0,4,11
BRDA:1084,0,5,1
BRDA:1086,0,0,11
BRDA:1086,e0,1,0
BRDA:1086,0,2,11
BRDA:1086,e0,3,0
BRDA:1089,0,0,12
BRDA:1089,e0,1,0
BRDA:1091,0,0,166
BRDA:1091,e0,1,0
BRDA:1091,0,2,166
BRDA:1091,e0,3,0
BRDA:1091,0,4,166
BRDA:1091,e0,5,0
BRDA:1091,0,6,102
BRDA:1091,0,7,64
BRDA:1093,0,0,102
BRDA:1093,e0,1,0
BRDA:1095,0,0,102
BRDA:1095,e0,1,0
BRDA:1095,0,2,102
BRDA:1095,e0,3,0
BRDA:1095,0,4,102
BRDA:1095,e0,5,0
BRDA:1095,0,6,102
BRDA:1095,e0,7,0
BRDA:1096,0,0,102
BRDA:1096,e0,1,0
BRDA:1096,0,2,102
BRDA:1096,e0,3,0
BRDA:1096,0,4,102
BRDA:1096,e0,5,0
BRDA:1096,0,6,102
BRDA:1096,e0,7,0
BRDA:1097,0,0,102
BRDA:1097,e0,1,0
BRDA:1097,0,2,102
BRDA:1097,e0,3,0
BRDA:1097,0,4,102
BRDA:1097,e0,5,0
BRDA:1097,0,6,102
BRDA:1097,e0,7,0
BRDA:1098,0,0,102
BRDA:1098,e0,1,0
BRDA:1098,0,2,102
BRDA:1098,e0,3,0
BRDA:1098,0,4,102
BRDA:1098,e0,5,0
BRDA:1098,0,6,102
BRDA:1098,e0,7,0
BRDA:1099,0,0,102
BRDA:1099,e0,1,0
BRDA:1099,0,2,102
BRDA:1099,e0,3,0
BRDA:1099,0,4,102
BRDA:1099,e0,5,0
BRDA:1099,0,6,102
BRDA:1099,e0,7,0
BRDA:1100,0,0,102
BRDA:1100,e0,1,0
BRDA:1100,0,2,102
BRDA:1100,e0,3,0
BRDA:1100,0,4,102
BRDA:1100,e0,5,0
BRDA:1100,0,6,102
BRDA:1100,e0,7,0
BRDA:1102,0,0,102
BRDA:1102,e0,1,0
BRDA:1104,0,0,64
BRDA:1104,e0,1,0
BRDA:1104,0,2,64
BRDA:1104,e0,3,0
BRDA:1104,0,4,64
BRDA:1104,e0,5,0
BRDA:1104,0,6,25
BRDA:1104,0,7,39
BRDA:1106,0,0,25
BRDA:1106,e0,1,0
BRDA:1107,0,0,25
BRDA:1107,e0,1,0
BRDA:1107,0,2,25
BRDA:1107,e0,3,0
BRDA:1107,0,4,25
BRDA:1107,0,5,0
BRDA:1109,0,0,25
BRDA:1109,e0,1,0
BRDA:1109,0,2,25
BRDA:1109,e0,3,0
BRDA:1111,0,0,25
BRDA:1111,e0,1,0
BRDA:1111,0,2,25
BRDA:1111,e0,3,0
BRDA:1111,0,4,19
BRDA:1111,0,5,6
BRDA:1113,0,0,19
BRDA:1113,e0,1,0
BRDA:1113,0,2,19
BRDA:1113,e0,3,0
BRDA:1115,0,0,25
BRDA:1115,e0,1,0
BRDA:1115,0,2,25
BRDA:1115,e0,3,0
BRDA:1115,0,4,21
BRDA:1115,0,5,4
BRDA:1117,0,0,21
BRDA:1117,e0,1,0
BRDA:1117,0,2,21
BRDA:1117,e0,3,0
BRDA:1119,0,0,25
BRDA:1119,e0,1,0
BRDA:1119,0,2,25
BRDA:1119,e0,3,0
BRDA:1119,0,4,17
BRDA:1119,0,5,8
BRDA:1121,0,0,17
BRDA:1121,e0,1,0
BRDA:1121,0,2,17
BRDA:1121,e0,3,0
BRDA:1121,0,4,17
BRDA:1121,e0,5,0
BRDA:1123,0,0,25
BRDA:1123,e0,1,0
BRDA:1123,0,2,25
BRDA:1123,e0,3,0
BRDA:1123,0,4,13
BRDA:1123,0,5,12
BRDA:1125,0,0,13
BRDA:1125,e0,1,0
BRDA:1125,0,2,13
BRDA:1125,e0,3,0
BRDA:1125,0,4,13
BRDA:1125,e0,5,0
BRDA:1127,0,0,25
BRDA:1127,e0,1,0
BRDA:1127,0,2,25
BRDA:1127,e0,3,0
BRDA:1127,0,4,25
BRDA:1127,e0,5,0
BRDA:1127,0,6,25
BRDA:1127,e0,7,0
BRDA:1127,0,8,5
BRDA:1127,0,9,20
BRDA:1129,0,0,5
BRDA:1129,e0,1,0
BRDA:1129,0,2,5
BRDA:1129,e0,3,0
BRDA:1129,0,4,5
BRDA:1129,e0,5,0
BRDA:1129,0,6,5
BRDA:1129,e0,7,0
BRDA:1129,0,8,5
BRDA:1129,e0,9,0
BRDA:1131,0,0,25
BRDA:1131,e0,1,0
BRDA:1132,0,0,25
BRDA:1132,e0,1,0
BRDA:1134,0,0,39
BRDA:1134,e0,1,0
BRDA:1134,0,2,39
BRDA:1134,e0,3,0
BRDA:1134,0,4,39
BRDA:1134,e0,5,0
BRDA:1134,0,6,18
BRDA:1134,0,7,21
BRDA:1138,0,0,18
BRDA:1138,e0,1,0
BRDA:1138,0,2,18
BRDA:1138,e0,3,0
BRDA:1138,0,4,18
BRDA:1138,0,5,0
BRDA:1138,0,6,0
BRDA:1138,0,7,0
BRDA:1138,0,8,0
BRDA:1138,0,9,0
BRDA:1139,0,0,18
BRDA:1139,e0,1,0
BRDA:1139,0,2,0
BRDA:1139,0,3,18
BRDA:1139,0,4,0
BRDA:1139,e0,5,0
BRDA:1139,0,6,0
BRDA:1139,e0,7,0
BRDA:1139,0,8,0
BRDA:1139,e0,9,0
BRDA:1139,0,10,0
BRDA:1139,0,11,0
BRDA:1139,0,12,0
BRDA:1139,0,13,18
BRDA:1139,0,14,0
BRDA:1139,0,15,18
BRDA:1139,0,16,18
BRDA:1139,0,17,0
BRDA:1139,0,18,0
BRDA:1139,0,19,0
BRDA:1139,0,20,0
BRDA:1139,0,21,0
BRDA:1140,0,0,18
BRDA:1140,e0,1,0
BRDA:1140,0,2,18
BRDA:1140,e0,3,0
BRDA:1140,0,4,18
BRDA:1140,0,5,0
BRDA:1140,0,6,0
BRDA:1140,0,7,0
BRDA:1140,0,8,0
BRDA:1140,0,9,0
BRDA:1141,0,0,18
BRDA:1141,e0,1,0
BRDA:1141,0,2,0
BRDA:1141,0,3,18
BRDA:1141,0,4,0
BRDA:1141,e0,5,0
BRDA:1141,0,6,0
BRDA:1141,e0,7,0
BRDA:1141,0,8,0
BRDA:1141,e0,9,0
BRDA:1141,0,10,0
BRDA:1141,0,11,0
BRDA:1141,0,12,0
BRDA:1141,0,13,18
BRDA:1141,0,14,0
BRDA:1141,0,15,18
BRDA:1141,0,16,18
BRDA:1141,0,17,0
BRDA:1141,0,18,0
BRDA:1141,0,19,0
BRDA:1141,0,20,0
BRDA:1141,0,21,0
BRDA:1142,0,0,18
BRDA:1142,e0,1,0
BRDA:1142,0,2,18
BRDA:1142,0,3,0
BRDA:1142,0,4,0
BRDA:1142,0,5,0
BRDA:1142,0,6,0
BRDA:1142,0,7,0
BRDA:1143,0,0,18
BRDA:1143,e0,1,0
BRDA:1143,0,2,11
BRDA:1143,0,3,7
BRDA:1143,0,4,11
BRDA:1143,e0,5,0
BRDA:1143,0,6,11
BRDA:1143,e0,7,0
BRDA:1143,0,8,11
BRDA:1143,e0,9,0
BRDA:1143,0,10,0
BRDA:1143,0,11,11
BRDA:1143,0,12,11
BRDA:1143,0,13,7
BRDA:1143,0,14,11
BRDA:1143,0,15,7
BRDA:1143,0,16,18
BRDA:1143,0,17,0
BRDA:1143,0,18,0
BRDA:1143,0,19,0
BRDA:1143,0,20,0
BRDA:1143,0,21,0
BRDA:1144,0,0,18
BRDA:1144,e0,1,0
BRDA:1144,0,2,18
BRDA:1144,0,3,0
BRDA:1144,0,4,0
BRDA:1144,0,5,0
BRDA:1144,0,6,0
BRDA:1144,0,7,0
BRDA:1145,0,0,18
BRDA:1145,e0,1,0
BRDA:1145,0,2,11
BRDA:1145,0,3,7
BRDA:1145,0,4,11
BRDA:1145,e0,5,0
BRDA:1145,0,6,11
BRDA:1145,e0,7,0
BRDA:1145,0,8,11
BRDA:1145,e0,9,0
BRDA:1145,0,10,0
BRDA:1145,0,11,11
BRDA:1145,0,12,11
BRDA:1145,0,13,7
BRDA:1145,0,14,11
BRDA:1145,0,15,7
BRDA:1145,0,16,18
BRDA:1145,0,17,0
BRDA:1145,0,18,0
BRDA:1145,0,19,0
BRDA:1145,0,20,0
BRDA:1145,0,21,0
BRDA:1156,0,0,52
BRDA:1156,e0,1,0
BRDA:1156,0,2,34
BRDA:1156,0,3,18
BRDA:1158,0,0,34
BRDA:1158,e0,1,0
BRDA:1160,0,0,34
BRDA:1160,e0,1,0
BRDA:1160,0,2,34
BRDA:1160,e0,3,0
BRDA:1160,0,4,34
BRDA:1160,e0,5,0
BRDA:1160,0,6,16
BRDA:1160,0,7,18
BRDA:1162,0,0,16
BRDA:1162,e0,1,0
BRDA:1162,0,2,16
BRDA:1162,e0,3,0
BRDA:1162,0,4,16
BRDA:1162,e0,5,0
BRDA:1164,0,0,18
BRDA:1164,e0,1,0
BRDA:1164,0,2,18
BRDA:1164,e0,3,0
BRDA:1164,0,4,18
BRDA:1164,e0,5,0
BRDA:1164,0,6,18
BRDA:1164,0,7,0
BRDA:1166,0,0,18
BRDA:1166,e0,1,0
BRDA:1166,0,2,18
BRDA:1166,e0,3,0
BRDA:1166,0,4,18
BRDA:1166,e0,5,0
BRDA:1168,0,0,-
BRDA:1168,e0,1,-
BRDA:1168,0,2,-
BRDA:1168,e0,3,-
BRDA:1168,0,4,-
BRDA:1168,e0,5,-
BRDA:1168,0,6,-
BRDA:1168,0,7,-
BRDA:1170,0,0,-
BRDA:1170,e0,1,-
BRDA:1170,0,2,-
BRDA:1170,e0,3,-
BRDA:1170,0,4,-
BRDA:1170,e0,5,-
BRDA:1172,0,0,-
BRDA:1172,e0,1,-
BRDA:1172,0,2,-
BRDA:1172,e0,3,-
BRDA:1172,0,4,-
BRDA:1172,e0,5,-
BRDA:1172,0,6,-
BRDA:1172,0,7,-
BRDA:1174,0,0,-
BRDA:1174,e0,1,-
BRDA:1174,0,2,-
BRDA:1174,e0,3,-
BRDA:1174,0,4,-
BRDA:1174,e0,5,-
BRDA:1176,0,0,-
BRDA:1176,e0,1,-
BRDA:1176,0,2,-
BRDA:1176,e0,3,-
BRDA:1176,0,4,-
BRDA:1176,e0,5,-
BRDA:1176,0,6,-
BRDA:1176,0,7,-
BRDA:1178,0,0,-
BRDA:1178,e0,1,-
BRDA:1178,0,2,-
BRDA:1178,e0,3,-
BRDA:1178,0,4,-
BRDA:1178,e0,5,-
BRDA:1180,0,0,-
BRDA:1180,e0,1,-
BRDA:1180,0,2,-
BRDA:1180,e0,3,-
BRDA:1180,0,4,-
BRDA:1180,e0,5,-
BRDA:1180,0,6,-
BRDA:1180,0,7,-
BRDA:1182,0,0,-
BRDA:1182,e0,1,-
BRDA:1182,0,2,-
BRDA:1182,e0,3,-
BRDA:1182,0,4,-
BRDA:1182,e0,5,-
BRDA:1186,0,0,-
BRDA:1186,e0,1,-
BRDA:1189,0,0,34
BRDA:1189,e0,1,0
BRDA:1192,0,0,54
BRDA:1192,0,1,18
BRDA:1194,0,0,36
BRDA:1194,0,1,18
BRDA:1195,0,0,18
BRDA:1195,0,1,18
BRDA:1197,0,0,0
BRDA:1197,0,1,54
BRDA:1200,0,0,-
BRDA:1200,e0,1,-
BRDA:1200,0,2,-
BRDA:1200,e0,3,-
BRDA:1200,0,4,-
BRDA:1200,0,5,-
BRDA:1201,0,0,-
BRDA:1201,0,1,-
BRDA:1202,0,0,-
BRDA:1202,0,1,-
BRDA:1202,0,2,-
BRDA:1202,e0,3,-
BRDA:1202,0,4,-
BRDA:1202,e0,5,-
BRDA:1202,0,6,-
BRDA:1202,0,7,-
BRDA:1202,0,8,-
BRDA:1202,0,9,-
BRDA:1204,0,0,-
BRDA:1204,e0,1,-
BRDA:1204,0,2,-
BRDA:1204,e0,3,-
BRDA:1204,0,4,-
BRDA:1204,e0,5,-
BRDA:1204,0,6,-
BRDA:1204,e0,7,-
BRDA:1204,0,8,-
BRDA:1204,e0,9,-
BRDA:1204,0,10,-
BRDA:1204,e0,11,-
BRDA:1204,0,12,-
BRDA:1204,e0,13,-
BRDA:1208,0,0,-
BRDA:1208,e0,1,-
BRDA:1208,0,2,-
BRDA:1208,e0,3,-
BRDA:1208,0,4,-
BRDA:1208,0,5,-
BRDA:1209,0,0,-
BRDA:1209,0,1,-
BRDA:1210,0,0,-
BRDA:1210,0,1,-
BRDA:1210,0,2,-
BRDA:1210,e0,3,-
BRDA:1210,0,4,-
BRDA:1210,e0,5,-
BRDA:1210,0,6,-
BRDA:1210,0,7,-
BRDA:1210,0,8,-
BRDA:1210,0,9,-
BRDA:1212,0,0,-
BRDA:1212,e0,1,-
BRDA:1212,0,2,-
BRDA:1212,e0,3,-
BRDA:1212,0,4,-
BRDA:1212,e0,5,-
BRDA:1212,0,6,-
BRDA:1212,e0,7,-
BRDA:1212,0,8,-
BRDA:1212,e0,9,-
BRDA:1212,0,10,-
BRDA:1212,e0,11,-
BRDA:1212,0,12,-
BRDA:1212,e0,13,-
BRDA:1217,0,0,48
BRDA:1217,0,1,6
BRDA:1217,0,2,48
BRDA:1217,e0,3,0
BRDA:1217,0,4,48
BRDA:1217,e0,5,0
BRDA:1217,0,6,24
BRDA:1217,0,7,24
BRDA:1217,0,8,24
BRDA:1217,0,9,30
BRDA:1219,0,0,24
BRDA:1219,e0,1,0
BRDA:1219,0,2,24
BRDA:1219,e0,3,0
BRDA:1219,0,4,24
BRDA:1219,e0,5,0
BRDA:1219,0,6,24
BRDA:1219,e0,7,0
BRDA:1222,0,0,54
BRDA:1222,0,1,0
BRDA:1222,0,2,54
BRDA:1222,e0,3,0
BRDA:1222,0,4,54
BRDA:1222,e0,5,0
BRDA:1222,0,6,26
BRDA:1222,0,7,28
BRDA:1222,0,8,26
BRDA:1222,0,9,28
BRDA:1224,0,0,26
BRDA:1224,e0,1,0
BRDA:1224,0,2,26
BRDA:1224,e0,3,0
BRDA:1224,0,4,26
BRDA:1224,e0,5,0
BRDA:1224,0,6,26
BRDA:1224,e0,7,0
BRDA:1233,0,0,18
BRDA:1233,e0,1,0
BRDA:1235,0,0,21
BRDA:1235,e0,1,0
BRDA:1235,0,2,21
BRDA:1235,e0,3,0
BRDA:1235,0,4,21
BRDA:1235,e0,5,0
BRDA:1235,0,6,0
BRDA:1235,0,7,21
BRDA:1237,0,0,-
BRDA:1237,e0,1,-
BRDA:1237,0,2,-
BRDA:1237,e0,3,-
BRDA:1237,0,4,-
BRDA:1237,0,5,-
BRDA:1237,0,6,-
BRDA:1237,e0,7,-
BRDA:1237,0,8,-
BRDA:1237,e0,9,-
BRDA:1237,0,10,-
BRDA:1237,0,11,-
BRDA:1237,0,12,-
BRDA:1237,0,13,-
BRDA:1237,0,14,-
BRDA:1237,0,15,-
BRDA:1237,0,16,-
BRDA:1237,0,17,-
BRDA:1238,0,0,-
BRDA:1238,e0,1,-
BRDA:1238,0,2,-
BRDA:1238,e0,3,-
BRDA:1239,0,0,-
BRDA:1239,0,1,-
BRDA:1239,0,2,-
BRDA:1239,e0,3,-
BRDA:1239,0,4,-
BRDA:1239,e0,5,-
BRDA:1239,0,6,-
BRDA:1239,0,7,-
BRDA:1239,0,8,-
BRDA:1239,0,9,-
BRDA:1239,0,10,-
BRDA:1239,0,11,-
BRDA:1240,0,0,-
BRDA:1240,0,1,-
BRDA:1242,0,0,-
BRDA:1242,e0,1,-
BRDA:1242,0,2,-
BRDA:1242,e0,3,-
BRDA:1242,0,4,-
BRDA:1242,e0,5,-
BRDA:1242,0,6,-
BRDA:1242,e0,7,-
BRDA:1242,0,8,-
BRDA:1242,0,9,-
BRDA:1244,0,0,-
BRDA:1244,e0,1,-
BRDA:1244,0,2,-
BRDA:1244,e0,3,-
BRDA:1244,0,4,-
BRDA:1244,e0,5,-
BRDA:1244,0,6,-
BRDA:1244,e0,7,-
BRDA:1246,0,0,-
BRDA:1246,e0,1,-
BRDA:1246,0,2,-
BRDA:1246,e0,3,-
BRDA:1246,0,4,-
BRDA:1246,0,5,-
BRDA:1248,0,0,-
BRDA:1248,e0,1,-
BRDA:1248,0,2,-
BRDA:1248,e0,3,-
BRDA:1248,0,4,-
BRDA:1248,e0,5,-
BRDA:1252,0,0,-
BRDA:1252,e0,1,-
BRDA:1252,0,2,-
BRDA:1252,e0,3,-
BRDA:1252,0,4,-
BRDA:1252,0,5,-
BRDA:1252,0,6,-
BRDA:1252,e0,7,-
BRDA:1252,0,8,-
BRDA:1252,e0,9,-
BRDA:1252,0,10,-
BRDA:1252,e0,11,-
BRDA:1252,0,12,-
BRDA:1252,0,13,-
BRDA:1252,0,14,-
BRDA:1252,0,15,-
BRDA:1252,0,16,-
BRDA:1252,0,17,-
BRDA:1252,0,18,-
BRDA:1252,0,19,-
BRDA:1252,0,20,-
BRDA:1252,0,21,-
BRDA:1252,0,22,-
BRDA:1252,0,23,-
BRDA:1252,0,24,-
BRDA:1252,0,25,-
BRDA:1252,0,26,-
BRDA:1252,0,27,-
BRDA:1252,0,28,-
BRDA:1252,0,29,-
BRDA:1252,0,30,-
BRDA:1252,0,31,-
BRDA:1257,0,0,-
BRDA:1257,e0,1,-
BRDA:1257,0,2,-
BRDA:1257,e0,3,-
BRDA:1258,0,0,-
BRDA:1258,e0,1,-
BRDA:1258,0,2,-
BRDA:1258,e0,3,-
BRDA:1258,0,4,-
BRDA:1258,e0,5,-
BRDA:1258,0,6,-
BRDA:1258,e0,7,-
BRDA:1261,0,0,21
BRDA:1261,e0,1,0
BRDA:1261,0,2,21
BRDA:1261,e0,3,0
BRDA:1261,0,4,21
BRDA:1261,e0,5,0
BRDA:1261,0,6,0
BRDA:1261,0,7,21
BRDA:1263,0,0,-
BRDA:1263,e0,1,-
BRDA:1263,0,2,-
BRDA:1263,e0,3,-
BRDA:1263,0,4,-
BRDA:1263,0,5,-
BRDA:1263,0,6,-
BRDA:1263,e0,7,-
BRDA:1263,0,8,-
BRDA:1263,e0,9,-
BRDA:1263,0,10,-
BRDA:1263,0,11,-
BRDA:1263,0,12,-
BRDA:1263,0,13,-
BRDA:1263,0,14,-
BRDA:1263,0,15,-
BRDA:1263,0,16,-
BRDA:1263,0,17,-
BRDA:1264,0,0,-
BRDA:1264,e0,1,-
BRDA:1264,0,2,-
BRDA:1264,e0,3,-
BRDA:1265,0,0,-
BRDA:1265,0,1,-
BRDA:1265,0,2,-
BRDA:1265,e0,3,-
BRDA:1265,0,4,-
BRDA:1265,e0,5,-
BRDA:1265,0,6,-
BRDA:1265,0,7,-
BRDA:1265,0,8,-
BRDA:1265,0,9,-
BRDA:1265,0,10,-
BRDA:1265,0,11,-
BRDA:1266,0,0,-
BRDA:1266,0,1,-
BRDA:1268,0,0,-
BRDA:1268,e0,1,-
BRDA:1268,0,2,-
BRDA:1268,e0,3,-
BRDA:1268,0,4,-
BRDA:1268,e0,5,-
BRDA:1268,0,6,-
BRDA:1268,e0,7,-
BRDA:1268,0,8,-
BRDA:1268,0,9,-
BRDA:1270,0,0,-
BRDA:1270,e0,1,-
BRDA:1270,0,2,-
BRDA:1270,e0,3,-
BRDA:1270,0,4,-
BRDA:1270,e0,5,-
BRDA:1270,0,6,-
BRDA:1270,e0,7,-
BRDA:1272,0,0,-
BRDA:1272,e0,1,-
BRDA:1272,0,2,-
BRDA:1272,e0,3,-
BRDA:1272,0,4,-
BRDA:1272,0,5,-
BRDA:1274,0,0,-
BRDA:1274,e0,1,-
BRDA:1274,0,2,-
BRDA:1274,e0,3,-
BRDA:1274,0,4,-
BRDA:1274,e0,5,-
BRDA:1274,0,6,-
BRDA:1274,e0,7,-
BRDA:1278,0,0,-
BRDA:1278,e0,1,-
BRDA:1278,0,2,-
BRDA:1278,e0,3,-
BRDA:1278,0,4,-
BRDA:1278,0,5,-
BRDA:1278,0,6,-
BRDA:1278,e0,7,-
BRDA:1278,0,8,-
BRDA:1278,e0,9,-
BRDA:1278,0,10,-
BRDA:1278,e0,11,-
BRDA:1278,0,12,-
BRDA:1278,0,13,-
BRDA:1278,0,14,-
BRDA:1278,0,15,-
BRDA:1278,0,16,-
BRDA:1278,0,17,-
BRDA:1278,0,18,-
BRDA:1278,0,19,-
BRDA:1278,0,20,-
BRDA:1278,0,21,-
BRDA:1278,0,22,-
BRDA:1278,0,23,-
BRDA:1278,0,24,-
BRDA:1278,0,25,-
BRDA:1278,0,26,-
BRDA:1278,0,27,-
BRDA:1278,0,28,-
BRDA:1278,0,29,-
BRDA:1278,0,30,-
BRDA:1278,0,31,-
BRDA:1283,0,0,-
BRDA:1283,e0,1,-
BRDA:1283,0,2,-
BRDA:1283,e0,3,-
BRDA:1284,0,0,-
BRDA:1284,e0,1,-
BRDA:1284,0,2,-
BRDA:1284,e0,3,-
BRDA:1284,0,4,-
BRDA:1284,e0,5,-
BRDA:1284,0,6,-
BRDA:1284,e0,7,-
BRDA:1287,0,0,21
BRDA:1287,e0,1,0
BRDA:1287,0,2,21
BRDA:1287,e0,3,0
BRDA:1287,0,4,21
BRDA:1287,e0,5,0
BRDA:1287,0,6,0
BRDA:1287,0,7,21
BRDA:1289,0,0,-
BRDA:1289,e0,1,-
BRDA:1291,0,0,21
BRDA:1291,e0,1,0
BRDA:1291,0,2,21
BRDA:1291,e0,3,0
BRDA:1291,0,4,21
BRDA:1291,e0,5,0
BRDA:1291,0,6,0
BRDA:1291,0,7,21
BRDA:1293,0,0,-
BRDA:1293,e0,1,-
BRDA:1295,0,0,21
BRDA:1295,e0,1,0
BRDA:1295,0,2,21
BRDA:1295,e0,3,0
BRDA:1295,0,4,21
BRDA:1295,e0,5,0
BRDA:1295,0,6,0
BRDA:1295,0,7,21
BRDA:1297,0,0,-
BRDA:1297,e0,1,-
BRDA:1299,0,0,21
BRDA:1299,e0,1,0
BRDA:1299,0,2,21
BRDA:1299,e0,3,0
BRDA:1299,0,4,21
BRDA:1299,e0,5,0
BRDA:1299,0,6,0
BRDA:1299,0,7,21
BRDA:1301,0,0,-
BRDA:1301,e0,1,-
BRDA:1303,0,0,21
BRDA:1303,e0,1,0
BRDA:1303,0,2,21
BRDA:1303,e0,3,0
BRDA:1303,0,4,21
BRDA:1303,e0,5,0
BRDA:1303,0,6,3
BRDA:1303,0,7,18
BRDA:1305,0,0,3
BRDA:1305,e0,1,0
BRDA:1305,0,2,3
BRDA:1305,e0,3,0
BRDA:1305,0,4,3
BRDA:1305,e0,5,0
BRDA:1305,0,6,3
BRDA:1305,e0,7,0
BRDA:1305,0,8,3
BRDA:1305,0,9,0
BRDA:1307,0,0,3
BRDA:1307,e0,1,0
BRDA:1307,0,2,3
BRDA:1307,e0,3,0
BRDA:1307,0,4,3
BRDA:1307,e0,5,0
BRDA:1307,0,6,3
BRDA:1307,e0,7,0
BRDA:1307,0,8,3
BRDA:1307,e0,9,0
BRDA:1308,0,0,3
BRDA:1308,e0,1,0
BRDA:1311,0,0,18
BRDA:1311,e0,1,0
BRDA:1311,0,2,18
BRDA:1311,e0,3,0
BRDA:1311,0,4,18
BRDA:1311,e0,5,0
BRDA:1311,0,6,14
BRDA:1311,0,7,4
BRDA:1313,0,0,14
BRDA:1313,e0,1,0
BRDA:1315,0,0,4
BRDA:1315,e0,1,0
BRDA:1315,0,2,4
BRDA:1315,e0,3,0
BRDA:1315,0,4,4
BRDA:1315,e0,5,0
BRDA:1315,0,6,4
BRDA:1315,0,7,0
BRDA:1317,0,0,4
BRDA:1317,e0,1,0
BRDA:1318,0,0,4
BRDA:1318,e0,1,0
BRDA:1322,0,0,-
BRDA:1322,e0,1,-
BRDA:1325,0,0,208
BRDA:1325,e0,1,0
BRDA:1328,0,0,120
BRDA:1328,e0,1,0
BRDA:1328,0,2,120
BRDA:1328,e0,3,0
BRDA:1328,0,4,120
BRDA:1328,e0,5,0
BRDA:1328,0,6,120
BRDA:1328,e0,7,0
BRDA:1330,0,0,120
BRDA:1330,e0,1,0
BRDA:1330,0,2,14
BRDA:1330,0,3,106
BRDA:1332,0,0,14
BRDA:1332,e0,1,0
BRDA:1332,0,2,42
BRDA:1332,0,3,14
BRDA:1332,0,4,0
BRDA:1332,0,5,0
BRDA:1333,0,0,14
BRDA:1333,e0,1,0
BRDA:1336,0,0,14
BRDA:1336,e0,1,0
BRDA:1337,0,0,14
BRDA:1337,e0,1,0
BRDA:1338,0,0,14
BRDA:1338,e0,1,0
BRDA:1338,0,2,14
BRDA:1338,e0,3,0
BRDA:1341,0,0,14
BRDA:1341,e0,1,0
BRDA:1341,0,2,14
BRDA:1341,e0,3,0
BRDA:1343,0,0,14
BRDA:1343,e0,1,0
BRDA:1343,0,2,14
BRDA:1343,0,3,0
BRDA:1345,0,0,14
BRDA:1345,e0,1,0
BRDA:1345,0,2,42
BRDA:1345,0,3,14
BRDA:1345,0,4,0
BRDA:1345,0,5,0
BRDA:1346,0,0,14
BRDA:1346,e0,1,0
BRDA:1348,0,0,14
BRDA:1348,e0,1,0
BRDA:1349,0,0,14
BRDA:1349,e0,1,0
BRDA:1350,0,0,14
BRDA:1350,e0,1,0
BRDA:1350,0,2,14
BRDA:1350,e0,3,0
BRDA:1353,0,0,14
BRDA:1353,e0,1,0
BRDA:1357,0,0,120
BRDA:1357,e0,1,0
BRDA:1357,0,2,3
BRDA:1357,0,3,117
BRDA:1359,0,0,3
BRDA:1359,e0,1,0
BRDA:1359,0,2,9
BRDA:1359,0,3,3
BRDA:1359,0,4,0
BRDA:1359,0,5,0
BRDA:1360,0,0,3
BRDA:1360,e0,1,0
BRDA:1363,0,0,3
BRDA:1363,e0,1,0
BRDA:1364,0,0,3
BRDA:1364,e0,1,0
BRDA:1365,0,0,3
BRDA:1365,e0,1,0
BRDA:1365,0,2,3
BRDA:1365,e0,3,0
BRDA:1368,0,0,3
BRDA:1368,e0,1,0
BRDA:1368,0,2,3
BRDA:1368,e0,3,0
BRDA:1371,0,0,120
BRDA:1371,e0,1,0
BRDA:1371,0,2,5
BRDA:1371,0,3,115
BRDA:1373,0,0,5
BRDA:1373,e0,1,0
BRDA:1373,0,2,5
BRDA:1373,e0,3,0
BRDA:1373,0,4,15
BRDA:1373,0,5,5
BRDA:1373,0,6,0
BRDA:1373,0,7,0
BRDA:1378,0,0,5
BRDA:1378,e0,1,0
BRDA:1378,0,2,5
BRDA:1378,0,3,120
BRDA:1380,0,0,5
BRDA:1380,e0,1,0
BRDA:1380,0,2,5
BRDA:1380,e0,3,0
BRDA:1380,0,4,5
BRDA:1380,e0,5,0
BRDA:1380,0,6,9
BRDA:1380,e0,7,0
BRDA:1380,0,8,9
BRDA:1380,e0,9,0
BRDA:1380,0,10,14
BRDA:1380,e0,11,0
BRDA:1380,0,12,9
BRDA:1380,0,13,5
BRDA:1382,0,0,9
BRDA:1382,e0,1,0
BRDA:1382,0,2,9
BRDA:1382,e0,3,0
BRDA:1382,0,4,9
BRDA:1382,e0,5,0
BRDA:1382,0,6,9
BRDA:1382,e0,7,0
BRDA:1382,0,8,18
BRDA:1382,e0,9,0
BRDA:1382,0,10,9
BRDA:1382,0,11,9
BRDA:1384,0,0,9
BRDA:1384,e0,1,0
BRDA:1390,0,0,14
BRDA:1390,e0,1,0
BRDA:1390,0,2,14
BRDA:1390,e0,3,0
BRDA:1390,0,4,14
BRDA:1390,e0,5,0
BRDA:1390,0,6,14
BRDA:1390,e0,7,0
BRDA:1390,0,8,14
BRDA:1390,e0,9,0
BRDA:1390,0,10,14
BRDA:1390,e0,11,0
BRDA:1390,0,12,3
BRDA:1390,e0,13,0
BRDA:1390,0,14,3
BRDA:1390,e0,15,0
BRDA:1390,0,16,3
BRDA:1390,e0,17,0
BRDA:1390,0,18,5
BRDA:1390,e0,19,0
BRDA:1390,0,20,5
BRDA:1390,e0,21,0
BRDA:1390,0,22,5
BRDA:1390,e0,23,0
BRDA:1390,0,24,0
BRDA:1390,0,25,0
BRDA:1390,0,26,0
BRDA:1390,0,27,0
BRDA:1390,0,28,0
BRDA:1390,0,29,0
BRDA:1390,0,30,0
BRDA:1390,0,31,0
BRDA:1390,0,32,0
BRDA:1390,0,33,0
BRDA:1390,0,34,0
BRDA:1390,0,35,0
BRDA:1390,0,36,0
BRDA:1390,0,37,0
BRDA:1390,0,38,0
BRDA:1390,0,39,0
BRDA:1399,0,0,147
BRDA:1399,e0,1,0
BRDA:1402,0,0,187
BRDA:1402,0,1,0
BRDA:1402,0,2,187
BRDA:1402,e0,3,0
BRDA:1402,0,4,187
BRDA:1402,e0,5,0
BRDA:1402,0,6,187
BRDA:1402,e0,7,0
BRDA:1402,0,8,187
BRDA:1402,e0,9,0
BRDA:1402,0,10,42
BRDA:1402,0,11,145
BRDA:1402,0,12,187
BRDA:1402,0,13,0
BRDA:1402,0,14,187
BRDA:1402,0,15,0
BRDA:1402,0,16,187
BRDA:1402,0,17,0
BRDA:1402,0,18,187
BRDA:1402,0,19,0
BRDA:1402,0,20,42
BRDA:1402,0,21,145
BRDA:1402,0,22,0
BRDA:1402,0,23,0
BRDA:1402,0,24,0
BRDA:1402,0,25,0
BRDA:1402,0,26,0
BRDA:1402,0,27,0
BRDA:1402,0,28,0
BRDA:1402,0,29,0
BRDA:1404,0,0,42
BRDA:1404,e0,1,0
BRDA:1405,0,0,39
BRDA:1405,0,1,3
BRDA:1405,0,2,39
BRDA:1405,e0,3,0
BRDA:1405,0,4,39
BRDA:1405,e0,5,0
BRDA:1405,0,6,39
BRDA:1405,e0,7,0
BRDA:1405,0,8,39
BRDA:1405,0,9,0
BRDA:1405,0,10,39
BRDA:1405,0,11,3
BRDA:1405,0,12,39
BRDA:1405,0,13,3
BRDA:1405,0,14,39
BRDA:1405,0,15,3
BRDA:1405,0,16,39
BRDA:1405,0,17,3
BRDA:1405,0,18,39
BRDA:1405,0,19,3
BRDA:1405,0,20,0
BRDA:1405,0,21,0
BRDA:1405,0,22,0
BRDA:1405,0,23,0
BRDA:1405,0,24,0
BRDA:1405,0,25,0
BRDA:1405,0,26,0
BRDA:1405,0,27,0
BRDA:1408,0,0,39
BRDA:1408,e0,1,0
BRDA:1408,0,2,39
BRDA:1408,e0,3,0
BRDA:1408,0,4,39
BRDA:1408,e0,5,0
BRDA:1408,0,6,39
BRDA:1408,e0,7,0
BRDA:1412,0,0,42
BRDA:1412,e0,1,0
BRDA:1413,0,0,2
BRDA:1413,0,1,40
BRDA:1413,0,2,2
BRDA:1413,e0,3,0
BRDA:1413,0,4,2
BRDA:1413,e0,5,0
BRDA:1413,0,6,2
BRDA:1413,e0,7,0
BRDA:1413,0,8,2
BRDA:1413,0,9,0
BRDA:1413,0,10,2
BRDA:1413,0,11,40
BRDA:1413,0,12,2
BRDA:1413,0,13,40
BRDA:1413,0,14,2
BRDA:1413,0,15,40
BRDA:1413,0,16,2
BRDA:1413,0,17,40
BRDA:1413,0,18,2
BRDA:1413,0,19,40
BRDA:1413,0,20,0
BRDA:1413,0,21,0
BRDA:1413,0,22,0
BRDA:1413,0,23,0
BRDA:1413,0,24,0
BRDA:1413,0,25,0
BRDA:1413,0,26,0
BRDA:1413,0,27,0
BRDA:1416,0,0,2
BRDA:1416,e0,1,0
BRDA:1416,0,2,2
BRDA:1416,e0,3,0
BRDA:1416,0,4,2
BRDA:1416,e0,5,0
BRDA:1416,0,6,2
BRDA:1416,e0,7,0
BRDA:1421,0,0,40
BRDA:1421,e0,1,0
BRDA:1421,0,2,40
BRDA:1421,e0,3,0
BRDA:1421,0,4,40
BRDA:1421,e0,5,0
BRDA:1421,0,6,40
BRDA:1421,e0,7,0
BRDA:1423,0,0,40
BRDA:1423,e0,1,0
BRDA:1423,0,2,40
BRDA:1423,e0,3,0
BRDA:1423,0,4,40
BRDA:1423,e0,5,0
BRDA:1431,0,0,40
BRDA:1431,e0,1,0
BRDA:1433,0,0,40
BRDA:1433,e0,1,0
BRDA:1433,0,2,40
BRDA:1433,e0,3,0
BRDA:1433,0,4,7
BRDA:1433,0,5,33
BRDA:1435,0,0,7
BRDA:1435,e0,1,0
BRDA:1435,0,2,7
BRDA:1435,e0,3,0
BRDA:1435,0,4,7
BRDA:1435,e0,5,0
BRDA:1438,0,0,40
BRDA:1438,e0,1,0
BRDA:1438,0,2,40
BRDA:1438,e0,3,0
BRDA:1438,0,4,0
BRDA:1438,0,5,40
BRDA:1440,0,0,-
BRDA:1440,e0,1,-
BRDA:1440,0,2,-
BRDA:1440,e0,3,-
BRDA:1440,0,4,-
BRDA:1440,e0,5,-
BRDA:1443,0,0,40
BRDA:1443,e0,1,0
BRDA:1443,0,2,40
BRDA:1443,e0,3,0
BRDA:1443,0,4,0
BRDA:1443,0,5,40
BRDA:1443,0,6,0
BRDA:1443,e0,7,0
BRDA:1443,0,8,0
BRDA:1443,e0,9,0
BRDA:1443,0,10,0
BRDA:1443,e0,11,0
BRDA:1443,0,12,0
BRDA:1443,0,13,0
BRDA:1443,0,14,0
BRDA:1443,0,15,40
BRDA:1443,0,16,0
BRDA:1443,0,17,40
BRDA:1443,0,18,40
BRDA:1443,0,19,0
BRDA:1443,0,20,40
BRDA:1443,0,21,0
BRDA:1443,0,22,0
BRDA:1443,0,23,40
BRDA:1443,0,24,0
BRDA:1443,0,25,0
BRDA:1443,0,26,0
BRDA:1443,0,27,0
BRDA:1443,0,28,0
BRDA:1443,0,29,0
BRDA:1443,0,30,0
BRDA:1443,0,31,0
BRDA:1448,0,0,40
BRDA:1448,e0,1,0
BRDA:1448,0,2,40
BRDA:1448,e0,3,0
BRDA:1448,0,4,40
BRDA:1448,e0,5,0
BRDA:1448,0,6,40
BRDA:1448,e0,7,0
BRDA:1448,0,8,35
BRDA:1448,0,9,5
BRDA:1450,0,0,35
BRDA:1450,e0,1,0
BRDA:1450,0,2,35
BRDA:1450,e0,3,0
BRDA:1450,0,4,35
BRDA:1450,e0,5,0
BRDA:1450,0,6,35
BRDA:1450,e0,7,0
BRDA:1450,0,8,35
BRDA:1450,e0,9,0
BRDA:1453,0,0,40
BRDA:1453,e0,1,0
BRDA:1453,0,2,40
BRDA:1453,e0,3,0
BRDA:1453,0,4,35
BRDA:1453,0,5,5
BRDA:1455,0,0,35
BRDA:1455,e0,1,0
BRDA:1455,0,2,35
BRDA:1455,e0,3,0
BRDA:1455,0,4,35
BRDA:1455,e0,5,0
BRDA:1458,0,0,40
BRDA:1458,e0,1,0
BRDA:1458,0,2,40
BRDA:1458,e0,3,0
BRDA:1463,0,0,2
BRDA:1463,0,1,145
BRDA:1469,0,0,145
BRDA:1469,e0,1,0
BRDA:1469,0,2,145
BRDA:1469,e0,3,0
BRDA:1469,0,4,145
BRDA:1469,e0,5,0
BRDA:1469,0,6,145
BRDA:1469,e0,7,0
BRDA:1471,0,0,0
BRDA:1471,0,1,145
BRDA:1472,0,0,145
BRDA:1472,e0,1,0
BRDA:1472,0,2,145
BRDA:1472,e0,3,0
BRDA:1472,0,4,0
BRDA:1472,0,5,0
BRDA:1473,0,0,145
BRDA:1473,e0,1,0
BRDA:1474,0,0,145
BRDA:1474,e0,1,0
BRDA:1474,0,2,145
BRDA:1474,e0,3,0
BRDA:1474,0,4,145
BRDA:1474,e0,5,0
BRDA:1476,0,0,145
BRDA:1476,e0,1,0
BRDA:1476,0,2,145
BRDA:1476,e0,3,0
BRDA:1477,0,0,145
BRDA:1477,e0,1,0
BRDA:1479,0,0,145
BRDA:1479,e0,1,0
BRDA:1479,0,2,145
BRDA:1479,e0,3,0
BRDA:1479,0,4,0
BRDA:1479,0,5,145
BRDA:1481,0,0,-
BRDA:1481,e0,1,-
BRDA:1481,0,2,-
BRDA:1481,e0,3,-
BRDA:1484,0,0,145
BRDA:1484,e0,1,0
BRDA:1484,0,2,145
BRDA:1484,e0,3,0
BRDA:1485,0,0,145
BRDA:1485,0,1,0
BRDA:1485,0,2,145
BRDA:1485,e0,3,0
BRDA:1485,0,4,145
BRDA:1485,e0,5,0
BRDA:1485,0,6,145
BRDA:1485,e0,7,0
BRDA:1485,0,8,0
BRDA:1485,e0,9,0
BRDA:1485,0,10,0
BRDA:1485,0,11,145
BRDA:1485,0,12,145
BRDA:1485,0,13,0
BRDA:1485,0,14,145
BRDA:1485,0,15,0
BRDA:1485,0,16,0
BRDA:1485,0,17,0
BRDA:1485,0,18,0
BRDA:1485,0,19,0
BRDA:1485,0,20,0
BRDA:1485,0,21,0
BRDA:1487,0,0,145
BRDA:1487,e0,1,0
BRDA:1487,0,2,145
BRDA:1487,e0,3,0
BRDA:1487,0,4,32
BRDA:1487,0,5,113
BRDA:1490,0,0,32
BRDA:1490,e0,1,0
BRDA:1490,0,2,32
BRDA:1490,e0,3,0
BRDA:1490,0,4,32
BRDA:1490,e0,5,0
BRDA:1499,0,0,32
BRDA:1499,e0,1,0
BRDA:1499,0,2,32
BRDA:1499,e0,3,0
BRDA:1506,0,0,290
BRDA:1506,e0,1,0
BRDA:1506,0,2,290
BRDA:1506,e0,3,0
BRDA:1506,0,4,290
BRDA:1506,e0,5,0
BRDA:1506,0,6,290
BRDA:1506,e0,7,0
BRDA:1506,0,8,145
BRDA:1506,0,9,145
BRDA:1508,0,0,145
BRDA:1508,e0,1,0
BRDA:1510,0,0,145
BRDA:1510,e0,1,0
BRDA:1510,0,2,145
BRDA:1510,e0,3,0
BRDA:1510,0,4,145
BRDA:1510,e0,5,0
BRDA:1510,0,6,144
BRDA:1510,0,7,1
BRDA:1513,0,0,144
BRDA:1513,e0,1,0
BRDA:1515,0,0,1
BRDA:1515,e0,1,0
BRDA:1515,0,2,1
BRDA:1515,e0,3,0
BRDA:1515,0,4,1
BRDA:1515,e0,5,0
BRDA:1515,0,6,0
BRDA:1515,0,7,1
BRDA:1521,0,0,-
BRDA:1521,e0,1,-
BRDA:1523,0,0,-
BRDA:1523,e0,1,-
BRDA:1523,0,2,-
BRDA:1523,e0,3,-
BRDA:1523,0,4,-
BRDA:1523,0,5,-
BRDA:1525,0,0,-
BRDA:1525,e0,1,-
BRDA:1525,0,2,-
BRDA:1525,e0,3,-
BRDA:1525,0,4,-
BRDA:1525,e0,5,-
BRDA:1526,0,0,-
BRDA:1526,e0,1,-
BRDA:1526,0,2,-
BRDA:1526,0,3,-
BRDA:1529,0,0,-
BRDA:1529,e0,1,-
BRDA:1529,0,2,-
BRDA:1529,e0,3,-
BRDA:1530,0,0,-
BRDA:1530,e0,1,-
BRDA:1530,0,2,-
BRDA:1530,e0,3,-
BRDA:1530,0,4,-
BRDA:1530,0,5,-
BRDA:1535,0,0,-
BRDA:1535,e0,1,-
BRDA:1535,0,2,-
BRDA:1535,0,3,-
BRDA:1538,0,0,-
BRDA:1538,e0,1,-
BRDA:1538,0,2,-
BRDA:1538,e0,3,-
BRDA:1538,0,4,-
BRDA:1538,e0,5,-
BRDA:1543,0,0,-
BRDA:1543,e0,1,-
BRDA:1543,0,2,-
BRDA:1543,e0,3,-
BRDA:1546,0,0,-
BRDA:1546,e0,1,-
BRDA:1548,0,0,-
BRDA:1548,0,1,-
BRDA:1550,0,0,-
BRDA:1550,0,1,-
BRDA:1552,0,0,-
BRDA:1552,e0,1,-
BRDA:1552,0,2,-
BRDA:1552,e0,3,-
BRDA:1554,0,0,-
BRDA:1554,0,1,-
BRDA:1556,0,0,-
BRDA:1556,e0,1,-
BRDA:1556,0,2,-
BRDA:1556,e0,3,-
BRDA:1556,0,4,-
BRDA:1556,e0,5,-
BRDA:1559,0,0,-
BRDA:1559,0,1,-
BRDA:1561,0,0,-
BRDA:1561,e0,1,-
BRDA:1562,0,0,-
BRDA:1562,0,1,-
BRDA:1564,0,0,-
BRDA:1564,e0,1,-
BRDA:1568,0,0,1
BRDA:1568,e0,1,0
BRDA:1568,0,2,1
BRDA:1568,e0,3,0
BRDA:1568,0,4,1
BRDA:1568,e0,5,0
BRDA:1568,0,6,1
BRDA:1568,0,7,0
BRDA:1570,0,0,1
BRDA:1570,e0,1,0
BRDA:1570,0,2,1
BRDA:1570,e0,3,0
BRDA:1570,0,4,1
BRDA:1570,e0,5,0
BRDA:1570,0,6,1
BRDA:1570,e0,7,0
BRDA:1572,0,0,1
BRDA:1572,e0,1,0
BRDA:1573,0,0,1
BRDA:1573,e0,1,0
BRDA:1573,0,2,1
BRDA:1573,e0,3,0
BRDA:1573,0,4,1
BRDA:1573,e0,5,0
BRDA:1573,0,6,1
BRDA:1573,e0,7,0
BRDA:1577,0,0,-
BRDA:1577,e0,1,-
BRDA:1580,0,0,145
BRDA:1580,e0,1,0
BRDA:1583,0,0,145
BRDA:1583,e0,1,0
BRDA:1583,0,2,145
BRDA:1583,e0,3,0
BRDA:1583,0,4,145
BRDA:1583,e0,5,0
BRDA:1583,0,6,145
BRDA:1583,e0,7,0
BRDA:1585,0,0,0
BRDA:1585,0,1,145
BRDA:1587,0,0,-
BRDA:1587,e0,1,-
BRDA:1590,0,0,145
BRDA:1590,0,1,0
BRDA:1592,0,0,145
BRDA:1592,e0,1,0
BRDA:1592,0,2,0
BRDA:1592,0,3,145
BRDA:1594,0,0,-
BRDA:1594,e0,1,-
BRDA:1594,0,2,-
BRDA:1594,e0,3,-
BRDA:1595,0,0,-
BRDA:1595,e0,1,-
BRDA:1597,0,0,145
BRDA:1597,e0,1,0
BRDA:1597,0,2,1
BRDA:1597,0,3,144
BRDA:1599,0,0,1
BRDA:1599,e0,1,0
BRDA:1599,0,2,1
BRDA:1599,e0,3,0
BRDA:1600,0,0,1
BRDA:1600,e0,1,0
BRDA:1602,0,0,144
BRDA:1602,e0,1,0
BRDA:1602,0,2,144
BRDA:1602,0,3,0
BRDA:1604,0,0,144
BRDA:1604,e0,1,0
BRDA:1605,0,0,144
BRDA:1605,e0,1,0
BRDA:1607,0,0,-
BRDA:1607,e0,1,-
BRDA:1607,0,2,-
BRDA:1607,0,3,-
BRDA:1609,0,0,-
BRDA:1609,e0,1,-
BRDA:1609,0,2,-
BRDA:1609,e0,3,-
BRDA:1611,0,0,-
BRDA:1611,e0,1,-
BRDA:1611,0,2,-
BRDA:1611,0,3,-
BRDA:1613,0,0,-
BRDA:1613,e0,1,-
BRDA:1613,0,2,-
BRDA:1613,e0,3,-
BRDA:1615,0,0,-
BRDA:1615,0,1,-
BRDA:1615,0,2,-
BRDA:1615,0,3,-
BRDA:1615,0,4,-
BRDA:1615,0,5,-
BRDA:1617,0,0,-
BRDA:1617,e0,1,-
BRDA:1626,0,0,1164
BRDA:1626,e0,1,0
BRDA:1626,0,2,1164
BRDA:1626,e0,3,0
BRDA:1626,0,4,1164
BRDA:1626,e0,5,0
BRDA:1626,0,6,1164
BRDA:1626,e0,7,0
BRDA:1626,0,8,1164
BRDA:1626,e0,9,0
BRDA:1626,0,10,1164
BRDA:1626,e0,11,0
BRDA:1626,0,12,1164
BRDA:1626,e0,13,0
BRDA:1626,0,14,1164
BRDA:1626,e0,15,0
BRDA:1626,0,16,1164
BRDA:1626,e0,17,0
BRDA:1629,0,0,1164
BRDA:1629,e0,1,0
BRDA:1629,0,2,929
BRDA:1629,0,3,235
BRDA:1631,0,0,235
BRDA:1631,e0,1,0
BRDA:1632,0,0,235
BRDA:1632,e0,1,0
BRDA:1633,0,0,235
BRDA:1633,e0,1,0
BRDA:1633,0,2,235
BRDA:1633,e0,3,0
BRDA:1636,0,0,235
BRDA:1636,e0,1,0
BRDA:1636,0,2,235
BRDA:1636,e0,3,0
BRDA:1636,0,4,235
BRDA:1636,e0,5,0
BRDA:1636,0,6,235
BRDA:1636,e0,7,0
BRDA:1638,0,0,1012
BRDA:1638,e0,1,0
BRDA:1638,0,2,1012
BRDA:1638,e0,3,0
BRDA:1638,0,4,1012
BRDA:1638,e0,5,0
BRDA:1638,0,6,1012
BRDA:1638,e0,7,0
BRDA:1638,0,8,777
BRDA:1638,0,9,235
BRDA:1640,0,0,777
BRDA:1640,e0,1,0
BRDA:1640,0,2,777
BRDA:1640,e0,3,0
BRDA:1640,0,4,777
BRDA:1640,e0,5,0
BRDA:1640,0,6,777
BRDA:1640,e0,7,0
BRDA:1642,0,0,777
BRDA:1642,e0,1,0
BRDA:1642,0,2,777
BRDA:1642,e0,3,0
BRDA:1643,0,0,30
BRDA:1643,0,1,747
BRDA:1643,0,2,30
BRDA:1643,e0,3,0
BRDA:1643,0,4,30
BRDA:1643,e0,5,0
BRDA:1643,0,6,30
BRDA:1643,0,7,747
BRDA:1643,0,8,0
BRDA:1643,0,9,0
BRDA:1643,0,10,0
BRDA:1643,0,11,0
BRDA:1644,0,0,30
BRDA:1644,0,1,747
BRDA:1645,0,0,777
BRDA:1645,e0,1,0
BRDA:1645,0,2,777
BRDA:1645,e0,3,0
BRDA:1645,0,4,777
BRDA:1645,e0,5,0
BRDA:1647,0,0,777
BRDA:1647,e0,1,0
BRDA:1647,0,2,777
BRDA:1647,e0,3,0
BRDA:1647,0,4,6
BRDA:1647,0,5,771
BRDA:1647,0,6,6
BRDA:1647,0,7,0
BRDA:1647,0,8,6
BRDA:1647,0,9,771
BRDA:1649,0,0,6
BRDA:1649,e0,1,0
BRDA:1649,0,2,6
BRDA:1649,e0,3,0
BRDA:1649,0,4,6
BRDA:1649,e0,5,0
BRDA:1649,0,6,6
BRDA:1649,e0,7,0
BRDA:1649,0,8,6
BRDA:1649,e0,9,0
BRDA:1649,0,10,6
BRDA:1649,e0,11,0
BRDA:1649,0,12,6
BRDA:1649,e0,13,0
BRDA:1649,0,14,6
BRDA:1649,e0,15,0
BRDA:1649,0,16,6
BRDA:1649,e0,17,0
BRDA:1652,0,0,777
BRDA:1652,e0,1,0
BRDA:1652,0,2,777
BRDA:1652,e0,3,0
BRDA:1652,0,4,777
BRDA:1652,e0,5,0
BRDA:1653,0,0,777
BRDA:1653,e0,1,0
BRDA:1653,0,2,777
BRDA:1653,e0,3,0
BRDA:1654,0,0,777
BRDA:1654,e0,1,0
BRDA:1654,0,2,777
BRDA:1654,e0,3,0
BRDA:1656,0,0,777
BRDA:1656,e0,1,0
BRDA:1656,0,2,777
BRDA:1656,e0,3,0
BRDA:1656,0,4,777
BRDA:1656,e0,5,0
BRDA:1656,0,6,777
BRDA:1656,e0,7,0
BRDA:1659,0,0,235
BRDA:1659,e0,1,0
BRDA:1659,0,2,235
BRDA:1659,e0,3,0
BRDA:1659,0,4,235
BRDA:1659,e0,5,0
BRDA:1659,0,6,235
BRDA:1659,e0,7,0
BRDA:1667,0,0,1
BRDA:1667,e0,1,0
BRDA:1668,0,0,1
BRDA:1668,e0,1,0
BRDA:1668,0,2,1
BRDA:1668,e0,3,0
BRDA:1670,0,0,1
BRDA:1670,e0,1,0
BRDA:1676,0,0,663
BRDA:1676,e0,1,0
BRDA:1677,0,0,663
BRDA:1677,e0,1,0
BRDA:1678,0,0,663
BRDA:1678,e0,1,0
BRDA:1679,0,0,663
BRDA:1679,e0,1,0
BRDA:1680,0,0,663
BRDA:1680,e0,1,0
BRDA:1680,0,2,663
BRDA:1680,e0,3,0
BRDA:1683,0,0,663
BRDA:1683,e0,1,0
BRDA:1683,0,2,84
BRDA:1683,0,3,84
BRDA:1683,0,4,4
BRDA:1683,0,5,96
BRDA:1683,0,6,0
BRDA:1683,0,7,0
BRDA:1683,0,8,0
BRDA:1683,0,9,0
BRDA:1683,0,10,0
BRDA:1683,0,11,0
BRDA:1683,0,12,69
BRDA:1683,0,13,84
BRDA:1683,0,14,72
BRDA:1683,0,15,0
BRDA:1683,0,16,0
BRDA:1683,0,17,119
BRDA:1683,0,18,42
BRDA:1683,0,19,0
BRDA:1683,0,20,0
BRDA:1683,0,21,0
BRDA:1683,0,22,0
BRDA:1683,0,23,0
BRDA:1683,0,24,5
BRDA:1683,0,25,0
BRDA:1683,0,26,0
BRDA:1683,0,27,0
BRDA:1683,0,28,0
BRDA:1683,0,29,0
BRDA:1683,0,30,0
BRDA:1683,0,31,0
BRDA:1683,0,32,0
BRDA:1683,0,33,0
BRDA:1683,0,34,0
BRDA:1683,0,35,2
BRDA:1683,0,36,2
BRDA:1683,0,37,0
BRDA:1686,0,0,84
BRDA:1686,e0,1,0
BRDA:1690,0,0,84
BRDA:1690,e0,1,0
BRDA:1694,0,0,4
BRDA:1694,e0,1,0
BRDA:1698,0,0,96
BRDA:1698,e0,1,0
BRDA:1698,0,2,95
BRDA:1698,e0,3,1
BRDA:1726,0,0,69
BRDA:1726,e0,1,0
BRDA:1730,0,0,84
BRDA:1730,e0,1,0
BRDA:1734,0,0,72
BRDA:1734,e0,1,0
BRDA:1738,0,0,-
BRDA:1738,e0,1,-
BRDA:1742,0,0,-
BRDA:1742,e0,1,-
BRDA:1746,0,0,119
BRDA:1746,e0,1,0
BRDA:1746,0,2,119
BRDA:1746,e0,3,0
BRDA:1750,0,0,42
BRDA:1750,e0,1,0
BRDA:1770,0,0,5
BRDA:1770,e0,1,0
BRDA:1804,0,0,2
BRDA:1804,e0,1,0
BRDA:1808,0,0,2
BRDA:1808,e0,1,0
BRDA:1819,0,0,96
BRDA:1819,e0,1,0
BRDA:1821,0,0,96
BRDA:1821,e0,1,0
BRDA:1822,0,0,96
BRDA:1822,e0,1,0
BRDA:1822,0,2,96
BRDA:1822,e0,3,0
BRDA:1824,0,0,96
BRDA:1824,e0,1,0
BRDA:1824,0,2,310
BRDA:1824,0,3,96
BRDA:1826,0,0,310
BRDA:1826,e0,1,0
BRDA:1826,0,2,310
BRDA:1826,e0,3,0
BRDA:1829,0,0,96
BRDA:1829,e0,1,0
BRDA:1829,0,2,96
BRDA:1829,e0,3,0
BRDA:1829,0,4,310
BRDA:1829,e0,5,0
BRDA:1829,0,6,310
BRDA:1829,0,7,96
BRDA:1831,0,0,310
BRDA:1831,e0,1,0
BRDA:1831,0,2,96
BRDA:1831,0,3,214
BRDA:1837,0,0,214
BRDA:1837,e0,1,0
BRDA:1837,0,2,214
BRDA:1837,e0,3,0
BRDA:1837,0,4,214
BRDA:1837,0,5,214
BRDA:1837,0,6,0
BRDA:1837,0,7,0
BRDA:1838,0,0,214
BRDA:1838,0,1,96
BRDA:1840,0,0,96
BRDA:1840,e0,1,0
BRDA:1840,0,2,1068
BRDA:1840,0,3,96
BRDA:1842,0,0,1068
BRDA:1842,e0,1,0
BRDA:1842,0,2,1068
BRDA:1842,e0,3,0
BRDA:1842,0,4,467
BRDA:1842,0,5,1068
BRDA:1844,0,0,467
BRDA:1844,e0,1,0
BRDA:1844,0,2,467
BRDA:1844,e0,3,0
BRDA:1848,0,0,96
BRDA:1848,e0,1,0
BRDA:1848,0,2,95
BRDA:1848,e0,3,1
BRDA:1848,0,4,95
BRDA:1848,0,5,95
BRDA:1848,0,6,1
BRDA:1848,0,7,1
BRDA:1850,0,0,214
BRDA:1850,e0,1,0
BRDA:1850,0,2,96
BRDA:1850,e0,3,0
BRDA:1850,0,4,96
BRDA:1850,e0,5,0
BRDA:1850,0,6,0
BRDA:1850,0,7,0
BRDA:1850,0,8,0
BRDA:1850,0,9,0
BRDA:1850,0,10,1
BRDA:1850,0,11,0
BRDA:1850,0,12,0
BRDA:1850,0,13,1
BRDA:1856,0,0,96
BRDA:1856,e0,1,0
BRDA:1857,0,0,96
BRDA:1857,e0,1,0
BRDA:1857,0,2,96
BRDA:1857,e0,3,0
BRDA:1857,0,4,96
BRDA:1857,e0,5,0
BRDA:1858,0,0,96
BRDA:1858,e0,1,0
BRDA:1859,0,0,96
BRDA:1859,e0,1,0
BRDA:1859,0,2,96
BRDA:1859,e0,3,0
BRDA:1862,0,0,96
BRDA:1862,e0,1,0
BRDA:1862,0,2,96
BRDA:1862,e0,3,0
BRDA:1862,0,4,96
BRDA:1862,e0,5,0
BRDA:1862,0,6,96
BRDA:1862,e0,7,0
BRDA:1864,0,0,1022
BRDA:1864,e0,1,0
BRDA:1864,0,2,1022
BRDA:1864,e0,3,0
BRDA:1864,0,4,1022
BRDA:1864,e0,5,0
BRDA:1864,0,6,1022
BRDA:1864,e0,7,0
BRDA:1864,0,8,926
BRDA:1864,0,9,96
BRDA:1866,0,0,926
BRDA:1866,e0,1,0
BRDA:1868,0,0,926
BRDA:1868,e0,1,0
BRDA:1868,0,2,926
BRDA:1868,e0,3,0
BRDA:1868,0,4,926
BRDA:1868,e0,5,0
BRDA:1868,0,6,237
BRDA:1868,0,7,689
BRDA:1870,0,0,237
BRDA:1870,e0,1,0
BRDA:1870,0,2,237
BRDA:1870,e0,3,0
BRDA:1870,0,4,237
BRDA:1870,e0,5,0
BRDA:1871,0,0,237
BRDA:1871,e0,1,0
BRDA:1871,0,2,237
BRDA:1871,e0,3,0
BRDA:1871,0,4,237
BRDA:1871,e0,5,0
BRDA:1872,0,0,237
BRDA:1872,e0,1,0
BRDA:1874,0,0,689
BRDA:1874,e0,1,0
BRDA:1874,0,2,689
BRDA:1874,e0,3,0
BRDA:1874,0,4,689
BRDA:1874,e0,5,0
BRDA:1874,0,6,689
BRDA:1874,0,7,0
BRDA:1876,0,0,689
BRDA:1876,e0,1,0
BRDA:1876,0,2,689
BRDA:1876,e0,3,0
BRDA:1876,0,4,689
BRDA:1876,e0,5,0
BRDA:1877,0,0,689
BRDA:1877,e0,1,0
BRDA:1877,0,2,689
BRDA:1877,e0,3,0
BRDA:1877,0,4,689
BRDA:1877,e0,5,0
BRDA:1878,0,0,689
BRDA:1878,e0,1,0
BRDA:1878,0,2,689
BRDA:1878,e0,3,0
BRDA:1882,0,0,-
BRDA:1882,e0,1,-
BRDA:1885,0,0,926
BRDA:1885,e0,1,0
BRDA:1888,0,0,96
BRDA:1888,e0,1,0
BRDA:1888,0,2,96
BRDA:1888,e0,3,0
BRDA:1888,0,4,96
BRDA:1888,e0,5,0
BRDA:1888,0,6,96
BRDA:1888,e0,7,0
BRDA:1895,0,0,84
BRDA:1895,e0,1,0
BRDA:1895,0,2,84
BRDA:1895,e0,3,0
BRDA:1895,0,4,84
BRDA:1895,e0,5,0
BRDA:1895,0,6,84
BRDA:1895,e0,7,0
BRDA:1897,0,0,494
BRDA:1897,e0,1,0
BRDA:1897,0,2,494
BRDA:1897,e0,3,0
BRDA:1897,0,4,494
BRDA:1897,e0,5,0
BRDA:1897,0,6,494
BRDA:1897,e0,7,0
BRDA:1897,0,8,410
BRDA:1897,0,9,84
BRDA:1899,0,0,410
BRDA:1899,e0,1,0
BRDA:1900,0,0,410
BRDA:1900,e0,1,0
BRDA:1901,0,0,335
BRDA:1901,0,1,75
BRDA:1901,0,2,81
BRDA:1901,0,3,254
BRDA:1903,0,0,156
BRDA:1903,e0,1,0
BRDA:1903,0,2,156
BRDA:1903,e0,3,0
BRDA:1903,0,4,156
BRDA:1903,e0,5,0
BRDA:1903,0,6,156
BRDA:1903,e0,7,0
BRDA:1905,0,0,410
BRDA:1905,e0,1,0
BRDA:1905,0,2,410
BRDA:1905,e0,3,0
BRDA:1905,0,4,410
BRDA:1905,e0,5,0
BRDA:1906,0,0,410
BRDA:1906,e0,1,0
BRDA:1909,0,0,84
BRDA:1909,e0,1,0
BRDA:1909,0,2,84
BRDA:1909,e0,3,0
BRDA:1909,0,4,84
BRDA:1909,e0,5,0
BRDA:1909,0,6,84
BRDA:1909,e0,7,0
BRDA:1914,0,0,84
BRDA:1914,e0,1,0
BRDA:1914,0,2,84
BRDA:1914,e0,3,0
BRDA:1914,0,4,84
BRDA:1914,e0,5,0
BRDA:1914,0,6,84
BRDA:1914,e0,7,0
BRDA:1916,0,0,810
BRDA:1916,e0,1,0
BRDA:1916,0,2,810
BRDA:1916,e0,3,0
BRDA:1916,0,4,810
BRDA:1916,e0,5,0
BRDA:1916,0,6,810
BRDA:1916,e0,7,0
BRDA:1916,0,8,726
BRDA:1916,0,9,84
BRDA:1918,0,0,726
BRDA:1918,e0,1,0
BRDA:1919,0,0,726
BRDA:1919,e0,1,0
BRDA:1920,0,0,726
BRDA:1920,e0,1,0
BRDA:1920,0,2,726
BRDA:1920,e0,3,0
BRDA:1921,0,0,726
BRDA:1921,e0,1,0
BRDA:1924,0,0,84
BRDA:1924,e0,1,0
BRDA:1924,0,2,84
BRDA:1924,e0,3,0
BRDA:1924,0,4,84
BRDA:1924,e0,5,0
BRDA:1924,0,6,84
BRDA:1924,e0,7,0
BRDA:1929,0,0,4
BRDA:1929,e0,1,0
BRDA:1929,0,2,4
BRDA:1929,e0,3,0
BRDA:1929,0,4,4
BRDA:1929,e0,5,0
BRDA:1929,0,6,4
BRDA:1929,e0,7,0
BRDA:1931,0,0,8
BRDA:1931,e0,1,0
BRDA:1931,0,2,8
BRDA:1931,e0,3,0
BRDA:1931,0,4,8
BRDA:1931,e0,5,0
BRDA:1931,0,6,8
BRDA:1931,e0,7,0
BRDA:1931,0,8,4
BRDA:1931,0,9,4
BRDA:1933,0,0,4
BRDA:1933,e0,1,0
BRDA:1934,0,0,4
BRDA:1934,e0,1,0
BRDA:1934,0,2,4
BRDA:1934,e0,3,0
BRDA:1934,0,4,4
BRDA:1934,e0,5,0
BRDA:1935,0,0,4
BRDA:1935,e0,1,0
BRDA:1935,0,2,4
BRDA:1935,e0,3,0
BRDA:1935,0,4,4
BRDA:1935,e0,5,0
BRDA:1936,0,0,4
BRDA:1936,e0,1,0
BRDA:1936,0,2,4
BRDA:1936,e0,3,0
BRDA:1936,0,4,4
BRDA:1936,e0,5,0
BRDA:1937,0,0,4
BRDA:1937,e0,1,0
BRDA:1937,0,2,4
BRDA:1937,e0,3,0
BRDA:1938,0,0,4
BRDA:1938,e0,1,0
BRDA:1941,0,0,4
BRDA:1941,e0,1,0
BRDA:1941,0,2,4
BRDA:1941,e0,3,0
BRDA:1941,0,4,4
BRDA:1941,e0,5,0
BRDA:1941,0,6,4
BRDA:1941,e0,7,0
BRDA:1948,0,0,96
BRDA:1948,e0,1,0
BRDA:1951,0,0,3
BRDA:1951,e0,1,0
BRDA:1951,0,2,3
BRDA:1951,0,3,0
BRDA:1952,0,0,3
BRDA:1952,0,1,93
BRDA:1952,0,2,1
BRDA:1952,0,3,95
BRDA:1954,0,0,3
BRDA:1954,e0,1,0
BRDA:1954,0,2,1
BRDA:1954,0,3,2
BRDA:1956,0,0,1
BRDA:1956,e0,1,0
BRDA:1961,0,0,95
BRDA:1961,e0,1,0
BRDA:1961,0,2,95
BRDA:1961,e0,3,0
BRDA:1961,0,4,95
BRDA:1961,e0,5,0
BRDA:1961,0,6,95
BRDA:1961,e0,7,0
BRDA:1962,0,0,95
BRDA:1962,e0,1,0
BRDA:1962,0,2,95
BRDA:1962,e0,3,0
BRDA:1962,0,4,95
BRDA:1962,e0,5,0
BRDA:1962,0,6,95
BRDA:1962,e0,7,0
BRDA:1964,0,0,642
BRDA:1964,e0,1,0
BRDA:1964,0,2,642
BRDA:1964,e0,3,0
BRDA:1964,0,4,642
BRDA:1964,e0,5,0
BRDA:1964,0,6,642
BRDA:1964,e0,7,0
BRDA:1964,0,8,547
BRDA:1964,0,9,95
BRDA:1966,0,0,547
BRDA:1966,e0,1,0
BRDA:1968,0,0,547
BRDA:1968,e0,1,0
BRDA:1968,0,2,547
BRDA:1968,e0,3,0
BRDA:1968,0,4,547
BRDA:1968,e0,5,0
BRDA:1968,0,6,77
BRDA:1968,0,7,470
BRDA:1972,0,0,77
BRDA:1972,e0,1,0
BRDA:1972,0,2,77
BRDA:1972,e0,3,0
BRDA:1972,0,4,77
BRDA:1972,0,5,0
BRDA:1974,0,0,77
BRDA:1974,e0,1,0
BRDA:1974,0,2,77
BRDA:1974,e0,3,0
BRDA:1974,0,4,77
BRDA:1974,e0,5,0
BRDA:1977,0,0,77
BRDA:1977,e0,1,0
BRDA:1977,0,2,77
BRDA:1977,e0,3,0
BRDA:1977,0,4,66
BRDA:1977,0,5,11
BRDA:1979,0,0,66
BRDA:1979,e0,1,0
BRDA:1979,0,2,66
BRDA:1979,e0,3,0
BRDA:1982,0,0,77
BRDA:1982,e0,1,0
BRDA:1982,0,2,77
BRDA:1982,e0,3,0
BRDA:1982,0,4,66
BRDA:1982,0,5,11
BRDA:1984,0,0,66
BRDA:1984,e0,1,0
BRDA:1984,0,2,66
BRDA:1984,e0,3,0
BRDA:1987,0,0,77
BRDA:1987,e0,1,0
BRDA:1987,0,2,77
BRDA:1987,e0,3,0
BRDA:1987,0,4,66
BRDA:1987,0,5,11
BRDA:1989,0,0,66
BRDA:1989,e0,1,0
BRDA:1989,0,2,66
BRDA:1989,e0,3,0
BRDA:1992,0,0,77
BRDA:1992,e0,1,0
BRDA:1992,0,2,77
BRDA:1992,e0,3,0
BRDA:1994,0,0,77
BRDA:1994,e0,1,0
BRDA:1996,0,0,470
BRDA:1996,e0,1,0
BRDA:1996,0,2,470
BRDA:1996,e0,3,0
BRDA:1996,0,4,470
BRDA:1996,e0,5,0
BRDA:1996,0,6,0
BRDA:1996,0,7,470
BRDA:1998,0,0,-
BRDA:1998,e0,1,-
BRDA:2000,0,0,470
BRDA:2000,e0,1,0
BRDA:2000,0,2,470
BRDA:2000,e0,3,0
BRDA:2000,0,4,470
BRDA:2000,e0,5,0
BRDA:2000,0,6,39
BRDA:2000,0,7,431
BRDA:2002,0,0,78
BRDA:2002,e0,1,0
BRDA:2002,0,2,78
BRDA:2002,e0,3,0
BRDA:2002,0,4,78
BRDA:2002,e0,5,0
BRDA:2002,0,6,78
BRDA:2002,e0,7,0
BRDA:2002,0,8,39
BRDA:2002,0,9,39
BRDA:2004,0,0,39
BRDA:2004,e0,1,0
BRDA:2006,0,0,39
BRDA:2006,e0,1,0
BRDA:2006,0,2,39
BRDA:2006,e0,3,0
BRDA:2006,0,4,39
BRDA:2006,0,5,0
BRDA:2006,0,6,39
BRDA:2006,0,7,0
BRDA:2006,0,8,39
BRDA:2006,0,9,0
BRDA:2006,0,10,39
BRDA:2006,0,11,0
BRDA:2006,0,12,0
BRDA:2006,0,13,0
BRDA:2006,0,14,0
BRDA:2006,0,15,0
BRDA:2006,0,16,0
BRDA:2006,0,17,0
BRDA:2006,0,18,0
BRDA:2006,0,19,0
BRDA:2007,0,0,39
BRDA:2007,e0,1,0
BRDA:2007,0,2,39
BRDA:2007,e0,3,0
BRDA:2007,0,4,39
BRDA:2007,0,5,0
BRDA:2007,0,6,39
BRDA:2007,0,7,0
BRDA:2007,0,8,39
BRDA:2007,0,9,0
BRDA:2007,0,10,0
BRDA:2007,0,11,0
BRDA:2007,0,12,0
BRDA:2007,0,13,0
BRDA:2008,0,0,39
BRDA:2008,e0,1,0
BRDA:2008,0,2,39
BRDA:2008,0,3,0
BRDA:2008,0,4,39
BRDA:2008,e0,5,0
BRDA:2008,0,6,39
BRDA:2008,e0,7,0
BRDA:2008,0,8,39
BRDA:2008,e0,9,0
BRDA:2008,0,10,39
BRDA:2008,0,11,0
BRDA:2008,0,12,39
BRDA:2008,0,13,0
BRDA:2008,0,14,39
BRDA:2008,0,15,0
BRDA:2008,0,16,39
BRDA:2008,0,17,0
BRDA:2008,0,18,0
BRDA:2008,0,19,0
BRDA:2008,0,20,0
BRDA:2008,0,21,0
BRDA:2010,0,0,39
BRDA:2010,e0,1,0
BRDA:2012,0,0,39
BRDA:2012,e0,1,0
BRDA:2012,0,2,39
BRDA:2012,e0,3,0
BRDA:2012,0,4,39
BRDA:2012,e0,5,0
BRDA:2012,0,6,39
BRDA:2012,0,7,0
BRDA:2014,0,0,39
BRDA:2014,e0,1,0
BRDA:2014,0,2,39
BRDA:2014,e0,3,0
BRDA:2014,0,4,39
BRDA:2014,e0,5,0
BRDA:2017,0,0,39
BRDA:2017,e0,1,0
BRDA:2018,0,0,39
BRDA:2018,e0,1,0
BRDA:2021,0,0,39
BRDA:2021,e0,1,0
BRDA:2022,0,0,39
BRDA:2022,e0,1,0
BRDA:2025,0,0,431
BRDA:2025,e0,1,0
BRDA:2025,0,2,431
BRDA:2025,e0,3,0
BRDA:2025,0,4,431
BRDA:2025,e0,5,0
BRDA:2025,0,6,95
BRDA:2025,0,7,336
BRDA:2027,0,0,95
BRDA:2027,e0,1,0
BRDA:2027,0,2,95
BRDA:2027,e0,3,0
BRDA:2027,0,4,4
BRDA:2027,0,5,91
BRDA:2027,0,6,95
BRDA:2027,e0,7,0
BRDA:2027,0,8,95
BRDA:2027,0,9,0
BRDA:2027,0,10,0
BRDA:2027,0,11,0
BRDA:2027,0,12,0
BRDA:2027,0,13,0
BRDA:2028,0,0,4
BRDA:2028,e0,1,0
BRDA:2028,0,2,4
BRDA:2028,e0,3,0
BRDA:2028,0,4,4
BRDA:2028,e0,5,0
BRDA:2028,0,6,2
BRDA:2028,0,7,2
BRDA:2028,0,8,4
BRDA:2028,0,9,91
BRDA:2028,0,10,4
BRDA:2028,0,11,91
BRDA:2028,0,12,95
BRDA:2028,0,13,0
BRDA:2028,0,14,0
BRDA:2028,0,15,0
BRDA:2028,0,16,0
BRDA:2028,0,17,0
BRDA:2031,0,0,95
BRDA:2031,e0,1,0
BRDA:2031,0,2,95
BRDA:2031,e0,3,0
BRDA:2032,0,0,95
BRDA:2032,e0,1,0
BRDA:2032,0,2,95
BRDA:2032,e0,3,0
BRDA:2033,0,0,95
BRDA:2033,e0,1,0
BRDA:2033,0,2,95
BRDA:2033,e0,3,0
BRDA:2034,0,0,95
BRDA:2034,e0,1,0
BRDA:2034,0,2,95
BRDA:2034,e0,3,0
BRDA:2035,0,0,95
BRDA:2035,e0,1,0
BRDA:2035,0,2,95
BRDA:2035,e0,3,0
BRDA:2036,0,0,95
BRDA:2036,e0,1,0
BRDA:2036,0,2,95
BRDA:2036,e0,3,0
BRDA:2037,0,0,95
BRDA:2037,e0,1,0
BRDA:2037,0,2,95
BRDA:2037,e0,3,0
BRDA:2038,0,0,95
BRDA:2038,e0,1,0
BRDA:2038,0,2,95
BRDA:2038,e0,3,0
BRDA:2039,0,0,95
BRDA:2039,e0,1,0
BRDA:2039,0,2,95
BRDA:2039,e0,3,0
BRDA:2040,0,0,95
BRDA:2040,e0,1,0
BRDA:2040,0,2,95
BRDA:2040,e0,3,0
BRDA:2041,0,0,95
BRDA:2041,e0,1,0
BRDA:2041,0,2,95
BRDA:2041,e0,3,0
BRDA:2042,0,0,95
BRDA:2042,e0,1,0
BRDA:2042,0,2,95
BRDA:2042,e0,3,0
BRDA:2043,0,0,95
BRDA:2043,e0,1,0
BRDA:2043,0,2,95
BRDA:2043,e0,3,0
BRDA:2044,0,0,95
BRDA:2044,e0,1,0
BRDA:2044,0,2,95
BRDA:2044,e0,3,0
BRDA:2045,0,0,95
BRDA:2045,e0,1,0
BRDA:2045,0,2,95
BRDA:2045,e0,3,0
BRDA:2046,0,0,95
BRDA:2046,e0,1,0
BRDA:2046,0,2,95
BRDA:2046,e0,3,0
BRDA:2047,0,0,95
BRDA:2047,e0,1,0
BRDA:2047,0,2,95
BRDA:2047,e0,3,0
BRDA:2048,0,0,95
BRDA:2048,e0,1,0
BRDA:2048,0,2,95
BRDA:2048,e0,3,0
BRDA:2050,0,0,336
BRDA:2050,e0,1,0
BRDA:2050,0,2,336
BRDA:2050,e0,3,0
BRDA:2050,0,4,336
BRDA:2050,e0,5,0
BRDA:2050,0,6,14
BRDA:2050,0,7,322
BRDA:2052,0,0,14
BRDA:2052,e0,1,0
BRDA:2054,0,0,322
BRDA:2054,e0,1,0
BRDA:2054,0,2,322
BRDA:2054,e0,3,0
BRDA:2054,0,4,322
BRDA:2054,e0,5,0
BRDA:2054,0,6,83
BRDA:2054,0,7,239
BRDA:2056,0,0,166
BRDA:2056,e0,1,0
BRDA:2056,0,2,166
BRDA:2056,e0,3,0
BRDA:2056,0,4,166
BRDA:2056,e0,5,0
BRDA:2056,0,6,166
BRDA:2056,e0,7,0
BRDA:2056,0,8,83
BRDA:2056,0,9,83
BRDA:2058,0,0,83
BRDA:2058,e0,1,0
BRDA:2058,0,2,83
BRDA:2058,e0,3,0
BRDA:2058,0,4,83
BRDA:2058,e0,5,0
BRDA:2058,0,6,83
BRDA:2058,e0,7,0
BRDA:2059,0,0,83
BRDA:2059,e0,1,0
BRDA:2059,0,2,83
BRDA:2059,e0,3,0
BRDA:2064,0,0,83
BRDA:2064,e0,1,0
BRDA:2064,0,2,83
BRDA:2064,e0,3,0
BRDA:2064,0,4,79
BRDA:2064,0,5,4
BRDA:2066,0,0,79
BRDA:2066,e0,1,0
BRDA:2066,0,2,79
BRDA:2066,e0,3,0
BRDA:2069,0,0,83
BRDA:2069,e0,1,0
BRDA:2069,0,2,83
BRDA:2069,e0,3,0
BRDA:2069,0,4,79
BRDA:2069,0,5,4
BRDA:2071,0,0,79
BRDA:2071,e0,1,0
BRDA:2071,0,2,79
BRDA:2071,e0,3,0
BRDA:2074,0,0,83
BRDA:2074,e0,1,0
BRDA:2074,0,2,83
BRDA:2074,e0,3,0
BRDA:2074,0,4,79
BRDA:2074,0,5,4
BRDA:2076,0,0,79
BRDA:2076,e0,1,0
BRDA:2076,0,2,79
BRDA:2076,e0,3,0
BRDA:2079,0,0,83
BRDA:2079,e0,1,0
BRDA:2079,0,2,83
BRDA:2079,e0,3,0
BRDA:2079,0,4,79
BRDA:2079,0,5,4
BRDA:2081,0,0,79
BRDA:2081,e0,1,0
BRDA:2081,0,2,79
BRDA:2081,e0,3,0
BRDA:2084,0,0,83
BRDA:2084,e0,1,0
BRDA:2084,0,2,83
BRDA:2084,e0,3,0
BRDA:2084,0,4,58
BRDA:2084,0,5,25
BRDA:2086,0,0,58
BRDA:2086,e0,1,0
BRDA:2086,0,2,58
BRDA:2086,e0,3,0
BRDA:2089,0,0,83
BRDA:2089,e0,1,0
BRDA:2089,0,2,83
BRDA:2089,e0,3,0
BRDA:2089,0,4,16
BRDA:2089,0,5,67
BRDA:2091,0,0,16
BRDA:2091,e0,1,0
BRDA:2091,0,2,16
BRDA:2091,e0,3,0
BRDA:2092,0,0,16
BRDA:2092,e0,1,0
BRDA:2095,0,0,83
BRDA:2095,e0,1,0
BRDA:2097,0,0,83
BRDA:2097,e0,1,0
BRDA:2098,0,0,83
BRDA:2098,e0,1,0
BRDA:2098,0,2,83
BRDA:2098,e0,3,0
BRDA:2098,0,4,83
BRDA:2098,e0,5,0
BRDA:2098,0,6,83
BRDA:2098,e0,7,0
BRDA:2101,0,0,239
BRDA:2101,e0,1,0
BRDA:2101,0,2,239
BRDA:2101,e0,3,0
BRDA:2101,0,4,239
BRDA:2101,e0,5,0
BRDA:2101,0,6,95
BRDA:2101,0,7,144
BRDA:2105,0,0,217
BRDA:2105,e0,1,0
BRDA:2105,0,2,217
BRDA:2105,e0,3,0
BRDA:2105,0,4,217
BRDA:2105,e0,5,0
BRDA:2105,0,6,217
BRDA:2105,e0,7,0
BRDA:2105,0,8,122
BRDA:2105,0,9,95
BRDA:2107,0,0,122
BRDA:2107,e0,1,0
BRDA:2107,0,2,122
BRDA:2107,e0,3,0
BRDA:2107,0,4,122
BRDA:2107,e0,5,0
BRDA:2107,0,6,122
BRDA:2107,e0,7,0
BRDA:2109,0,0,122
BRDA:2109,e0,1,0
BRDA:2109,0,2,122
BRDA:2109,e0,3,0
BRDA:2109,0,4,122
BRDA:2109,e0,5,0
BRDA:2111,0,0,122
BRDA:2111,e0,1,0
BRDA:2112,0,0,122
BRDA:2112,e0,1,0
BRDA:2112,0,2,122
BRDA:2112,e0,3,0
BRDA:2112,0,4,122
BRDA:2112,e0,5,0
BRDA:2113,0,0,122
BRDA:2113,e0,1,0
BRDA:2113,0,2,122
BRDA:2113,e0,3,0
BRDA:2113,0,4,122
BRDA:2113,e0,5,0
BRDA:2113,0,6,122
BRDA:2113,e0,7,0
BRDA:2113,0,8,122
BRDA:2113,e0,9,0
BRDA:2113,0,10,122
BRDA:2113,e0,11,0
BRDA:2115,0,0,122
BRDA:2115,e0,1,0
BRDA:2115,0,2,122
BRDA:2115,e0,3,0
BRDA:2115,0,4,122
BRDA:2115,e0,5,0
BRDA:2115,0,6,122
BRDA:2115,e0,7,0
BRDA:2116,0,0,122
BRDA:2116,e0,1,0
BRDA:2118,0,0,122
BRDA:2118,e0,1,0
BRDA:2118,0,2,122
BRDA:2118,e0,3,0
BRDA:2118,0,4,122
BRDA:2118,e0,5,0
BRDA:2118,0,6,122
BRDA:2118,e0,7,0
BRDA:2121,0,0,144
BRDA:2121,e0,1,0
BRDA:2121,0,2,144
BRDA:2121,e0,3,0
BRDA:2121,0,4,144
BRDA:2121,e0,5,0
BRDA:2121,0,6,1
BRDA:2121,0,7,143
BRDA:2123,0,0,1
BRDA:2123,e0,1,0
BRDA:2125,0,0,143
BRDA:2125,e0,1,0
BRDA:2125,0,2,143
BRDA:2125,e0,3,0
BRDA:2125,0,4,143
BRDA:2125,e0,5,0
BRDA:2125,0,6,1
BRDA:2125,0,7,142
BRDA:2127,0,0,1
BRDA:2127,e0,1,0
BRDA:2129,0,0,142
BRDA:2129,e0,1,0
BRDA:2129,0,2,142
BRDA:2129,e0,3,0
BRDA:2129,0,4,142
BRDA:2129,e0,5,0
BRDA:2129,0,6,6
BRDA:2129,0,7,136
BRDA:2131,0,0,13
BRDA:2131,e0,1,0
BRDA:2131,0,2,13
BRDA:2131,e0,3,0
BRDA:2131,0,4,13
BRDA:2131,e0,5,0
BRDA:2131,0,6,13
BRDA:2131,e0,7,0
BRDA:2131,0,8,7
BRDA:2131,0,9,6
BRDA:2133,0,0,7
BRDA:2133,e0,1,0
BRDA:2133,0,2,7
BRDA:2133,e0,3,0
BRDA:2133,0,4,7
BRDA:2133,e0,5,0
BRDA:2133,0,6,7
BRDA:2133,e0,7,0
BRDA:2136,0,0,7
BRDA:2136,e0,1,0
BRDA:2136,0,2,7
BRDA:2136,e0,3,0
BRDA:2136,0,4,7
BRDA:2136,e0,5,0
BRDA:2137,0,0,7
BRDA:2137,e0,1,0
BRDA:2137,0,2,7
BRDA:2137,e0,3,0
BRDA:2137,0,4,6
BRDA:2137,0,5,1
BRDA:2139,0,0,6
BRDA:2139,e0,1,0
BRDA:2139,0,2,6
BRDA:2139,e0,3,0
BRDA:2141,0,0,7
BRDA:2141,e0,1,0
BRDA:2141,0,2,7
BRDA:2141,e0,3,0
BRDA:2141,0,4,1
BRDA:2141,0,5,6
BRDA:2143,0,0,1
BRDA:2143,e0,1,0
BRDA:2143,0,2,1
BRDA:2143,e0,3,0
BRDA:2143,0,4,1
BRDA:2143,e0,5,0
BRDA:2145,0,0,7
BRDA:2145,e0,1,0
BRDA:2146,0,0,7
BRDA:2146,e0,1,0
BRDA:2147,0,0,7
BRDA:2147,e0,1,0
BRDA:2149,0,0,7
BRDA:2149,e0,1,0
BRDA:2149,0,2,7
BRDA:2149,e0,3,0
BRDA:2149,0,4,7
BRDA:2149,e0,5,0
BRDA:2149,0,6,7
BRDA:2149,e0,7,0
BRDA:2152,0,0,136
BRDA:2152,e0,1,0
BRDA:2152,0,2,136
BRDA:2152,e0,3,0
BRDA:2152,0,4,136
BRDA:2152,e0,5,0
BRDA:2152,0,6,81
BRDA:2152,0,7,55
BRDA:2155,0,0,81
BRDA:2155,e0,1,0
BRDA:2155,0,2,81
BRDA:2155,e0,3,0
BRDA:2155,0,4,69
BRDA:2155,0,5,12
BRDA:2157,0,0,69
BRDA:2157,e0,1,0
BRDA:2157,0,2,69
BRDA:2157,e0,3,0
BRDA:2159,0,0,81
BRDA:2159,e0,1,0
BRDA:2159,0,2,81
BRDA:2159,e0,3,0
BRDA:2159,0,4,45
BRDA:2159,0,5,36
BRDA:2161,0,0,45
BRDA:2161,e0,1,0
BRDA:2161,0,2,45
BRDA:2161,e0,3,0
BRDA:2161,0,4,45
BRDA:2161,e0,5,0
BRDA:2163,0,0,81
BRDA:2163,e0,1,0
BRDA:2164,0,0,81
BRDA:2164,e0,1,0
BRDA:2166,0,0,55
BRDA:2166,e0,1,0
BRDA:2166,0,2,55
BRDA:2166,e0,3,0
BRDA:2166,0,4,55
BRDA:2166,e0,5,0
BRDA:2166,0,6,0
BRDA:2166,0,7,55
BRDA:2168,0,0,-
BRDA:2168,e0,1,-
BRDA:2170,0,0,55
BRDA:2170,e0,1,0
BRDA:2170,0,2,55
BRDA:2170,e0,3,0
BRDA:2170,0,4,55
BRDA:2170,e0,5,0
BRDA:2170,0,6,0
BRDA:2170,0,7,55
BRDA:2172,0,0,-
BRDA:2172,e0,1,-
BRDA:2174,0,0,55
BRDA:2174,e0,1,0
BRDA:2174,0,2,55
BRDA:2174,e0,3,0
BRDA:2174,0,4,55
BRDA:2174,e0,5,0
BRDA:2174,0,6,0
BRDA:2174,0,7,55
BRDA:2176,0,0,-
BRDA:2176,e0,1,-
BRDA:2178,0,0,55
BRDA:2178,e0,1,0
BRDA:2178,0,2,55
BRDA:2178,e0,3,0
BRDA:2178,0,4,55
BRDA:2178,e0,5,0
BRDA:2178,0,6,0
BRDA:2178,0,7,55
BRDA:2180,0,0,-
BRDA:2180,e0,1,-
BRDA:2182,0,0,55
BRDA:2182,e0,1,0
BRDA:2182,0,2,55
BRDA:2182,e0,3,0
BRDA:2182,0,4,55
BRDA:2182,e0,5,0
BRDA:2182,0,6,0
BRDA:2182,0,7,55
BRDA:2184,0,0,-
BRDA:2184,e0,1,-
BRDA:2186,0,0,55
BRDA:2186,e0,1,0
BRDA:2186,0,2,55
BRDA:2186,e0,3,0
BRDA:2186,0,4,55
BRDA:2186,e0,5,0
BRDA:2186,0,6,0
BRDA:2186,0,7,55
BRDA:2188,0,0,-
BRDA:2188,e0,1,-
BRDA:2190,0,0,55
BRDA:2190,e0,1,0
BRDA:2190,0,2,55
BRDA:2190,e0,3,0
BRDA:2190,0,4,55
BRDA:2190,e0,5,0
BRDA:2190,0,6,0
BRDA:2190,0,7,55
BRDA:2192,0,0,-
BRDA:2192,e0,1,-
BRDA:2194,0,0,55
BRDA:2194,e0,1,0
BRDA:2194,0,2,55
BRDA:2194,e0,3,0
BRDA:2194,0,4,55
BRDA:2194,e0,5,0
BRDA:2194,0,6,0
BRDA:2194,0,7,55
BRDA:2196,0,0,-
BRDA:2196,e0,1,-
BRDA:2198,0,0,55
BRDA:2198,e0,1,0
BRDA:2198,0,2,55
BRDA:2198,e0,3,0
BRDA:2198,0,4,55
BRDA:2198,e0,5,0
BRDA:2198,0,6,44
BRDA:2198,0,7,11
BRDA:2200,0,0,90
BRDA:2200,e0,1,0
BRDA:2200,0,2,90
BRDA:2200,e0,3,0
BRDA:2200,0,4,90
BRDA:2200,e0,5,0
BRDA:2200,0,6,90
BRDA:2200,e0,7,0
BRDA:2200,0,8,46
BRDA:2200,0,9,44
BRDA:2202,0,0,46
BRDA:2202,e0,1,0
BRDA:2204,0,0,46
BRDA:2204,e0,1,0
BRDA:2204,0,2,46
BRDA:2204,e0,3,0
BRDA:2204,0,4,46
BRDA:2204,0,5,0
BRDA:2204,0,6,46
BRDA:2204,0,7,0
BRDA:2204,0,8,46
BRDA:2204,0,9,0
BRDA:2204,0,10,21
BRDA:2204,0,11,25
BRDA:2204,0,12,0
BRDA:2204,0,13,0
BRDA:2204,0,14,0
BRDA:2204,0,15,0
BRDA:2204,0,16,0
BRDA:2204,0,17,0
BRDA:2204,0,18,0
BRDA:2204,0,19,0
BRDA:2205,0,0,46
BRDA:2205,e0,1,0
BRDA:2205,0,2,46
BRDA:2205,e0,3,0
BRDA:2205,0,4,46
BRDA:2205,0,5,0
BRDA:2205,0,6,46
BRDA:2205,0,7,0
BRDA:2205,0,8,46
BRDA:2205,0,9,0
BRDA:2205,0,10,0
BRDA:2205,0,11,0
BRDA:2205,0,12,0
BRDA:2205,0,13,0
BRDA:2206,0,0,46
BRDA:2206,e0,1,0
BRDA:2206,0,2,46
BRDA:2206,0,3,0
BRDA:2206,0,4,46
BRDA:2206,e0,5,0
BRDA:2206,0,6,46
BRDA:2206,e0,7,0
BRDA:2206,0,8,46
BRDA:2206,e0,9,0
BRDA:2206,0,10,21
BRDA:2206,0,11,25
BRDA:2206,0,12,46
BRDA:2206,0,13,0
BRDA:2206,0,14,46
BRDA:2206,0,15,0
BRDA:2206,0,16,46
BRDA:2206,0,17,0
BRDA:2206,0,18,0
BRDA:2206,0,19,0
BRDA:2206,0,20,0
BRDA:2206,0,21,0
BRDA:2208,0,0,21
BRDA:2208,e0,1,0
BRDA:2210,0,0,21
BRDA:2210,e0,1,0
BRDA:2210,0,2,21
BRDA:2210,e0,3,0
BRDA:2210,0,4,21
BRDA:2210,e0,5,0
BRDA:2210,0,6,21
BRDA:2210,0,7,0
BRDA:2212,0,0,21
BRDA:2212,e0,1,0
BRDA:2212,0,2,21
BRDA:2212,e0,3,0
BRDA:2215,0,0,21
BRDA:2215,e0,1,0
BRDA:2216,0,0,21
BRDA:2216,e0,1,0
BRDA:2219,0,0,46
BRDA:2219,e0,1,0
BRDA:2220,0,0,46
BRDA:2220,e0,1,0
BRDA:2225,0,0,11
BRDA:2225,e0,1,0
BRDA:2228,0,0,547
BRDA:2228,e0,1,0
BRDA:2231,0,0,95
BRDA:2231,e0,1,0
BRDA:2231,0,2,95
BRDA:2231,e0,3,0
BRDA:2231,0,4,95
BRDA:2231,e0,5,0
BRDA:2231,0,6,95
BRDA:2231,e0,7,0
BRDA:2233,0,0,95
BRDA:2233,e0,1,0
BRDA:2233,0,2,95
BRDA:2233,e0,3,0
BRDA:2233,0,4,95
BRDA:2233,e0,5,0
BRDA:2233,0,6,95
BRDA:2233,e0,7,0
BRDA:2234,0,0,95
BRDA:2234,e0,1,0
BRDA:2234,0,2,95
BRDA:2234,e0,3,0
BRDA:2234,0,4,95
BRDA:2234,e0,5,0
BRDA:2243,0,0,380
BRDA:2243,0,1,95
BRDA:2245,0,0,380
BRDA:2245,e0,1,0
BRDA:2245,0,2,380
BRDA:2245,e0,3,0
BRDA:2245,0,4,227
BRDA:2245,0,5,153
BRDA:2247,0,0,227
BRDA:2247,e0,1,0
BRDA:2247,0,2,227
BRDA:2247,e0,3,0
BRDA:2247,0,4,454
BRDA:2247,0,5,227
BRDA:2247,0,6,0
BRDA:2247,0,7,0
BRDA:2252,0,0,95
BRDA:2252,e0,1,0
BRDA:2252,0,2,95
BRDA:2252,e0,3,0
BRDA:2252,0,4,122
BRDA:2252,e0,5,0
BRDA:2252,0,6,122
BRDA:2252,0,7,95
BRDA:2254,0,0,122
BRDA:2254,e0,1,0
BRDA:2258,0,0,122
BRDA:2258,e0,1,0
BRDA:2260,0,0,122
BRDA:2260,e0,1,0
BRDA:2261,0,0,122
BRDA:2261,e0,1,0
BRDA:2265,0,0,39
BRDA:2265,0,1,102
BRDA:2265,0,2,39
BRDA:2265,e0,3,0
BRDA:2265,0,4,19
BRDA:2265,0,5,20
BRDA:2265,0,6,19
BRDA:2265,0,7,122
BRDA:2270,0,0,122
BRDA:2270,e0,1,0
BRDA:2272,0,0,119
BRDA:2272,0,1,3
BRDA:2274,0,0,119
BRDA:2274,e0,1,0
BRDA:2274,0,2,119
BRDA:2274,e0,3,0
BRDA:2274,0,4,238
BRDA:2274,0,5,119
BRDA:2274,0,6,0
BRDA:2274,0,7,0
BRDA:2277,0,0,227
BRDA:2277,e0,1,0
BRDA:2277,0,2,227
BRDA:2277,e0,3,0
BRDA:2277,0,4,227
BRDA:2277,e0,5,0
BRDA:2277,0,6,119
BRDA:2277,e0,7,0
BRDA:2277,0,8,119
BRDA:2277,e0,9,0
BRDA:2277,0,10,0
BRDA:2277,0,11,0
BRDA:2277,0,12,0
BRDA:2277,0,13,0
BRDA:2277,0,14,0
BRDA:2277,0,15,0
BRDA:2277,0,16,0
BRDA:2277,0,17,0
BRDA:2315,0,0,69
BRDA:2315,e0,1,0
BRDA:2315,0,2,69
BRDA:2315,e0,3,0
BRDA:2315,0,4,69
BRDA:2315,e0,5,0
BRDA:2315,0,6,69
BRDA:2315,e0,7,0
BRDA:2316,0,0,69
BRDA:2316,e0,1,0
BRDA:2316,0,2,69
BRDA:2316,e0,3,0
BRDA:2318,0,0,796
BRDA:2318,e0,1,0
BRDA:2318,0,2,796
BRDA:2318,e0,3,0
BRDA:2318,0,4,796
BRDA:2318,e0,5,0
BRDA:2318,0,6,796
BRDA:2318,e0,7,0
BRDA:2318,0,8,727
BRDA:2318,0,9,69
BRDA:2320,0,0,727
BRDA:2320,e0,1,0
BRDA:2320,0,2,727
BRDA:2320,e0,3,0
BRDA:2320,0,4,727
BRDA:2320,e0,5,0
BRDA:2320,0,6,727
BRDA:2320,e0,7,0
BRDA:2321,0,0,727
BRDA:2321,e0,1,0
BRDA:2321,0,2,727
BRDA:2321,e0,3,0
BRDA:2321,0,4,727
BRDA:2321,e0,5,0
BRDA:2321,0,6,727
BRDA:2321,e0,7,0
BRDA:2322,0,0,727
BRDA:2322,e0,1,0
BRDA:2323,0,0,727
BRDA:2323,e0,1,0
BRDA:2323,0,2,727
BRDA:2323,e0,3,0
BRDA:2323,0,4,727
BRDA:2323,e0,5,0
BRDA:2323,0,6,727
BRDA:2323,e0,7,0
BRDA:2326,0,0,69
BRDA:2326,e0,1,0
BRDA:2326,0,2,69
BRDA:2326,e0,3,0
BRDA:2326,0,4,69
BRDA:2326,e0,5,0
BRDA:2326,0,6,69
BRDA:2326,e0,7,0
BRDA:2354,0,0,85
BRDA:2354,e0,1,0
BRDA:2355,0,0,85
BRDA:2355,e0,1,0
BRDA:2355,0,2,85
BRDA:2355,e0,3,0
BRDA:2357,0,0,85
BRDA:2357,e0,1,0
BRDA:2357,0,2,85
BRDA:2357,e0,3,0
BRDA:2357,0,4,85
BRDA:2357,e0,5,0
BRDA:2357,0,6,85
BRDA:2357,e0,7,0
BRDA:2358,0,0,85
BRDA:2358,e0,1,0
BRDA:2358,0,2,85
BRDA:2358,e0,3,0
BRDA:2358,0,4,85
BRDA:2358,e0,5,0
BRDA:2358,0,6,85
BRDA:2358,e0,7,0
BRDA:2358,0,8,85
BRDA:2358,e0,9,0
BRDA:2358,0,10,85
BRDA:2358,0,11,85
BRDA:2358,0,12,0
BRDA:2358,0,13,0
BRDA:2364,0,0,806
BRDA:2364,e0,1,0
BRDA:2364,0,2,806
BRDA:2364,e0,3,0
BRDA:2364,0,4,806
BRDA:2364,e0,5,0
BRDA:2364,0,6,806
BRDA:2364,e0,7,0
BRDA:2364,0,8,721
BRDA:2364,0,9,85
BRDA:2366,0,0,721
BRDA:2366,e0,1,0
BRDA:2368,0,0,721
BRDA:2368,e0,1,0
BRDA:2368,0,2,721
BRDA:2368,e0,3,0
BRDA:2368,0,4,721
BRDA:2368,e0,5,0
BRDA:2368,0,6,84
BRDA:2368,0,7,637
BRDA:2372,0,0,84
BRDA:2372,e0,1,0
BRDA:2372,0,2,84
BRDA:2372,e0,3,0
BRDA:2372,0,4,84
BRDA:2372,0,5,0
BRDA:2374,0,0,84
BRDA:2374,e0,1,0
BRDA:2374,0,2,84
BRDA:2374,e0,3,0
BRDA:2375,0,0,84
BRDA:2375,e0,1,0
BRDA:2375,0,2,84
BRDA:2375,e0,3,0
BRDA:2375,0,4,84
BRDA:2375,e0,5,0
BRDA:2378,0,0,266
BRDA:2378,e0,1,0
BRDA:2378,0,2,266
BRDA:2378,e0,3,0
BRDA:2378,0,4,266
BRDA:2378,e0,5,0
BRDA:2378,0,6,266
BRDA:2378,e0,7,0
BRDA:2378,0,8,182
BRDA:2378,0,9,84
BRDA:2380,0,0,182
BRDA:2380,e0,1,0
BRDA:2380,0,2,182
BRDA:2380,e0,3,0
BRDA:2383,0,0,182
BRDA:2383,e0,1,0
BRDA:2383,0,2,182
BRDA:2383,e0,3,0
BRDA:2383,0,4,182
BRDA:2383,e0,5,0
BRDA:2383,0,6,182
BRDA:2383,e0,7,0
BRDA:2387,0,0,182
BRDA:2387,e0,1,0
BRDA:2387,0,2,182
BRDA:2387,e0,3,0
BRDA:2387,0,4,11
BRDA:2387,0,5,171
BRDA:2387,0,6,11
BRDA:2387,e0,7,0
BRDA:2387,0,8,11
BRDA:2387,e0,9,0
BRDA:2387,0,10,11
BRDA:2387,e0,11,0
BRDA:2387,0,12,0
BRDA:2387,0,13,11
BRDA:2387,0,14,11
BRDA:2387,0,15,171
BRDA:2387,0,16,11
BRDA:2387,0,17,171
BRDA:2387,0,18,182
BRDA:2387,0,19,0
BRDA:2387,0,20,182
BRDA:2387,0,21,0
BRDA:2387,0,22,0
BRDA:2387,0,23,182
BRDA:2387,0,24,0
BRDA:2387,0,25,0
BRDA:2387,0,26,0
BRDA:2387,0,27,0
BRDA:2387,0,28,0
BRDA:2387,0,29,0
BRDA:2387,0,30,0
BRDA:2387,0,31,0
BRDA:2392,0,0,182
BRDA:2392,e0,1,0
BRDA:2392,0,2,182
BRDA:2392,e0,3,0
BRDA:2392,0,4,11
BRDA:2392,0,5,171
BRDA:2392,0,6,11
BRDA:2392,e0,7,0
BRDA:2392,0,8,11
BRDA:2392,e0,9,0
BRDA:2392,0,10,11
BRDA:2392,e0,11,0
BRDA:2392,0,12,0
BRDA:2392,0,13,11
BRDA:2392,0,14,11
BRDA:2392,0,15,171
BRDA:2392,0,16,11
BRDA:2392,0,17,171
BRDA:2392,0,18,182
BRDA:2392,0,19,0
BRDA:2392,0,20,182
BRDA:2392,0,21,0
BRDA:2392,0,22,0
BRDA:2392,0,23,182
BRDA:2392,0,24,0
BRDA:2392,0,25,0
BRDA:2392,0,26,0
BRDA:2392,0,27,0
BRDA:2392,0,28,0
BRDA:2392,0,29,0
BRDA:2392,0,30,0
BRDA:2392,0,31,0
BRDA:2394,0,0,-
BRDA:2394,0,1,-
BRDA:2397,0,0,0
BRDA:2397,0,1,182
BRDA:2399,0,0,-
BRDA:2399,e0,1,-
BRDA:2402,0,0,1083
BRDA:2402,e0,1,0
BRDA:2402,0,2,1083
BRDA:2402,e0,3,0
BRDA:2402,0,4,1083
BRDA:2402,e0,5,0
BRDA:2402,0,6,1083
BRDA:2402,e0,7,0
BRDA:2402,0,8,901
BRDA:2402,0,9,182
BRDA:2404,0,0,901
BRDA:2404,e0,1,0
BRDA:2408,0,0,901
BRDA:2408,e0,1,0
BRDA:2408,0,2,901
BRDA:2408,e0,3,0
BRDA:2408,0,4,259
BRDA:2408,0,5,642
BRDA:2410,0,0,259
BRDA:2410,e0,1,0
BRDA:2410,0,2,259
BRDA:2410,e0,3,0
BRDA:2410,0,4,259
BRDA:2410,e0,5,0
BRDA:2413,0,0,901
BRDA:2413,e0,1,0
BRDA:2413,0,2,258
BRDA:2413,0,3,643
BRDA:2415,0,0,258
BRDA:2415,e0,1,0
BRDA:2415,0,2,258
BRDA:2415,e0,3,0
BRDA:2415,0,4,258
BRDA:2415,e0,5,0
BRDA:2415,0,6,258
BRDA:2415,e0,7,0
BRDA:2416,0,0,258
BRDA:2416,e0,1,0
BRDA:2416,0,2,258
BRDA:2416,e0,3,0
BRDA:2417,0,0,258
BRDA:2417,e0,1,0
BRDA:2417,0,2,258
BRDA:2417,e0,3,0
BRDA:2417,0,4,258
BRDA:2417,e0,5,0
BRDA:2417,0,6,258
BRDA:2417,e0,7,0
BRDA:2420,0,0,901
BRDA:2420,e0,1,0
BRDA:2422,0,0,901
BRDA:2422,e0,1,0
BRDA:2422,0,2,901
BRDA:2422,e0,3,0
BRDA:2423,0,0,901
BRDA:2423,e0,1,0
BRDA:2426,0,0,182
BRDA:2426,e0,1,0
BRDA:2426,0,2,182
BRDA:2426,e0,3,0
BRDA:2426,0,4,182
BRDA:2426,e0,5,0
BRDA:2426,0,6,182
BRDA:2426,e0,7,0
BRDA:2436,0,0,637
BRDA:2436,e0,1,0
BRDA:2436,0,2,637
BRDA:2436,e0,3,0
BRDA:2436,0,4,637
BRDA:2436,e0,5,0
BRDA:2436,0,6,85
BRDA:2436,0,7,552
BRDA:2440,0,0,85
BRDA:2440,e0,1,0
BRDA:2440,0,2,85
BRDA:2440,e0,3,0
BRDA:2440,0,4,85
BRDA:2440,0,5,0
BRDA:2442,0,0,85
BRDA:2442,e0,1,0
BRDA:2442,0,2,85
BRDA:2442,e0,3,0
BRDA:2443,0,0,85
BRDA:2443,e0,1,0
BRDA:2443,0,2,85
BRDA:2443,e0,3,0
BRDA:2443,0,4,85
BRDA:2443,e0,5,0
BRDA:2446,0,0,539
BRDA:2446,e0,1,0
BRDA:2446,0,2,539
BRDA:2446,e0,3,0
BRDA:2446,0,4,539
BRDA:2446,e0,5,0
BRDA:2446,0,6,539
BRDA:2446,e0,7,0
BRDA:2446,0,8,454
BRDA:2446,0,9,85
BRDA:2448,0,0,454
BRDA:2448,e0,1,0
BRDA:2448,0,2,454
BRDA:2448,e0,3,0
BRDA:2451,0,0,454
BRDA:2451,e0,1,0
BRDA:2451,0,2,454
BRDA:2451,e0,3,0
BRDA:2451,0,4,454
BRDA:2451,e0,5,0
BRDA:2451,0,6,454
BRDA:2451,e0,7,0
BRDA:2453,0,0,454
BRDA:2453,e0,1,0
BRDA:2453,0,2,454
BRDA:2453,e0,3,0
BRDA:2453,0,4,454
BRDA:2453,e0,5,0
BRDA:2453,0,6,454
BRDA:2453,e0,7,0
BRDA:2453,0,8,453
BRDA:2453,0,9,1
BRDA:2456,0,0,453
BRDA:2456,e0,1,0
BRDA:2458,0,0,453
BRDA:2458,e0,1,0
BRDA:2458,0,2,453
BRDA:2458,e0,3,0
BRDA:2458,0,4,453
BRDA:2458,e0,5,0
BRDA:2458,0,6,453
BRDA:2458,0,7,0
BRDA:2460,0,0,453
BRDA:2460,e0,1,0
BRDA:2462,0,0,453
BRDA:2462,e0,1,0
BRDA:2462,0,2,453
BRDA:2462,e0,3,0
BRDA:2462,0,4,450
BRDA:2462,0,5,3
BRDA:2464,0,0,450
BRDA:2464,e0,1,0
BRDA:2464,0,2,450
BRDA:2464,e0,3,0
BRDA:2464,0,4,450
BRDA:2464,e0,5,0
BRDA:2466,0,0,940
BRDA:2466,e0,1,0
BRDA:2466,0,2,940
BRDA:2466,e0,3,0
BRDA:2466,0,4,940
BRDA:2466,e0,5,0
BRDA:2466,0,6,940
BRDA:2466,e0,7,0
BRDA:2466,0,8,490
BRDA:2466,0,9,450
BRDA:2468,0,0,490
BRDA:2468,e0,1,0
BRDA:2470,0,0,490
BRDA:2470,e0,1,0
BRDA:2470,0,2,490
BRDA:2470,e0,3,0
BRDA:2470,0,4,490
BRDA:2470,e0,5,0
BRDA:2470,0,6,285
BRDA:2470,0,7,205
BRDA:2472,0,0,285
BRDA:2472,e0,1,0
BRDA:2472,0,2,285
BRDA:2472,e0,3,0
BRDA:2474,0,0,205
BRDA:2474,e0,1,0
BRDA:2474,0,2,205
BRDA:2474,e0,3,0
BRDA:2474,0,4,205
BRDA:2474,e0,5,0
BRDA:2474,0,6,205
BRDA:2474,0,7,0
BRDA:2476,0,0,205
BRDA:2476,e0,1,0
BRDA:2476,0,2,205
BRDA:2476,e0,3,0
BRDA:2480,0,0,-
BRDA:2480,e0,1,-
BRDA:2483,0,0,490
BRDA:2483,e0,1,0
BRDA:2487,0,0,453
BRDA:2487,e0,1,0
BRDA:2489,0,0,-
BRDA:2489,e0,1,-
BRDA:2489,0,2,-
BRDA:2489,e0,3,-
BRDA:2489,0,4,-
BRDA:2489,e0,5,-
BRDA:2489,0,6,-
BRDA:2489,0,7,-
BRDA:2491,0,0,-
BRDA:2491,e0,1,-
BRDA:2493,0,0,-
BRDA:2493,e0,1,-
BRDA:2493,0,2,-
BRDA:2493,e0,3,-
BRDA:2493,0,4,-
BRDA:2493,0,5,-
BRDA:2495,0,0,-
BRDA:2495,e0,1,-
BRDA:2495,0,2,-
BRDA:2495,e0,3,-
BRDA:2495,0,4,-
BRDA:2495,e0,5,-
BRDA:2499,0,0,-
BRDA:2499,e0,1,-
BRDA:2502,0,0,-
BRDA:2502,e0,1,-
BRDA:2502,0,2,-
BRDA:2502,e0,3,-
BRDA:2502,0,4,-
BRDA:2502,e0,5,-
BRDA:2502,0,6,-
BRDA:2502,e0,7,-
BRDA:2502,0,8,-
BRDA:2502,0,9,-
BRDA:2504,0,0,-
BRDA:2504,e0,1,-
BRDA:2504,0,2,-
BRDA:2504,e0,3,-
BRDA:2504,0,4,-
BRDA:2504,e0,5,-
BRDA:2504,0,6,-
BRDA:2504,e0,7,-
BRDA:2505,0,0,-
BRDA:2505,e0,1,-
BRDA:2505,0,2,-
BRDA:2505,e0,3,-
BRDA:2505,0,4,-
BRDA:2505,e0,5,-
BRDA:2506,0,0,-
BRDA:2506,e0,1,-
BRDA:2506,0,2,-
BRDA:2506,e0,3,-
BRDA:2506,0,4,-
BRDA:2506,e0,5,-
BRDA:2506,0,6,-
BRDA:2506,e0,7,-
BRDA:2507,0,0,-
BRDA:2507,e0,1,-
BRDA:2508,0,0,-
BRDA:2508,e0,1,-
BRDA:2508,0,2,-
BRDA:2508,e0,3,-
BRDA:2508,0,4,-
BRDA:2508,e0,5,-
BRDA:2508,0,6,-
BRDA:2508,e0,7,-
BRDA:2509,0,0,-
BRDA:2509,e0,1,-
BRDA:2509,0,2,-
BRDA:2509,e0,3,-
BRDA:2509,0,4,-
BRDA:2509,e0,5,-
BRDA:2509,0,6,-
BRDA:2509,e0,7,-
BRDA:2511,0,0,-
BRDA:2511,e0,1,-
BRDA:2514,0,0,-
BRDA:2514,e0,1,-
BRDA:2518,0,0,-
BRDA:2518,e0,1,-
BRDA:2521,0,0,453
BRDA:2521,e0,1,0
BRDA:2524,0,0,454
BRDA:2524,e0,1,0
BRDA:2524,0,2,454
BRDA:2524,e0,3,0
BRDA:2524,0,4,454
BRDA:2524,e0,5,0
BRDA:2524,0,6,454
BRDA:2524,e0,7,0
BRDA:2534,0,0,552
BRDA:2534,e0,1,0
BRDA:2534,0,2,552
BRDA:2534,e0,3,0
BRDA:2534,0,4,552
BRDA:2534,e0,5,0
BRDA:2534,0,6,84
BRDA:2534,0,7,468
BRDA:2538,0,0,84
BRDA:2538,e0,1,0
BRDA:2538,0,2,84
BRDA:2538,e0,3,0
BRDA:2538,0,4,84
BRDA:2538,0,5,0
BRDA:2540,0,0,84
BRDA:2540,e0,1,0
BRDA:2540,0,2,84
BRDA:2540,e0,3,0
BRDA:2541,0,0,84
BRDA:2541,e0,1,0
BRDA:2541,0,2,84
BRDA:2541,e0,3,0
BRDA:2541,0,4,84
BRDA:2541,e0,5,0
BRDA:2544,0,0,84
BRDA:2544,e0,1,0
BRDA:2544,0,2,84
BRDA:2544,e0,3,0
BRDA:2544,0,4,84
BRDA:2544,e0,5,0
BRDA:2544,0,6,84
BRDA:2544,e0,7,0
BRDA:2544,0,8,49
BRDA:2544,0,9,35
BRDA:2546,0,0,49
BRDA:2546,e0,1,0
BRDA:2549,0,0,595
BRDA:2549,e0,1,0
BRDA:2549,0,2,595
BRDA:2549,e0,3,0
BRDA:2549,0,4,595
BRDA:2549,e0,5,0
BRDA:2549,0,6,595
BRDA:2549,e0,7,0
BRDA:2549,0,8,511
BRDA:2549,0,9,84
BRDA:2551,0,0,511
BRDA:2551,e0,1,0
BRDA:2551,0,2,511
BRDA:2551,e0,3,0
BRDA:2554,0,0,511
BRDA:2554,e0,1,0
BRDA:2554,0,2,511
BRDA:2554,e0,3,0
BRDA:2554,0,4,511
BRDA:2554,e0,5,0
BRDA:2554,0,6,511
BRDA:2554,e0,7,0
BRDA:2556,0,0,3157
BRDA:2556,e0,1,0
BRDA:2556,0,2,3157
BRDA:2556,e0,3,0
BRDA:2556,0,4,3157
BRDA:2556,e0,5,0
BRDA:2556,0,6,3157
BRDA:2556,e0,7,0
BRDA:2556,0,8,2646
BRDA:2556,0,9,511
BRDA:2558,0,0,2646
BRDA:2558,e0,1,0
BRDA:2560,0,0,2646
BRDA:2560,e0,1,0
BRDA:2560,0,2,2646
BRDA:2560,e0,3,0
BRDA:2560,0,4,2646
BRDA:2560,e0,5,0
BRDA:2560,0,6,510
BRDA:2560,0,7,2136
BRDA:2562,0,0,510
BRDA:2562,e0,1,0
BRDA:2562,0,2,510
BRDA:2562,e0,3,0
BRDA:2562,0,4,510
BRDA:2562,e0,5,0
BRDA:2562,0,6,510
BRDA:2562,e0,7,0
BRDA:2564,0,0,2136
BRDA:2564,e0,1,0
BRDA:2564,0,2,2136
BRDA:2564,e0,3,0
BRDA:2564,0,4,2136
BRDA:2564,e0,5,0
BRDA:2564,0,6,511
BRDA:2564,0,7,1625
BRDA:2566,0,0,511
BRDA:2566,e0,1,0
BRDA:2566,0,2,511
BRDA:2566,e0,3,0
BRDA:2566,0,4,511
BRDA:2566,e0,5,0
BRDA:2568,0,0,1625
BRDA:2568,e0,1,0
BRDA:2568,0,2,1625
BRDA:2568,e0,3,0
BRDA:2568,0,4,1625
BRDA:2568,e0,5,0
BRDA:2568,0,6,453
BRDA:2568,0,7,1172
BRDA:2570,0,0,453
BRDA:2570,e0,1,0
BRDA:2570,0,2,453
BRDA:2570,e0,3,0
BRDA:2572,0,0,1172
BRDA:2572,e0,1,0
BRDA:2572,0,2,1172
BRDA:2572,e0,3,0
BRDA:2572,0,4,1172
BRDA:2572,e0,5,0
BRDA:2572,0,6,436
BRDA:2572,0,7,736
BRDA:2574,0,0,436
BRDA:2574,e0,1,0
BRDA:2574,0,2,436
BRDA:2574,e0,3,0
BRDA:2574,0,4,436
BRDA:2574,e0,5,0
BRDA:2576,0,0,736
BRDA:2576,e0,1,0
BRDA:2576,0,2,736
BRDA:2576,e0,3,0
BRDA:2576,0,4,736
BRDA:2576,e0,5,0
BRDA:2576,0,6,394
BRDA:2576,0,7,342
BRDA:2578,0,0,394
BRDA:2578,e0,1,0
BRDA:2578,0,2,394
BRDA:2578,e0,3,0
BRDA:2578,0,4,394
BRDA:2578,e0,5,0
BRDA:2580,0,0,342
BRDA:2580,e0,1,0
BRDA:2580,0,2,342
BRDA:2580,e0,3,0
BRDA:2580,0,4,342
BRDA:2580,e0,5,0
BRDA:2580,0,6,114
BRDA:2580,0,7,228
BRDA:2582,0,0,114
BRDA:2582,e0,1,0
BRDA:2582,0,2,114
BRDA:2582,e0,3,0
BRDA:2582,0,4,9
BRDA:2582,0,5,105
BRDA:2584,0,0,9
BRDA:2584,e0,1,0
BRDA:2584,0,2,9
BRDA:2584,e0,3,0
BRDA:2584,0,4,9
BRDA:2584,e0,5,0
BRDA:2584,0,6,9
BRDA:2584,e0,7,0
BRDA:2588,0,0,105
BRDA:2588,e0,1,0
BRDA:2591,0,0,228
BRDA:2591,e0,1,0
BRDA:2591,0,2,228
BRDA:2591,e0,3,0
BRDA:2591,0,4,228
BRDA:2591,e0,5,0
BRDA:2591,0,6,27
BRDA:2591,0,7,201
BRDA:2593,0,0,27
BRDA:2593,e0,1,0
BRDA:2593,0,2,27
BRDA:2593,e0,3,0
BRDA:2593,0,4,27
BRDA:2593,e0,5,0
BRDA:2595,0,0,27
BRDA:2595,e0,1,0
BRDA:2595,0,2,9
BRDA:2595,0,3,18
BRDA:2597,0,0,9
BRDA:2597,e0,1,0
BRDA:2599,0,0,18
BRDA:2599,e0,1,0
BRDA:2599,0,2,18
BRDA:2599,0,3,0
BRDA:2601,0,0,18
BRDA:2601,e0,1,0
BRDA:2604,0,0,201
BRDA:2604,e0,1,0
BRDA:2604,0,2,201
BRDA:2604,e0,3,0
BRDA:2604,0,4,201
BRDA:2604,e0,5,0
BRDA:2604,0,6,20
BRDA:2604,0,7,181
BRDA:2606,0,0,20
BRDA:2606,e0,1,0
BRDA:2606,0,2,20
BRDA:2606,e0,3,0
BRDA:2606,0,4,0
BRDA:2606,0,5,20
BRDA:2608,0,0,-
BRDA:2608,e0,1,-
BRDA:2608,0,2,-
BRDA:2608,e0,3,-
BRDA:2608,0,4,-
BRDA:2608,e0,5,-
BRDA:2608,0,6,-
BRDA:2608,e0,7,-
BRDA:2612,0,0,20
BRDA:2612,e0,1,0
BRDA:2615,0,0,181
BRDA:2615,e0,1,0
BRDA:2615,0,2,181
BRDA:2615,e0,3,0
BRDA:2615,0,4,181
BRDA:2615,e0,5,0
BRDA:2615,0,6,0
BRDA:2615,0,7,181
BRDA:2617,0,0,-
BRDA:2617,e0,1,-
BRDA:2617,0,2,-
BRDA:2617,e0,3,-
BRDA:2617,0,4,-
BRDA:2617,0,5,-
BRDA:2619,0,0,-
BRDA:2619,e0,1,-
BRDA:2619,0,2,-
BRDA:2619,e0,3,-
BRDA:2619,0,4,-
BRDA:2619,e0,5,-
BRDA:2619,0,6,-
BRDA:2619,e0,7,-
BRDA:2623,0,0,-
BRDA:2623,e0,1,-
BRDA:2626,0,0,181
BRDA:2626,e0,1,0
BRDA:2626,0,2,181
BRDA:2626,e0,3,0
BRDA:2626,0,4,181
BRDA:2626,e0,5,0
BRDA:2626,0,6,0
BRDA:2626,0,7,181
BRDA:2628,0,0,-
BRDA:2628,e0,1,-
BRDA:2628,0,2,-
BRDA:2628,e0,3,-
BRDA:2628,0,4,-
BRDA:2628,0,5,-
BRDA:2630,0,0,-
BRDA:2630,e0,1,-
BRDA:2630,0,2,-
BRDA:2630,e0,3,-
BRDA:2630,0,4,-
BRDA:2630,e0,5,-
BRDA:2630,0,6,-
BRDA:2630,e0,7,-
BRDA:2634,0,0,-
BRDA:2634,e0,1,-
BRDA:2637,0,0,181
BRDA:2637,e0,1,0
BRDA:2637,0,2,181
BRDA:2637,e0,3,0
BRDA:2637,0,4,181
BRDA:2637,e0,5,0
BRDA:2637,0,6,45
BRDA:2637,0,7,136
BRDA:2639,0,0,45
BRDA:2639,e0,1,0
BRDA:2639,0,2,45
BRDA:2639,e0,3,0
BRDA:2639,0,4,0
BRDA:2639,0,5,45
BRDA:2641,0,0,-
BRDA:2641,e0,1,-
BRDA:2641,0,2,-
BRDA:2641,e0,3,-
BRDA:2641,0,4,-
BRDA:2641,e0,5,-
BRDA:2641,0,6,-
BRDA:2641,e0,7,-
BRDA:2645,0,0,45
BRDA:2645,e0,1,0
BRDA:2648,0,0,136
BRDA:2648,e0,1,0
BRDA:2648,0,2,136
BRDA:2648,e0,3,0
BRDA:2648,0,4,136
BRDA:2648,e0,5,0
BRDA:2648,0,6,66
BRDA:2648,0,7,70
BRDA:2650,0,0,66
BRDA:2650,e0,1,0
BRDA:2650,0,2,66
BRDA:2650,e0,3,0
BRDA:2650,0,4,44
BRDA:2650,0,5,22
BRDA:2652,0,0,44
BRDA:2652,e0,1,0
BRDA:2652,0,2,44
BRDA:2652,e0,3,0
BRDA:2652,0,4,44
BRDA:2652,e0,5,0
BRDA:2656,0,0,22
BRDA:2656,e0,1,0
BRDA:2659,0,0,70
BRDA:2659,e0,1,0
BRDA:2659,0,2,70
BRDA:2659,e0,3,0
BRDA:2659,0,4,70
BRDA:2659,e0,5,0
BRDA:2659,0,6,70
BRDA:2659,0,7,0
BRDA:2661,0,0,70
BRDA:2661,e0,1,0
BRDA:2661,0,2,70
BRDA:2661,e0,3,0
BRDA:2661,0,4,70
BRDA:2661,0,5,0
BRDA:2663,0,0,70
BRDA:2663,e0,1,0
BRDA:2663,0,2,70
BRDA:2663,e0,3,0
BRDA:2668,0,0,-
BRDA:2668,e0,1,-
BRDA:2671,0,0,2646
BRDA:2671,e0,1,0
BRDA:2674,0,0,511
BRDA:2674,e0,1,0
BRDA:2674,0,2,511
BRDA:2674,e0,3,0
BRDA:2674,0,4,511
BRDA:2674,e0,5,0
BRDA:2674,0,6,511
BRDA:2674,e0,7,0
BRDA:2684,0,0,468
BRDA:2684,e0,1,0
BRDA:2684,0,2,468
BRDA:2684,e0,3,0
BRDA:2684,0,4,468
BRDA:2684,e0,5,0
BRDA:2684,0,6,17
BRDA:2684,0,7,451
BRDA:2688,0,0,17
BRDA:2688,e0,1,0
BRDA:2688,0,2,17
BRDA:2688,e0,3,0
BRDA:2688,0,4,17
BRDA:2688,0,5,0
BRDA:2690,0,0,17
BRDA:2690,e0,1,0
BRDA:2690,0,2,17
BRDA:2690,e0,3,0
BRDA:2691,0,0,17
BRDA:2691,e0,1,0
BRDA:2691,0,2,17
BRDA:2691,e0,3,0
BRDA:2691,0,4,17
BRDA:2691,e0,5,0
BRDA:2694,0,0,44
BRDA:2694,e0,1,0
BRDA:2694,0,2,44
BRDA:2694,e0,3,0
BRDA:2694,0,4,44
BRDA:2694,e0,5,0
BRDA:2694,0,6,44
BRDA:2694,e0,7,0
BRDA:2694,0,8,27
BRDA:2694,0,9,17
BRDA:2696,0,0,27
BRDA:2696,e0,1,0
BRDA:2696,0,2,27
BRDA:2696,e0,3,0
BRDA:2696,0,4,27
BRDA:2696,e0,5,0
BRDA:2696,0,6,27
BRDA:2696,e0,7,0
BRDA:2698,0,0,27
BRDA:2698,e0,1,0
BRDA:2698,0,2,27
BRDA:2698,e0,3,0
BRDA:2698,0,4,27
BRDA:2698,e0,5,0
BRDA:2700,0,0,27
BRDA:2700,e0,1,0
BRDA:2700,0,2,0
BRDA:2700,0,3,27
BRDA:2702,0,0,-
BRDA:2702,e0,1,-
BRDA:2705,0,0,27
BRDA:2705,e0,1,0
BRDA:2707,0,0,27
BRDA:2707,e0,1,0
BRDA:2708,0,0,27
BRDA:2708,e0,1,0
BRDA:2708,0,2,27
BRDA:2708,e0,3,0
BRDA:2708,0,4,27
BRDA:2708,e0,5,0
BRDA:2710,0,0,27
BRDA:2710,e0,1,0
BRDA:2710,0,2,27
BRDA:2710,e0,3,0
BRDA:2710,0,4,27
BRDA:2710,e0,5,0
BRDA:2710,0,6,27
BRDA:2710,e0,7,0
BRDA:2712,0,0,27
BRDA:2712,e0,1,0
BRDA:2722,0,0,451
BRDA:2722,e0,1,0
BRDA:2722,0,2,451
BRDA:2722,e0,3,0
BRDA:2722,0,4,451
BRDA:2722,e0,5,0
BRDA:2722,0,6,83
BRDA:2722,0,7,368
BRDA:2725,0,0,83
BRDA:2725,e0,1,0
BRDA:2725,0,2,83
BRDA:2725,e0,3,0
BRDA:2725,0,4,83
BRDA:2725,0,5,0
BRDA:2727,0,0,83
BRDA:2727,e0,1,0
BRDA:2727,0,2,83
BRDA:2727,e0,3,0
BRDA:2728,0,0,83
BRDA:2728,e0,1,0
BRDA:2728,0,2,83
BRDA:2728,e0,3,0
BRDA:2728,0,4,83
BRDA:2728,e0,5,0
BRDA:2731,0,0,708
BRDA:2731,e0,1,0
BRDA:2731,0,2,708
BRDA:2731,e0,3,0
BRDA:2731,0,4,708
BRDA:2731,e0,5,0
BRDA:2731,0,6,708
BRDA:2731,e0,7,0
BRDA:2731,0,8,625
BRDA:2731,0,9,83
BRDA:2733,0,0,625
BRDA:2733,e0,1,0
BRDA:2735,0,0,625
BRDA:2735,e0,1,0
BRDA:2735,0,2,625
BRDA:2735,e0,3,0
BRDA:2735,0,4,625
BRDA:2735,e0,5,0
BRDA:2735,0,6,625
BRDA:2735,e0,7,0
BRDA:2737,0,0,625
BRDA:2737,e0,1,0
BRDA:2737,0,2,625
BRDA:2737,e0,3,0
BRDA:2737,0,4,625
BRDA:2737,e0,5,0
BRDA:2738,0,0,625
BRDA:2738,e0,1,0
BRDA:2738,0,2,625
BRDA:2738,e0,3,0
BRDA:2740,0,0,625
BRDA:2740,e0,1,0
BRDA:2740,0,2,625
BRDA:2740,e0,3,0
BRDA:2740,0,4,513
BRDA:2740,0,5,112
BRDA:2742,0,0,513
BRDA:2742,e0,1,0
BRDA:2742,0,2,513
BRDA:2742,e0,3,0
BRDA:2745,0,0,625
BRDA:2745,e0,1,0
BRDA:2745,0,2,625
BRDA:2745,e0,3,0
BRDA:2745,0,4,3
BRDA:2745,0,5,622
BRDA:2747,0,0,3
BRDA:2747,e0,1,0
BRDA:2747,0,2,3
BRDA:2747,e0,3,0
BRDA:2747,0,4,3
BRDA:2747,e0,5,0
BRDA:2750,0,0,625
BRDA:2750,e0,1,0
BRDA:2750,0,2,625
BRDA:2750,e0,3,0
BRDA:2750,0,4,427
BRDA:2750,0,5,198
BRDA:2752,0,0,427
BRDA:2752,e0,1,0
BRDA:2752,0,2,427
BRDA:2752,e0,3,0
BRDA:2752,0,4,427
BRDA:2752,e0,5,0
BRDA:2755,0,0,625
BRDA:2755,e0,1,0
BRDA:2755,0,2,625
BRDA:2755,e0,3,0
BRDA:2755,0,4,625
BRDA:2755,e0,5,0
BRDA:2755,0,6,625
BRDA:2755,e0,7,0
BRDA:2765,0,0,368
BRDA:2765,e0,1,0
BRDA:2765,0,2,368
BRDA:2765,e0,3,0
BRDA:2765,0,4,368
BRDA:2765,0,5,0
BRDA:2765,0,6,368
BRDA:2765,0,7,0
BRDA:2765,0,8,368
BRDA:2765,0,9,0
BRDA:2765,0,10,168
BRDA:2765,0,11,200
BRDA:2765,0,12,0
BRDA:2765,0,13,0
BRDA:2765,0,14,0
BRDA:2765,0,15,0
BRDA:2765,0,16,0
BRDA:2765,0,17,0
BRDA:2765,0,18,0
BRDA:2765,0,19,0
BRDA:2766,0,0,368
BRDA:2766,e0,1,0
BRDA:2766,0,2,284
BRDA:2766,0,3,84
BRDA:2766,0,4,284
BRDA:2766,e0,5,0
BRDA:2766,0,6,284
BRDA:2766,e0,7,0
BRDA:2766,0,8,284
BRDA:2766,e0,9,0
BRDA:2766,0,10,84
BRDA:2766,0,11,200
BRDA:2766,0,12,284
BRDA:2766,0,13,84
BRDA:2766,0,14,284
BRDA:2766,0,15,84
BRDA:2766,0,16,284
BRDA:2766,0,17,84
BRDA:2766,0,18,284
BRDA:2766,0,19,84
BRDA:2766,0,20,368
BRDA:2766,0,21,0
BRDA:2766,0,22,0
BRDA:2766,0,23,0
BRDA:2766,0,24,0
BRDA:2766,0,25,0
BRDA:2766,0,26,0
BRDA:2766,0,27,0
BRDA:2766,0,28,0
BRDA:2766,0,29,0
BRDA:2768,0,0,168
BRDA:2768,e0,1,0
BRDA:2770,0,0,168
BRDA:2770,e0,1,0
BRDA:2770,0,2,168
BRDA:2770,e0,3,0
BRDA:2770,0,4,168
BRDA:2770,0,5,0
BRDA:2772,0,0,168
BRDA:2772,e0,1,0
BRDA:2772,0,2,168
BRDA:2772,e0,3,0
BRDA:2773,0,0,84
BRDA:2773,0,1,84
BRDA:2775,0,0,84
BRDA:2775,e0,1,0
BRDA:2775,0,2,84
BRDA:2775,e0,3,0
BRDA:2775,0,4,84
BRDA:2775,e0,5,0
BRDA:2779,0,0,84
BRDA:2779,e0,1,0
BRDA:2779,0,2,84
BRDA:2779,e0,3,0
BRDA:2779,0,4,84
BRDA:2779,e0,5,0
BRDA:2783,0,0,1381
BRDA:2783,e0,1,0
BRDA:2783,0,2,1213
BRDA:2783,0,3,168
BRDA:2785,0,0,1213
BRDA:2785,e0,1,0
BRDA:2785,0,2,1213
BRDA:2785,e0,3,0
BRDA:2785,0,4,1213
BRDA:2785,e0,5,0
BRDA:2785,0,6,1213
BRDA:2785,e0,7,0
BRDA:2788,0,0,433
BRDA:2788,0,1,780
BRDA:2788,0,2,433
BRDA:2788,e0,3,0
BRDA:2789,0,0,780
BRDA:2789,e0,1,0
BRDA:2791,0,0,1213
BRDA:2791,e0,1,0
BRDA:2791,0,2,1213
BRDA:2791,e0,3,0
BRDA:2791,0,4,639
BRDA:2791,0,5,574
BRDA:2793,0,0,639
BRDA:2793,e0,1,0
BRDA:2793,0,2,639
BRDA:2793,e0,3,0
BRDA:2793,0,4,639
BRDA:2793,e0,5,0
BRDA:2795,0,0,1213
BRDA:2795,e0,1,0
BRDA:2795,0,2,1213
BRDA:2795,e0,3,0
BRDA:2796,0,0,1198
BRDA:2796,0,1,15
BRDA:2796,0,2,1198
BRDA:2796,e0,3,0
BRDA:2796,0,4,1198
BRDA:2796,e0,5,0
BRDA:2796,0,6,1198
BRDA:2796,0,7,15
BRDA:2796,0,8,1198
BRDA:2796,0,9,15
BRDA:2796,0,10,0
BRDA:2796,0,11,0
BRDA:2796,0,12,0
BRDA:2796,0,13,0
BRDA:2799,0,0,1213
BRDA:2799,e0,1,0
BRDA:2799,0,2,1213
BRDA:2799,e0,3,0
BRDA:2799,0,4,145
BRDA:2799,0,5,1068
BRDA:2801,0,0,145
BRDA:2801,e0,1,0
BRDA:2801,0,2,145
BRDA:2801,e0,3,0
BRDA:2801,0,4,145
BRDA:2801,e0,5,0
BRDA:2803,0,0,1213
BRDA:2803,e0,1,0
BRDA:2803,0,2,1213
BRDA:2803,e0,3,0
BRDA:2804,0,0,1190
BRDA:2804,0,1,23
BRDA:2804,0,2,1190
BRDA:2804,e0,3,0
BRDA:2804,0,4,1190
BRDA:2804,e0,5,0
BRDA:2804,0,6,1190
BRDA:2804,0,7,23
BRDA:2804,0,8,1190
BRDA:2804,0,9,23
BRDA:2804,0,10,0
BRDA:2804,0,11,0
BRDA:2804,0,12,0
BRDA:2804,0,13,0
BRDA:2807,0,0,1213
BRDA:2807,e0,1,0
BRDA:2807,0,2,1213
BRDA:2807,e0,3,0
BRDA:2807,0,4,493
BRDA:2807,0,5,720
BRDA:2809,0,0,493
BRDA:2809,e0,1,0
BRDA:2809,0,2,493
BRDA:2809,e0,3,0
BRDA:2809,0,4,493
BRDA:2809,e0,5,0
BRDA:2811,0,0,1213
BRDA:2811,e0,1,0
BRDA:2811,0,2,1213
BRDA:2811,e0,3,0
BRDA:2812,0,0,1213
BRDA:2812,0,1,0
BRDA:2812,0,2,1213
BRDA:2812,e0,3,0
BRDA:2812,0,4,1213
BRDA:2812,e0,5,0
BRDA:2812,0,6,1213
BRDA:2812,0,7,0
BRDA:2812,0,8,1213
BRDA:2812,0,9,0
BRDA:2812,0,10,0
BRDA:2812,0,11,0
BRDA:2812,0,12,0
BRDA:2812,0,13,0
BRDA:2815,0,0,1213
BRDA:2815,e0,1,0
BRDA:2815,0,2,1213
BRDA:2815,e0,3,0
BRDA:2815,0,4,508
BRDA:2815,0,5,705
BRDA:2817,0,0,508
BRDA:2817,e0,1,0
BRDA:2817,0,2,508
BRDA:2817,e0,3,0
BRDA:2817,0,4,508
BRDA:2817,e0,5,0
BRDA:2819,0,0,1213
BRDA:2819,e0,1,0
BRDA:2819,0,2,1213
BRDA:2819,e0,3,0
BRDA:2820,0,0,1206
BRDA:2820,0,1,7
BRDA:2820,0,2,1206
BRDA:2820,e0,3,0
BRDA:2820,0,4,1206
BRDA:2820,e0,5,0
BRDA:2820,0,6,1206
BRDA:2820,0,7,7
BRDA:2820,0,8,1206
BRDA:2820,0,9,7
BRDA:2820,0,10,0
BRDA:2820,0,11,0
BRDA:2820,0,12,0
BRDA:2820,0,13,0
BRDA:2823,0,0,1213
BRDA:2823,e0,1,0
BRDA:2823,0,2,1213
BRDA:2823,e0,3,0
BRDA:2824,0,0,762
BRDA:2824,0,1,451
BRDA:2826,0,0,762
BRDA:2826,e0,1,0
BRDA:2826,0,2,762
BRDA:2826,e0,3,0
BRDA:2826,0,4,762
BRDA:2826,e0,5,0
BRDA:2829,0,0,1213
BRDA:2829,e0,1,0
BRDA:2829,0,2,1213
BRDA:2829,e0,3,0
BRDA:2830,0,0,594
BRDA:2830,0,1,619
BRDA:2832,0,0,594
BRDA:2832,e0,1,0
BRDA:2832,0,2,594
BRDA:2832,e0,3,0
BRDA:2832,0,4,594
BRDA:2832,e0,5,0
BRDA:2835,0,0,1213
BRDA:2835,e0,1,0
BRDA:2835,0,2,1213
BRDA:2835,0,3,0
BRDA:2835,0,4,0
BRDA:2835,0,5,0
BRDA:2835,0,6,0
BRDA:2835,0,7,0
BRDA:2836,0,0,1213
BRDA:2836,e0,1,0
BRDA:2836,0,2,3
BRDA:2836,0,3,1210
BRDA:2836,0,4,3
BRDA:2836,e0,5,0
BRDA:2836,0,6,3
BRDA:2836,e0,7,0
BRDA:2836,0,8,3
BRDA:2836,e0,9,0
BRDA:2836,0,10,0
BRDA:2836,0,11,3
BRDA:2836,0,12,3
BRDA:2836,0,13,1210
BRDA:2836,0,14,3
BRDA:2836,0,15,1210
BRDA:2836,0,16,1213
BRDA:2836,0,17,0
BRDA:2836,0,18,0
BRDA:2836,0,19,0
BRDA:2836,0,20,0
BRDA:2836,0,21,0
BRDA:2837,0,0,1213
BRDA:2837,e0,1,0
BRDA:2837,0,2,1213
BRDA:2837,0,3,0
BRDA:2837,0,4,0
BRDA:2837,0,5,0
BRDA:2837,0,6,0
BRDA:2837,0,7,0
BRDA:2838,0,0,1213
BRDA:2838,e0,1,0
BRDA:2838,0,2,3
BRDA:2838,0,3,1210
BRDA:2838,0,4,3
BRDA:2838,e0,5,0
BRDA:2838,0,6,3
BRDA:2838,e0,7,0
BRDA:2838,0,8,3
BRDA:2838,e0,9,0
BRDA:2838,0,10,0
BRDA:2838,0,11,3
BRDA:2838,0,12,3
BRDA:2838,0,13,1210
BRDA:2838,0,14,3
BRDA:2838,0,15,1210
BRDA:2838,0,16,1213
BRDA:2838,0,17,0
BRDA:2838,0,18,0
BRDA:2838,0,19,0
BRDA:2838,0,20,0
BRDA:2838,0,21,0
BRDA:2840,0,0,1213
BRDA:2840,e0,1,0
BRDA:2840,0,2,1213
BRDA:2840,e0,3,0
BRDA:2840,0,4,411
BRDA:2840,0,5,802
BRDA:2842,0,0,411
BRDA:2842,e0,1,0
BRDA:2842,0,2,411
BRDA:2842,e0,3,0
BRDA:2845,0,0,1709
BRDA:2845,e0,1,0
BRDA:2845,0,2,1709
BRDA:2845,e0,3,0
BRDA:2845,0,4,1709
BRDA:2845,e0,5,0
BRDA:2845,0,6,1709
BRDA:2845,e0,7,0
BRDA:2845,0,8,496
BRDA:2845,0,9,1213
BRDA:2847,0,0,496
BRDA:2847,e0,1,0
BRDA:2849,0,0,496
BRDA:2849,e0,1,0
BRDA:2849,0,2,496
BRDA:2849,e0,3,0
BRDA:2849,0,4,496
BRDA:2849,e0,5,0
BRDA:2849,0,6,474
BRDA:2849,0,7,22
BRDA:2852,0,0,474
BRDA:2852,e0,1,0
BRDA:2854,0,0,474
BRDA:2854,e0,1,0
BRDA:2854,0,2,474
BRDA:2854,e0,3,0
BRDA:2854,0,4,94
BRDA:2854,0,5,380
BRDA:2856,0,0,94
BRDA:2856,e0,1,0
BRDA:2856,0,2,94
BRDA:2856,e0,3,0
BRDA:2856,0,4,94
BRDA:2856,e0,5,0
BRDA:2856,0,6,94
BRDA:2856,e0,7,0
BRDA:2859,0,0,474
BRDA:2859,e0,1,0
BRDA:2859,0,2,474
BRDA:2859,e0,3,0
BRDA:2859,0,4,41
BRDA:2859,0,5,433
BRDA:2861,0,0,41
BRDA:2861,e0,1,0
BRDA:2861,0,2,41
BRDA:2861,e0,3,0
BRDA:2861,0,4,41
BRDA:2861,e0,5,0
BRDA:2861,0,6,41
BRDA:2861,e0,7,0
BRDA:2864,0,0,474
BRDA:2864,e0,1,0
BRDA:2864,0,2,474
BRDA:2864,e0,3,0
BRDA:2864,0,4,40
BRDA:2864,0,5,434
BRDA:2866,0,0,40
BRDA:2866,e0,1,0
BRDA:2866,0,2,40
BRDA:2866,e0,3,0
BRDA:2866,0,4,40
BRDA:2866,e0,5,0
BRDA:2869,0,0,474
BRDA:2869,e0,1,0
BRDA:2869,0,2,474
BRDA:2869,e0,3,0
BRDA:2869,0,4,31
BRDA:2869,0,5,443
BRDA:2871,0,0,31
BRDA:2871,e0,1,0
BRDA:2871,0,2,31
BRDA:2871,e0,3,0
BRDA:2871,0,4,31
BRDA:2871,e0,5,0
BRDA:2874,0,0,474
BRDA:2874,e0,1,0
BRDA:2874,0,2,474
BRDA:2874,e0,3,0
BRDA:2874,0,4,399
BRDA:2874,0,5,75
BRDA:2876,0,0,399
BRDA:2876,e0,1,0
BRDA:2876,0,2,399
BRDA:2876,e0,3,0
BRDA:2876,0,4,399
BRDA:2876,e0,5,0
BRDA:2879,0,0,474
BRDA:2879,e0,1,0
BRDA:2879,0,2,474
BRDA:2879,e0,3,0
BRDA:2879,0,4,114
BRDA:2879,0,5,360
BRDA:2881,0,0,114
BRDA:2881,e0,1,0
BRDA:2881,0,2,114
BRDA:2881,e0,3,0
BRDA:2881,0,4,114
BRDA:2881,e0,5,0
BRDA:2884,0,0,474
BRDA:2884,e0,1,0
BRDA:2884,0,2,474
BRDA:2884,e0,3,0
BRDA:2884,0,4,1
BRDA:2884,0,5,473
BRDA:2886,0,0,1
BRDA:2886,e0,1,0
BRDA:2886,0,2,1
BRDA:2886,e0,3,0
BRDA:2889,0,0,22
BRDA:2889,e0,1,0
BRDA:2889,0,2,22
BRDA:2889,e0,3,0
BRDA:2889,0,4,22
BRDA:2889,e0,5,0
BRDA:2889,0,6,22
BRDA:2889,0,7,0
BRDA:2892,0,0,22
BRDA:2892,e0,1,0
BRDA:2894,0,0,22
BRDA:2894,e0,1,0
BRDA:2894,0,2,22
BRDA:2894,e0,3,0
BRDA:2894,0,4,22
BRDA:2894,0,5,0
BRDA:2894,0,6,0
BRDA:2894,0,7,0
BRDA:2894,0,8,0
BRDA:2894,0,9,0
BRDA:2895,0,0,22
BRDA:2895,e0,1,0
BRDA:2895,0,2,22
BRDA:2895,0,3,0
BRDA:2895,0,4,22
BRDA:2895,e0,5,0
BRDA:2895,0,6,22
BRDA:2895,e0,7,0
BRDA:2895,0,8,22
BRDA:2895,e0,9,0
BRDA:2895,0,10,22
BRDA:2895,0,11,0
BRDA:2895,0,12,22
BRDA:2895,0,13,0
BRDA:2895,0,14,22
BRDA:2895,0,15,0
BRDA:2895,0,16,22
BRDA:2895,0,17,0
BRDA:2895,0,18,0
BRDA:2895,0,19,0
BRDA:2895,0,20,0
BRDA:2895,0,21,0
BRDA:2896,0,0,22
BRDA:2896,e0,1,0
BRDA:2896,0,2,22
BRDA:2896,e0,3,0
BRDA:2896,0,4,22
BRDA:2896,0,5,0
BRDA:2896,0,6,0
BRDA:2896,0,7,0
BRDA:2896,0,8,0
BRDA:2896,0,9,0
BRDA:2897,0,0,22
BRDA:2897,e0,1,0
BRDA:2897,0,2,22
BRDA:2897,0,3,0
BRDA:2897,0,4,22
BRDA:2897,e0,5,0
BRDA:2897,0,6,22
BRDA:2897,e0,7,0
BRDA:2897,0,8,22
BRDA:2897,e0,9,0
BRDA:2897,0,10,0
BRDA:2897,0,11,22
BRDA:2897,0,12,22
BRDA:2897,0,13,0
BRDA:2897,0,14,22
BRDA:2897,0,15,0
BRDA:2897,0,16,22
BRDA:2897,0,17,0
BRDA:2897,0,18,0
BRDA:2897,0,19,0
BRDA:2897,0,20,0
BRDA:2897,0,21,0
BRDA:2901,0,0,-
BRDA:2901,e0,1,-
BRDA:2904,0,0,496
BRDA:2904,e0,1,0
BRDA:2907,0,0,1213
BRDA:2907,e0,1,0
BRDA:2907,0,2,1213
BRDA:2907,e0,3,0
BRDA:2907,0,4,1213
BRDA:2907,e0,5,0
BRDA:2907,0,6,1213
BRDA:2907,e0,7,0
BRDA:2918,0,0,200
BRDA:2918,e0,1,0
BRDA:2918,0,2,200
BRDA:2918,e0,3,0
BRDA:2918,0,4,200
BRDA:2918,e0,5,0
BRDA:2918,0,6,69
BRDA:2918,0,7,131
BRDA:2922,0,0,69
BRDA:2922,e0,1,0
BRDA:2922,0,2,0
BRDA:2922,0,3,69
BRDA:2924,0,0,-
BRDA:2924,e0,1,-
BRDA:2925,0,0,-
BRDA:2925,e0,1,-
BRDA:2926,0,0,-
BRDA:2926,e0,1,-
BRDA:2941,0,0,131
BRDA:2941,e0,1,0
BRDA:2941,0,2,131
BRDA:2941,e0,3,0
BRDA:2941,0,4,131
BRDA:2941,e0,5,0
BRDA:2941,0,6,71
BRDA:2941,0,7,60
BRDA:2943,0,0,71
BRDA:2943,e0,1,0
BRDA:2943,0,2,71
BRDA:2943,e0,3,0
BRDA:2944,0,0,71
BRDA:2944,e0,1,0
BRDA:2944,0,2,71
BRDA:2944,e0,3,0
BRDA:2948,0,0,71
BRDA:2948,e0,1,0
BRDA:2948,0,2,71
BRDA:2948,e0,3,0
BRDA:2948,0,4,71
BRDA:2948,e0,5,0
BRDA:2948,0,6,71
BRDA:2948,e0,7,0
BRDA:2948,0,8,0
BRDA:2948,0,9,71
BRDA:2950,0,0,-
BRDA:2950,e0,1,-
BRDA:2951,0,0,-
BRDA:2951,e0,1,-
BRDA:2952,0,0,-
BRDA:2952,e0,1,-
BRDA:2967,0,0,60
BRDA:2967,e0,1,0
BRDA:2967,0,2,60
BRDA:2967,e0,3,0
BRDA:2967,0,4,60
BRDA:2967,e0,5,0
BRDA:2967,0,6,57
BRDA:2967,0,7,3
BRDA:2969,0,0,130
BRDA:2969,e0,1,0
BRDA:2969,0,2,130
BRDA:2969,e0,3,0
BRDA:2969,0,4,130
BRDA:2969,e0,5,0
BRDA:2969,0,6,130
BRDA:2969,e0,7,0
BRDA:2969,0,8,73
BRDA:2969,0,9,57
BRDA:2971,0,0,73
BRDA:2971,e0,1,0
BRDA:2971,0,2,73
BRDA:2971,e0,3,0
BRDA:2971,0,4,73
BRDA:2971,e0,5,0
BRDA:2971,0,6,73
BRDA:2971,e0,7,0
BRDA:2973,0,0,73
BRDA:2973,e0,1,0
BRDA:2973,0,2,73
BRDA:2973,e0,3,0
BRDA:2973,0,4,73
BRDA:2973,e0,5,0
BRDA:2975,0,0,73
BRDA:2975,e0,1,0
BRDA:2975,0,2,57
BRDA:2975,0,3,16
BRDA:2977,0,0,57
BRDA:2977,e0,1,0
BRDA:2977,0,2,57
BRDA:2977,e0,3,0
BRDA:2977,0,4,57
BRDA:2977,e0,5,0
BRDA:2977,0,6,57
BRDA:2977,e0,7,0
BRDA:2978,0,0,57
BRDA:2978,e0,1,0
BRDA:2978,0,2,57
BRDA:2978,e0,3,0
BRDA:2978,0,4,57
BRDA:2978,e0,5,0
BRDA:2979,0,0,57
BRDA:2979,e0,1,0
BRDA:2979,0,2,57
BRDA:2979,e0,3,0
BRDA:2979,0,4,57
BRDA:2979,e0,5,0
BRDA:2979,0,6,57
BRDA:2979,e0,7,0
BRDA:2983,0,0,16
BRDA:2983,e0,1,0
BRDA:2983,0,2,16
BRDA:2983,e0,3,0
BRDA:2983,0,4,16
BRDA:2983,e0,5,0
BRDA:2983,0,6,16
BRDA:2983,e0,7,0
BRDA:2986,0,0,73
BRDA:2986,e0,1,0
BRDA:2986,0,2,73
BRDA:2986,e0,3,0
BRDA:2986,0,4,73
BRDA:2986,e0,5,0
BRDA:2986,0,6,73
BRDA:2986,e0,7,0
BRDA:2989,0,0,3
BRDA:2989,e0,1,0
BRDA:2989,0,2,3
BRDA:2989,e0,3,0
BRDA:2989,0,4,3
BRDA:2989,e0,5,0
BRDA:2989,0,6,3
BRDA:2989,0,7,0
BRDA:2991,0,0,6
BRDA:2991,e0,1,0
BRDA:2991,0,2,6
BRDA:2991,e0,3,0
BRDA:2991,0,4,6
BRDA:2991,e0,5,0
BRDA:2991,0,6,6
BRDA:2991,e0,7,0
BRDA:2991,0,8,3
BRDA:2991,0,9,3
BRDA:2993,0,0,3
BRDA:2993,e0,1,0
BRDA:2995,0,0,3
BRDA:2995,e0,1,0
BRDA:2995,0,2,3
BRDA:2995,e0,3,0
BRDA:2995,0,4,3
BRDA:2995,e0,5,0
BRDA:2995,0,6,3
BRDA:2995,0,7,0
BRDA:2997,0,0,93
BRDA:2997,e0,1,0
BRDA:2997,0,2,90
BRDA:2997,0,3,3
BRDA:2999,0,0,90
BRDA:2999,e0,1,0
BRDA:2999,0,2,90
BRDA:2999,e0,3,0
BRDA:2999,0,4,90
BRDA:2999,e0,5,0
BRDA:2999,0,6,90
BRDA:2999,e0,7,0
BRDA:3000,0,0,90
BRDA:3000,e0,1,0
BRDA:3000,0,2,90
BRDA:3000,e0,3,0
BRDA:3001,0,0,90
BRDA:3001,e0,1,0
BRDA:3001,0,2,90
BRDA:3001,e0,3,0
BRDA:3001,0,4,90
BRDA:3001,e0,5,0
BRDA:3001,0,6,90
BRDA:3001,e0,7,0
BRDA:3004,0,0,-
BRDA:3004,e0,1,-
BRDA:3004,0,2,-
BRDA:3004,e0,3,-
BRDA:3004,0,4,-
BRDA:3004,e0,5,-
BRDA:3004,0,6,-
BRDA:3004,0,7,-
BRDA:3006,0,0,-
BRDA:3006,e0,1,-
BRDA:3010,0,0,-
BRDA:3010,e0,1,-
BRDA:3013,0,0,3
BRDA:3013,e0,1,0
BRDA:3018,0,0,-
BRDA:3018,e0,1,-
BRDA:3021,0,0,721
BRDA:3021,e0,1,0
BRDA:3024,0,0,85
BRDA:3024,e0,1,0
BRDA:3024,0,2,85
BRDA:3024,e0,3,0
BRDA:3024,0,4,85
BRDA:3024,e0,5,0
BRDA:3024,0,6,85
BRDA:3024,e0,7,0
BRDA:3028,0,0,780
BRDA:3028,0,1,85
BRDA:3030,0,0,780
BRDA:3030,e0,1,0
BRDA:3034,0,0,155
BRDA:3034,0,1,625
BRDA:3036,0,0,625
BRDA:3036,e0,1,0
BRDA:3044,0,0,625
BRDA:3044,e0,1,0
BRDA:3045,0,0,625
BRDA:3045,e0,1,0
BRDA:3047,0,0,625
BRDA:3047,e0,1,0
BRDA:3048,0,0,625
BRDA:3048,e0,1,0
BRDA:3049,0,0,625
BRDA:3049,e0,1,0
BRDA:3050,0,0,625
BRDA:3050,e0,1,0
BRDA:3051,0,0,625
BRDA:3051,e0,1,0
BRDA:3052,0,0,625
BRDA:3052,e0,1,0
BRDA:3053,0,0,625
BRDA:3053,e0,1,0
BRDA:3054,0,0,625
BRDA:3054,e0,1,0
BRDA:3055,0,0,625
BRDA:3055,e0,1,0
BRDA:3056,0,0,625
BRDA:3056,e0,1,0
BRDA:3061,0,0,433
BRDA:3061,0,1,85
BRDA:3063,0,0,433
BRDA:3063,e0,1,0
BRDA:3071,0,0,433
BRDA:3071,e0,1,0
BRDA:3072,0,0,433
BRDA:3072,e0,1,0
BRDA:3073,0,0,433
BRDA:3073,e0,1,0
BRDA:3074,0,0,433
BRDA:3074,e0,1,0
BRDA:3075,0,0,433
BRDA:3075,e0,1,0
BRDA:3076,0,0,433
BRDA:3076,e0,1,0
BRDA:3077,0,0,433
BRDA:3077,e0,1,0
BRDA:3078,0,0,433
BRDA:3078,e0,1,0
BRDA:3079,0,0,433
BRDA:3079,e0,1,0
BRDA:3080,0,0,433
BRDA:3080,e0,1,0
BRDA:3081,0,0,433
BRDA:3081,e0,1,0
BRDA:3082,0,0,433
BRDA:3082,e0,1,0
BRDA:3086,0,0,433
BRDA:3086,e0,1,0
BRDA:3088,0,0,85
BRDA:3088,e0,1,0
BRDA:3088,0,2,0
BRDA:3088,0,3,0
BRDA:3088,0,4,0
BRDA:3088,0,5,0
BRDA:3092,0,0,72
BRDA:3092,e0,1,0
BRDA:3092,0,2,72
BRDA:3092,e0,3,0
BRDA:3092,0,4,72
BRDA:3092,e0,5,0
BRDA:3093,0,0,72
BRDA:3093,e0,1,0
BRDA:3094,0,0,72
BRDA:3094,e0,1,0
BRDA:3094,0,2,72
BRDA:3094,e0,3,0
BRDA:3095,0,0,72
BRDA:3095,e0,1,0
BRDA:3095,0,2,72
BRDA:3095,e0,3,0
BRDA:3096,0,0,72
BRDA:3096,e0,1,0
BRDA:3096,0,2,72
BRDA:3096,e0,3,0
BRDA:3096,0,4,72
BRDA:3096,e0,5,0
BRDA:3096,0,6,144
BRDA:3096,0,7,72
BRDA:3096,0,8,0
BRDA:3096,0,9,0
BRDA:3098,0,0,72
BRDA:3098,e0,1,0
BRDA:3100,0,0,72
BRDA:3100,e0,1,0
BRDA:3100,0,2,72
BRDA:3100,e0,3,0
BRDA:3100,0,4,2
BRDA:3100,0,5,70
BRDA:3102,0,0,2
BRDA:3102,e0,1,0
BRDA:3102,0,2,2
BRDA:3102,e0,3,0
BRDA:3102,0,4,6
BRDA:3102,0,5,2
BRDA:3102,0,6,0
BRDA:3102,0,7,0
BRDA:3106,0,0,72
BRDA:3106,e0,1,0
BRDA:3106,0,2,72
BRDA:3106,e0,3,0
BRDA:3106,0,4,2
BRDA:3106,e0,5,0
BRDA:3106,0,6,2
BRDA:3106,e0,7,0
BRDA:3106,0,8,2
BRDA:3106,e0,9,0
BRDA:3106,0,10,2
BRDA:3106,e0,11,0
BRDA:3106,0,12,0
BRDA:3106,0,13,0
BRDA:3106,0,14,0
BRDA:3106,0,15,0
BRDA:3106,0,16,0
BRDA:3106,0,17,0
BRDA:3106,0,18,0
BRDA:3106,0,19,0
BRDA:3122,0,0,14
BRDA:3122,e0,1,0
BRDA:3122,0,2,14
BRDA:3122,e0,3,0
BRDA:3122,0,4,14
BRDA:3122,e0,5,0
BRDA:3122,0,6,14
BRDA:3122,e0,7,0
BRDA:3124,0,0,14
BRDA:3124,e0,1,0
BRDA:3124,0,2,14
BRDA:3124,e0,3,0
BRDA:3124,0,4,14
BRDA:3124,e0,5,0
BRDA:3124,0,6,14
BRDA:3124,e0,7,0
BRDA:3125,0,0,14
BRDA:3125,e0,1,0
BRDA:3125,0,2,14
BRDA:3125,e0,3,0
BRDA:3125,0,4,14
BRDA:3125,e0,5,0
BRDA:3125,0,6,14
BRDA:3125,e0,7,0
BRDA:3127,0,0,28
BRDA:3127,e0,1,0
BRDA:3127,0,2,28
BRDA:3127,e0,3,0
BRDA:3127,0,4,28
BRDA:3127,e0,5,0
BRDA:3127,0,6,28
BRDA:3127,e0,7,0
BRDA:3127,0,8,14
BRDA:3127,0,9,14
BRDA:3129,0,0,14
BRDA:3129,e0,1,0
BRDA:3129,0,2,14
BRDA:3129,e0,3,0
BRDA:3129,0,4,14
BRDA:3129,e0,5,0
BRDA:3129,0,6,14
BRDA:3129,e0,7,0
BRDA:3130,0,0,14
BRDA:3130,e0,1,0
BRDA:3130,0,2,14
BRDA:3130,e0,3,0
BRDA:3131,0,0,14
BRDA:3131,e0,1,0
BRDA:3131,0,2,14
BRDA:3131,e0,3,0
BRDA:3131,0,4,14
BRDA:3131,e0,5,0
BRDA:3131,0,6,14
BRDA:3131,e0,7,0
BRDA:3134,0,0,14
BRDA:3134,e0,1,0
BRDA:3134,0,2,14
BRDA:3134,e0,3,0
BRDA:3134,0,4,14
BRDA:3134,e0,5,0
BRDA:3134,0,6,14
BRDA:3134,e0,7,0
BRDA:3135,0,0,14
BRDA:3135,e0,1,0
BRDA:3135,0,2,14
BRDA:3135,e0,3,0
BRDA:3135,0,4,14
BRDA:3135,e0,5,0
BRDA:3135,0,6,14
BRDA:3135,e0,7,0
BRDA:3137,0,0,42
BRDA:3137,e0,1,0
BRDA:3137,0,2,42
BRDA:3137,e0,3,0
BRDA:3137,0,4,42
BRDA:3137,e0,5,0
BRDA:3137,0,6,42
BRDA:3137,e0,7,0
BRDA:3137,0,8,42
BRDA:3137,e0,9,0
BRDA:3137,0,10,28
BRDA:3137,0,11,14
BRDA:3139,0,0,28
BRDA:3139,e0,1,0
BRDA:3139,0,2,28
BRDA:3139,e0,3,0
BRDA:3139,0,4,28
BRDA:3139,e0,5,0
BRDA:3139,0,6,28
BRDA:3139,e0,7,0
BRDA:3141,0,0,28
BRDA:3141,e0,1,0
BRDA:3141,0,2,28
BRDA:3141,e0,3,0
BRDA:3142,0,0,28
BRDA:3142,e0,1,0
BRDA:3142,0,2,28
BRDA:3142,e0,3,0
BRDA:3142,0,4,28
BRDA:3142,e0,5,0
BRDA:3143,0,0,28
BRDA:3143,e0,1,0
BRDA:3143,0,2,28
BRDA:3143,e0,3,0
BRDA:3145,0,0,28
BRDA:3145,e0,1,0
BRDA:3145,0,2,28
BRDA:3145,e0,3,0
BRDA:3145,0,4,28
BRDA:3145,e0,5,0
BRDA:3145,0,6,28
BRDA:3145,e0,7,0
BRDA:3147,0,0,28
BRDA:3147,e0,1,0
BRDA:3147,0,2,28
BRDA:3147,e0,3,0
BRDA:3147,0,4,28
BRDA:3147,e0,5,0
BRDA:3147,0,6,28
BRDA:3147,e0,7,0
BRDA:3147,0,8,28
BRDA:3147,e0,9,0
BRDA:3147,0,10,28
BRDA:3147,e0,11,0
BRDA:3147,0,12,28
BRDA:3147,e0,13,0
BRDA:3147,0,14,28
BRDA:3147,e0,15,0
BRDA:3147,0,16,28
BRDA:3147,e0,17,0
BRDA:3149,0,0,28
BRDA:3149,e0,1,0
BRDA:3149,0,2,28
BRDA:3149,e0,3,0
BRDA:3149,0,4,28
BRDA:3149,e0,5,0
BRDA:3149,0,6,28
BRDA:3149,e0,7,0
BRDA:3151,0,0,28
BRDA:3151,e0,1,0
BRDA:3151,0,2,28
BRDA:3151,e0,3,0
BRDA:3151,0,4,28
BRDA:3151,e0,5,0
BRDA:3151,0,6,28
BRDA:3151,e0,7,0
BRDA:3151,0,8,28
BRDA:3151,e0,9,0
BRDA:3151,0,10,0
BRDA:3151,0,11,28
BRDA:3153,0,0,-
BRDA:3153,e0,1,-
BRDA:3153,0,2,-
BRDA:3153,e0,3,-
BRDA:3153,0,4,-
BRDA:3153,e0,5,-
BRDA:3153,0,6,-
BRDA:3153,e0,7,-
BRDA:3154,0,0,-
BRDA:3154,e0,1,-
BRDA:3154,0,2,-
BRDA:3154,e0,3,-
BRDA:3154,0,4,-
BRDA:3154,e0,5,-
BRDA:3154,0,6,-
BRDA:3154,e0,7,-
BRDA:3155,0,0,-
BRDA:3155,e0,1,-
BRDA:3155,0,2,-
BRDA:3155,e0,3,-
BRDA:3155,0,4,-
BRDA:3155,e0,5,-
BRDA:3155,0,6,-
BRDA:3155,e0,7,-
BRDA:3158,0,0,28
BRDA:3158,e0,1,0
BRDA:3158,0,2,28
BRDA:3158,e0,3,0
BRDA:3158,0,4,28
BRDA:3158,e0,5,0
BRDA:3158,0,6,28
BRDA:3158,e0,7,0
BRDA:3161,0,0,14
BRDA:3161,e0,1,0
BRDA:3161,0,2,14
BRDA:3161,e0,3,0
BRDA:3161,0,4,14
BRDA:3161,e0,5,0
BRDA:3161,0,6,14
BRDA:3161,e0,7,0
BRDA:3162,0,0,14
BRDA:3162,e0,1,0
BRDA:3162,0,2,14
BRDA:3162,e0,3,0
BRDA:3162,0,4,14
BRDA:3162,e0,5,0
BRDA:3162,0,6,14
BRDA:3162,e0,7,0
BRDA:3167,0,0,3
BRDA:3167,e0,1,0
BRDA:3167,0,2,3
BRDA:3167,e0,3,0
BRDA:3169,0,0,3
BRDA:3169,e0,1,0
BRDA:3171,0,0,3
BRDA:3171,e0,1,0
BRDA:3171,0,2,2
BRDA:3171,0,3,3
BRDA:3173,0,0,2
BRDA:3173,e0,1,0
BRDA:3176,0,0,2
BRDA:3176,0,1,0
BRDA:3178,0,0,2
BRDA:3178,e0,1,0
BRDA:3178,0,2,2
BRDA:3178,e0,3,0
BRDA:3178,0,4,2
BRDA:3178,e0,5,0
BRDA:3178,0,6,2
BRDA:3178,e0,7,0
BRDA:3180,0,0,2
BRDA:3180,e0,1,0
BRDA:3184,0,0,3
BRDA:3184,e0,1,0
BRDA:3199,0,0,46
BRDA:3199,e0,1,0
BRDA:3200,0,0,46
BRDA:3200,e0,1,0
BRDA:3200,0,2,46
BRDA:3200,e0,3,0
BRDA:3200,0,4,46
BRDA:3200,e0,5,0
BRDA:3201,0,0,46
BRDA:3201,e0,1,0
BRDA:3202,0,0,46
BRDA:3202,e0,1,0
BRDA:3207,0,0,7
BRDA:3207,e0,1,0
BRDA:3208,0,0,7
BRDA:3208,e0,1,0
BRDA:3208,0,2,7
BRDA:3208,e0,3,0
BRDA:3208,0,4,7
BRDA:3208,e0,5,0
BRDA:3209,0,0,7
BRDA:3209,e0,1,0
BRDA:3210,0,0,7
BRDA:3210,e0,1,0
BRDA:3217,0,0,7705
BRDA:3217,e0,1,0
BRDA:3217,0,2,2536
BRDA:3217,0,3,5169
BRDA:3219,0,0,2536
BRDA:3219,e0,1,0
BRDA:3220,0,0,2536
BRDA:3220,e0,1,0
BRDA:3228,0,0,973
BRDA:3228,e0,1,0
BRDA:3228,0,2,973
BRDA:3228,e0,3,0
BRDA:3230,0,0,973
BRDA:3230,e0,1,0
BRDA:3230,0,2,381
BRDA:3230,0,3,592
BRDA:3232,0,0,381
BRDA:3232,e0,1,0
BRDA:3233,0,0,381
BRDA:3233,e0,1,0
BRDA:3235,0,0,381
BRDA:3235,e0,1,0
BRDA:3235,0,2,381
BRDA:3235,e0,3,0
BRDA:3235,0,4,381
BRDA:3235,e0,5,0
BRDA:3235,0,6,377
BRDA:3235,0,7,4
BRDA:3235,0,8,377
BRDA:3235,e0,9,0
BRDA:3235,0,10,377
BRDA:3235,e0,11,0
BRDA:3235,0,12,377
BRDA:3235,e0,13,0
BRDA:3235,0,14,172
BRDA:3235,0,15,205
BRDA:3235,0,16,377
BRDA:3235,0,17,4
BRDA:3235,0,18,377
BRDA:3235,0,19,4
BRDA:3235,0,20,377
BRDA:3235,0,21,4
BRDA:3235,0,22,377
BRDA:3235,0,23,4
BRDA:3235,0,24,381
BRDA:3235,0,25,0
BRDA:3235,0,26,381
BRDA:3235,0,27,0
BRDA:3235,0,28,381
BRDA:3235,0,29,0
BRDA:3235,0,30,381
BRDA:3235,0,31,0
BRDA:3235,0,32,176
BRDA:3235,0,33,205
BRDA:3235,0,34,0
BRDA:3235,0,35,0
BRDA:3235,0,36,0
BRDA:3235,0,37,0
BRDA:3235,0,38,0
BRDA:3235,0,39,0
BRDA:3235,0,40,0
BRDA:3235,0,41,0
BRDA:3235,0,42,0
BRDA:3235,0,43,0
BRDA:3235,0,44,0
BRDA:3235,0,45,0
BRDA:3235,0,46,0
BRDA:3235,0,47,0
BRDA:3235,0,48,0
BRDA:3235,0,49,0
BRDA:3237,0,0,176
BRDA:3237,e0,1,0
BRDA:3239,0,0,381
BRDA:3239,e0,1,0
BRDA:3239,0,2,381
BRDA:3239,e0,3,0
BRDA:3239,0,4,381
BRDA:3239,e0,5,0
BRDA:3239,0,6,71
BRDA:3239,0,7,310
BRDA:3242,0,0,71
BRDA:3242,e0,1,0
BRDA:3242,0,2,71
BRDA:3242,0,3,0
BRDA:3250,0,0,71
BRDA:3250,e0,1,0
BRDA:3253,0,0,381
BRDA:3253,e0,1,0
BRDA:3253,0,2,381
BRDA:3253,e0,3,0
BRDA:3253,0,4,381
BRDA:3253,e0,5,0
BRDA:3253,0,6,0
BRDA:3253,0,7,381
BRDA:3255,0,0,-
BRDA:3255,e0,1,-
BRDA:3255,0,2,-
BRDA:3255,e0,3,-
BRDA:3257,0,0,381
BRDA:3257,e0,1,0
BRDA:3257,0,2,381
BRDA:3257,e0,3,0
BRDA:3257,0,4,381
BRDA:3257,e0,5,0
BRDA:3257,0,6,134
BRDA:3257,0,7,247
BRDA:3259,0,0,134
BRDA:3259,e0,1,0
BRDA:3259,0,2,134
BRDA:3259,e0,3,0
BRDA:3260,0,0,134
BRDA:3260,e0,1,0
BRDA:3260,0,2,134
BRDA:3260,e0,3,0
BRDA:3260,0,4,134
BRDA:3260,e0,5,0
BRDA:3264,0,0,243
BRDA:3264,0,1,134
BRDA:3266,0,0,243
BRDA:3266,e0,1,0
BRDA:3266,0,2,142
BRDA:3266,0,3,101
BRDA:3268,0,0,142
BRDA:3268,e0,1,0
BRDA:3268,0,2,142
BRDA:3268,e0,3,0
BRDA:3268,0,4,142
BRDA:3268,e0,5,0
BRDA:3268,0,6,142
BRDA:3268,e0,7,0
BRDA:3271,0,0,243
BRDA:3271,e0,1,0
BRDA:3271,0,2,243
BRDA:3271,e0,3,0
BRDA:3273,0,0,243
BRDA:3273,e0,1,0
BRDA:3273,0,2,142
BRDA:3273,0,3,101
BRDA:3275,0,0,142
BRDA:3275,e0,1,0
BRDA:3275,0,2,142
BRDA:3275,e0,3,0
BRDA:3275,0,4,142
BRDA:3275,e0,5,0
BRDA:3275,0,6,142
BRDA:3275,e0,7,0
BRDA:3276,0,0,142
BRDA:3276,e0,1,0
BRDA:3280,0,0,134
BRDA:3280,e0,1,0
BRDA:3283,0,0,381
BRDA:3283,e0,1,0
BRDA:3284,0,0,381
BRDA:3284,e0,1,0
BRDA:3292,0,0,2551
BRDA:3292,0,1,392
BRDA:3294,0,0,2551
BRDA:3294,e0,1,0
BRDA:3294,0,2,275
BRDA:3294,0,3,2276
BRDA:3296,0,0,275
BRDA:3296,e0,1,0
BRDA:3303,0,0,207
BRDA:3303,0,1,207
BRDA:3305,0,0,207
BRDA:3305,e0,1,0
BRDA:3305,0,2,130
BRDA:3305,0,3,77
BRDA:3307,0,0,130
BRDA:3307,e0,1,0
BRDA:3319,0,0,197
BRDA:3319,0,1,68
BRDA:3327,0,0,222
BRDA:3327,0,1,1805
BRDA:3338,0,0,475
BRDA:3338,e0,1,0
BRDA:3341,0,0,51
BRDA:3341,0,1,475
BRDA:3343,0,0,51
BRDA:3343,e0,1,0
BRDA:3344,0,0,51
BRDA:3344,e0,1,0
BRDA:3345,0,0,51
BRDA:3345,e0,1,0
BRDA:3346,0,0,51
BRDA:3346,e0,1,0
BRDA:3353,0,0,16574
BRDA:3353,0,1,7346
BRDA:3353,0,2,16571
BRDA:3353,0,3,3
BRDA:3358,0,0,11057
BRDA:3358,e0,1,0
BRDA:3359,0,0,11057
BRDA:3359,e0,1,0
BRDA:3360,0,0,11057
BRDA:3360,e0,1,0
BRDA:3362,0,0,11057
BRDA:3362,e0,1,0
BRDA:3362,0,2,11057
BRDA:3362,e0,3,0
BRDA:3362,0,4,11057
BRDA:3362,e0,5,0
BRDA:3362,0,6,11057
BRDA:3362,e0,7,0
BRDA:3363,0,0,11057
BRDA:3363,e0,1,0
BRDA:3363,0,2,21
BRDA:3363,0,3,11036
BRDA:3363,0,4,21
BRDA:3363,e0,5,0
BRDA:3363,0,6,21
BRDA:3363,e0,7,0
BRDA:3365,0,0,11057
BRDA:3365,e0,1,0
BRDA:3370,0,0,6760
BRDA:3370,e0,1,0
BRDA:3371,0,0,6760
BRDA:3371,e0,1,0
BRDA:3372,0,0,6760
BRDA:3372,e0,1,0
BRDA:3374,0,0,6760
BRDA:3374,e0,1,0
BRDA:3374,0,2,6760
BRDA:3374,e0,3,0
BRDA:3374,0,4,6760
BRDA:3374,e0,5,0
BRDA:3374,0,6,6760
BRDA:3374,e0,7,0
BRDA:3375,0,0,6760
BRDA:3375,e0,1,0
BRDA:3375,0,2,2
BRDA:3375,0,3,6758
BRDA:3375,0,4,2
BRDA:3375,e0,5,0
BRDA:3375,0,6,2
BRDA:3375,e0,7,0
BRDA:3399,0,0,1567
BRDA:3399,e0,1,0
BRDA:3399,0,2,812
BRDA:3399,0,3,755
BRDA:3401,0,0,812
BRDA:3401,e0,1,0
BRDA:3402,0,0,812
BRDA:3402,e0,1,0
BRDA:3402,0,2,812
BRDA:3402,e0,3,0
BRDA:3402,0,4,812
BRDA:3402,e0,5,0
BRDA:3402,0,6,812
BRDA:3402,e0,7,0
BRDA:3403,0,0,812
BRDA:3403,e0,1,0
BRDA:3404,0,0,10
BRDA:3404,0,1,802
BRDA:3404,0,2,10
BRDA:3404,e0,3,0
BRDA:3404,0,4,10
BRDA:3404,e0,5,0
BRDA:3406,0,0,812
BRDA:3406,e0,1,0
BRDA:3407,0,0,812
BRDA:3407,e0,1,0
BRDA:3409,0,0,812
BRDA:3409,e0,1,0
BRDA:3409,0,2,812
BRDA:3409,e0,3,0
BRDA:3409,0,4,725
BRDA:3409,0,5,87
BRDA:3411,0,0,725
BRDA:3411,e0,1,0
BRDA:3413,0,0,87
BRDA:3413,e0,1,0
BRDA:3413,0,2,87
BRDA:3413,e0,3,0
BRDA:3413,0,4,51
BRDA:3413,0,5,36
BRDA:3418,0,0,153
BRDA:3418,e0,1,0
BRDA:3418,0,2,153
BRDA:3418,e0,3,0
BRDA:3418,0,4,153
BRDA:3418,e0,5,0
BRDA:3418,0,6,102
BRDA:3418,0,7,51
BRDA:3420,0,0,102
BRDA:3420,e0,1,0
BRDA:3421,0,0,102
BRDA:3421,e0,1,0
BRDA:3423,0,0,102
BRDA:3423,e0,1,0
BRDA:3423,0,2,102
BRDA:3423,e0,3,0
BRDA:3423,0,4,51
BRDA:3423,0,5,51
BRDA:3425,0,0,51
BRDA:3425,e0,1,0
BRDA:3427,0,0,275
BRDA:3427,e0,1,0
BRDA:3427,0,2,275
BRDA:3427,e0,3,0
BRDA:3427,0,4,275
BRDA:3427,e0,5,0
BRDA:3427,0,6,224
BRDA:3427,0,7,51
BRDA:3429,0,0,224
BRDA:3429,e0,1,0
BRDA:3431,0,0,224
BRDA:3431,e0,1,0
BRDA:3431,0,2,224
BRDA:3431,e0,3,0
BRDA:3431,0,4,51
BRDA:3431,0,5,173
BRDA:3433,0,0,51
BRDA:3433,e0,1,0
BRDA:3433,0,2,51
BRDA:3433,e0,3,0
BRDA:3433,0,4,51
BRDA:3433,e0,5,0
BRDA:3433,0,6,51
BRDA:3433,e0,7,0
BRDA:3433,0,8,51
BRDA:3433,e0,9,0
BRDA:3435,0,0,173
BRDA:3435,e0,1,0
BRDA:3435,0,2,173
BRDA:3435,e0,3,0
BRDA:3435,0,4,51
BRDA:3435,0,5,122
BRDA:3437,0,0,51
BRDA:3437,e0,1,0
BRDA:3437,0,2,51
BRDA:3437,e0,3,0
BRDA:3437,0,4,51
BRDA:3437,e0,5,0
BRDA:3437,0,6,51
BRDA:3437,e0,7,0
BRDA:3439,0,0,122
BRDA:3439,e0,1,0
BRDA:3439,0,2,122
BRDA:3439,e0,3,0
BRDA:3439,0,4,51
BRDA:3439,0,5,71
BRDA:3441,0,0,51
BRDA:3441,e0,1,0
BRDA:3441,0,2,51
BRDA:3441,e0,3,0
BRDA:3441,0,4,51
BRDA:3441,e0,5,0
BRDA:3443,0,0,71
BRDA:3443,e0,1,0
BRDA:3443,0,2,71
BRDA:3443,e0,3,0
BRDA:3443,0,4,14
BRDA:3443,0,5,57
BRDA:3445,0,0,14
BRDA:3445,e0,1,0
BRDA:3445,0,2,14
BRDA:3445,e0,3,0
BRDA:3445,0,4,14
BRDA:3445,e0,5,0
BRDA:3445,0,6,14
BRDA:3445,e0,7,0
BRDA:3447,0,0,57
BRDA:3447,e0,1,0
BRDA:3447,0,2,57
BRDA:3447,e0,3,0
BRDA:3447,0,4,0
BRDA:3447,0,5,57
BRDA:3449,0,0,-
BRDA:3449,e0,1,-
BRDA:3449,0,2,-
BRDA:3449,e0,3,-
BRDA:3449,0,4,-
BRDA:3449,e0,5,-
BRDA:3449,0,6,-
BRDA:3449,e0,7,-
BRDA:3451,0,0,57
BRDA:3451,e0,1,0
BRDA:3451,0,2,57
BRDA:3451,e0,3,0
BRDA:3451,0,4,13
BRDA:3451,0,5,44
BRDA:3453,0,0,13
BRDA:3453,e0,1,0
BRDA:3453,0,2,13
BRDA:3453,e0,3,0
BRDA:3453,0,4,13
BRDA:3453,e0,5,0
BRDA:3453,0,6,13
BRDA:3453,e0,7,0
BRDA:3455,0,0,44
BRDA:3455,e0,1,0
BRDA:3455,0,2,44
BRDA:3455,e0,3,0
BRDA:3455,0,4,36
BRDA:3455,0,5,8
BRDA:3457,0,0,36
BRDA:3457,e0,1,0
BRDA:3457,0,2,36
BRDA:3457,e0,3,0
BRDA:3457,0,4,36
BRDA:3457,e0,5,0
BRDA:3457,0,6,0
BRDA:3457,0,7,36
BRDA:3457,0,8,36
BRDA:3457,e0,9,0
BRDA:3458,0,0,0
BRDA:3458,e0,1,0
BRDA:3458,0,2,0
BRDA:3458,e0,3,0
BRDA:3458,0,4,0
BRDA:3458,e0,5,0
BRDA:3458,0,6,0
BRDA:3458,0,7,36
BRDA:3458,0,8,0
BRDA:3458,0,9,36
BRDA:3458,0,10,0
BRDA:3458,0,11,0
BRDA:3458,0,12,0
BRDA:3458,0,13,0
BRDA:3461,0,0,8
BRDA:3461,e0,1,0
BRDA:3461,0,2,8
BRDA:3461,e0,3,0
BRDA:3461,0,4,0
BRDA:3461,0,5,8
BRDA:3463,0,0,-
BRDA:3463,e0,1,-
BRDA:3463,0,2,-
BRDA:3463,e0,3,-
BRDA:3463,0,4,-
BRDA:3463,e0,5,-
BRDA:3463,0,6,-
BRDA:3463,0,7,-
BRDA:3463,0,8,-
BRDA:3463,e0,9,-
BRDA:3464,0,0,-
BRDA:3464,e0,1,-
BRDA:3464,0,2,-
BRDA:3464,e0,3,-
BRDA:3464,0,4,-
BRDA:3464,e0,5,-
BRDA:3464,0,6,-
BRDA:3464,0,7,-
BRDA:3464,0,8,-
BRDA:3464,0,9,-
BRDA:3464,0,10,-
BRDA:3464,0,11,-
BRDA:3464,0,12,-
BRDA:3464,0,13,-
BRDA:3467,0,0,8
BRDA:3467,e0,1,0
BRDA:3467,0,2,8
BRDA:3467,e0,3,0
BRDA:3467,0,4,6
BRDA:3467,0,5,2
BRDA:3469,0,0,6
BRDA:3469,e0,1,0
BRDA:3469,0,2,6
BRDA:3469,e0,3,0
BRDA:3469,0,4,0
BRDA:3469,0,5,6
BRDA:3471,0,0,-
BRDA:3471,e0,1,-
BRDA:3471,0,2,-
BRDA:3471,e0,3,-
BRDA:3471,0,4,-
BRDA:3471,e0,5,-
BRDA:3471,0,6,-
BRDA:3471,e0,7,-
BRDA:3475,0,0,6
BRDA:3475,e0,1,0
BRDA:3475,0,2,6
BRDA:3475,e0,3,0
BRDA:3478,0,0,2
BRDA:3478,e0,1,0
BRDA:3478,0,2,2
BRDA:3478,e0,3,0
BRDA:3478,0,4,2
BRDA:3478,0,5,0
BRDA:3480,0,0,2
BRDA:3480,e0,1,0
BRDA:3480,0,2,2
BRDA:3480,e0,3,0
BRDA:3480,0,4,2
BRDA:3480,e0,5,0
BRDA:3480,0,6,0
BRDA:3480,0,7,2
BRDA:3480,0,8,2
BRDA:3480,e0,9,0
BRDA:3481,0,0,0
BRDA:3481,e0,1,0
BRDA:3481,0,2,0
BRDA:3481,e0,3,0
BRDA:3481,0,4,0
BRDA:3481,e0,5,0
BRDA:3481,0,6,0
BRDA:3481,0,7,2
BRDA:3481,0,8,0
BRDA:3481,0,9,2
BRDA:3481,0,10,0
BRDA:3481,0,11,0
BRDA:3481,0,12,0
BRDA:3481,0,13,0
BRDA:3486,0,0,-
BRDA:3486,e0,1,-
BRDA:3489,0,0,224
BRDA:3489,e0,1,0
BRDA:3490,0,0,224
BRDA:3490,e0,1,0
BRDA:3493,0,0,51
BRDA:3493,e0,1,0
BRDA:3493,0,2,51
BRDA:3493,e0,3,0
BRDA:3493,0,4,51
BRDA:3493,0,5,0
BRDA:3495,0,0,51
BRDA:3495,e0,1,0
BRDA:3499,0,0,-
BRDA:3499,e0,1,-
BRDA:3502,0,0,102
BRDA:3502,e0,1,0
BRDA:3503,0,0,102
BRDA:3503,e0,1,0
BRDA:3504,0,0,102
BRDA:3504,e0,1,0
BRDA:3507,0,0,51
BRDA:3507,e0,1,0
BRDA:3509,0,0,36
BRDA:3509,e0,1,0
BRDA:3509,0,2,36
BRDA:3509,e0,3,0
BRDA:3509,0,4,2
BRDA:3509,0,5,34
BRDA:3512,0,0,2
BRDA:3512,e0,1,0
BRDA:3512,0,2,2
BRDA:3512,e0,3,0
BRDA:3513,0,0,2
BRDA:3513,e0,1,0
BRDA:3513,0,2,2
BRDA:3513,e0,3,0
BRDA:3515,0,0,2
BRDA:3515,e0,1,0
BRDA:3515,0,2,2
BRDA:3515,e0,3,0
BRDA:3515,0,4,2
BRDA:3515,e0,5,0
BRDA:3516,0,0,2
BRDA:3516,e0,1,0
BRDA:3518,0,0,2
BRDA:3518,e0,1,0
BRDA:3518,0,2,2
BRDA:3518,0,3,0
BRDA:3520,0,0,2
BRDA:3520,e0,1,0
BRDA:3520,0,2,2
BRDA:3520,e0,3,0
BRDA:3523,0,0,2
BRDA:3523,e0,1,0
BRDA:3523,0,2,2
BRDA:3523,e0,3,0
BRDA:3523,0,4,2
BRDA:3523,e0,5,0
BRDA:3525,0,0,2
BRDA:3525,e0,1,0
BRDA:3527,0,0,34
BRDA:3527,e0,1,0
BRDA:3527,0,2,34
BRDA:3527,e0,3,0
BRDA:3527,0,4,34
BRDA:3527,0,5,0
BRDA:3529,0,0,34
BRDA:3529,e0,1,0
BRDA:3529,0,2,34
BRDA:3529,e0,3,0
BRDA:3529,0,4,34
BRDA:3529,e0,5,0
BRDA:3530,0,0,34
BRDA:3530,e0,1,0
BRDA:3530,0,2,34
BRDA:3530,e0,3,0
BRDA:3530,0,4,32
BRDA:3530,0,5,2
BRDA:3532,0,0,32
BRDA:3532,e0,1,0
BRDA:3532,0,2,32
BRDA:3532,e0,3,0
BRDA:3532,0,4,32
BRDA:3532,e0,5,0
BRDA:3532,0,6,32
BRDA:3532,e0,7,0
BRDA:3534,0,0,34
BRDA:3534,e0,1,0
BRDA:3534,0,2,34
BRDA:3534,e0,3,0
BRDA:3534,0,4,0
BRDA:3534,0,5,34
BRDA:3536,0,0,-
BRDA:3536,e0,1,-
BRDA:3536,0,2,-
BRDA:3536,e0,3,-
BRDA:3536,0,4,-
BRDA:3536,e0,5,-
BRDA:3536,0,6,-
BRDA:3536,e0,7,-
BRDA:3538,0,0,34
BRDA:3538,e0,1,0
BRDA:3542,0,0,-
BRDA:3542,e0,1,-
BRDA:3545,0,0,812
BRDA:3545,e0,1,0
BRDA:3546,0,0,812
BRDA:3546,e0,1,0
BRDA:3556,0,0,1342
BRDA:3556,e0,1,0
BRDA:3556,0,2,1342
BRDA:3556,e0,3,0
BRDA:3556,0,4,4
BRDA:3556,0,5,1338
BRDA:3556,0,6,4
BRDA:3556,e0,7,0
BRDA:3556,0,8,4
BRDA:3556,e0,9,0
BRDA:3556,0,10,4
BRDA:3556,e0,11,0
BRDA:3556,0,12,4
BRDA:3556,0,13,0
BRDA:3556,0,14,4
BRDA:3556,0,15,1338
BRDA:3556,0,16,4
BRDA:3556,0,17,1338
BRDA:3556,0,18,1342
BRDA:3556,0,19,0
BRDA:3556,0,20,1342
BRDA:3556,0,21,0
BRDA:3556,0,22,4
BRDA:3556,0,23,1338
BRDA:3556,0,24,0
BRDA:3556,0,25,0
BRDA:3556,0,26,0
BRDA:3556,0,27,0
BRDA:3556,0,28,0
BRDA:3556,0,29,0
BRDA:3556,0,30,0
BRDA:3556,0,31,0
BRDA:3558,0,0,4
BRDA:3558,e0,1,0
BRDA:3562,0,0,1338
BRDA:3562,e0,1,0
BRDA:3562,0,2,1338
BRDA:3562,e0,3,0
BRDA:3562,0,4,429
BRDA:3562,0,5,909
BRDA:3564,0,0,429
BRDA:3564,e0,1,0
BRDA:3564,0,2,429
BRDA:3564,e0,3,0
BRDA:3564,0,4,429
BRDA:3564,e0,5,0
BRDA:3564,0,6,429
BRDA:3564,e0,7,0
BRDA:3566,0,0,909
BRDA:3566,e0,1,0
BRDA:3566,0,2,909
BRDA:3566,e0,3,0
BRDA:3566,0,4,584
BRDA:3566,0,5,325
BRDA:3568,0,0,584
BRDA:3568,e0,1,0
BRDA:3568,0,2,584
BRDA:3568,e0,3,0
BRDA:3568,0,4,584
BRDA:3568,e0,5,0
BRDA:3568,0,6,584
BRDA:3568,e0,7,0
BRDA:3570,0,0,325
BRDA:3570,e0,1,0
BRDA:3570,0,2,325
BRDA:3570,e0,3,0
BRDA:3570,0,4,325
BRDA:3570,0,5,0
BRDA:3572,0,0,325
BRDA:3572,e0,1,0
BRDA:3572,0,2,325
BRDA:3572,e0,3,0
BRDA:3572,0,4,325
BRDA:3572,e0,5,0
BRDA:3572,0,6,325
BRDA:3572,e0,7,0
BRDA:3575,0,0,1338
BRDA:3575,e0,1,0
BRDA:3575,0,2,1338
BRDA:3575,e0,3,0
BRDA:3575,0,4,180
BRDA:3575,0,5,1158
BRDA:3577,0,0,180
BRDA:3577,e0,1,0
BRDA:3577,0,2,180
BRDA:3577,e0,3,0
BRDA:3577,0,4,180
BRDA:3577,e0,5,0
BRDA:3577,0,6,180
BRDA:3577,e0,7,0
BRF:7349
BRH:3450
DA:57,19899
DA:59,58421
DA:61,46006
DA:63,7484
DA:66,12415
DA:70,40472
DA:72,40472
DA:74,20573
DA:77,19899
DA:80,80325
DA:83,80325
DA:85,80325
DA:87,80325
DA:89,323
DA:92,80002
DA:98,5188
DA:100,5188
DA:102,2515
DA:114,2673
DA:123,433
DA:126,2861
DA:128,2428
DA:130,409
DA:133,433
DA:142,1479
DA:144,1479
DA:146,1460
DA:148,19
DA:150,2
DA:152,17
DA:154,0
DA:156,17
DA:158,0
DA:160,17
DA:162,2
DA:164,15
DA:166,15
DA:168,0
DA:171,2046
DA:173,2046
DA:174,6425
DA:176,4379
DA:178,2046
DA:180,2333
DA:182,1479
DA:184,854
DA:186,850
DA:188,4
DA:190,4
DA:192,0
DA:194,0
DA:197,2046
DA:202,9321
DA:204,7275
DA:205,7275
DA:207,1597
DA:208,1695
DA:212,45
DA:214,8
DA:215,4
DA:218,1597
DA:219,1597
DA:221,3643
DA:222,3643
DA:223,3643
DA:225,2035
DA:228,2035
DA:231,1589
DA:233,1544
DA:236,45
DA:238,45
DA:240,135
DA:242,14
DA:243,14
DA:244,7
DA:246,4
DA:247,2
DA:249,5
DA:251,5
DA:253,7
DA:256,446
DA:259,2
DA:261,2
DA:264,2035
DA:266,0
DA:272,0
DA:276,7275
DA:278,2046
DA:279,0
DA:282,1590
DA:284,1590
DA:285,6531
DA:287,4941
DA:289,481
DA:291,4460
DA:293,530
DA:295,3930
DA:297,1154
DA:299,2776
DA:301,21
DA:302,21
DA:304,21
DA:307,2755
DA:309,22
DA:311,2733
DA:313,33
DA:315,2700
DA:317,0
DA:319,2700
DA:321,1590
DA:323,1110
DA:325,1086
DA:329,1590
DA:330,5582
DA:332,3992
DA:333,3992
DA:335,2046
DA:336,2046
DA:337,2046
DA:339,1590
DA:340,1590
DA:341,1590
DA:343,356
DA:345,356
DA:347,0
DA:353,0
DA:357,1590
DA:358,0
DA:361,119
DA:363,119
DA:364,119
DA:368,1828
DA:370,1709
DA:371,1709
DA:373,1590
DA:374,1590
DA:375,1590
DA:377,119
DA:378,119
DA:379,119
DA:381,0
DA:383,0
DA:385,0
DA:391,0
DA:395,119
DA:396,0
DA:420,102
DA:421,102
DA:422,102
DA:424,102
DA:426,102
DA:428,102
DA:430,93
DA:432,93
DA:433,93
DA:434,92
DA:436,3
DA:438,3
DA:439,3
DA:440,3
DA:442,145
DA:444,145
DA:447,119
DA:449,119
DA:451,119
DA:453,119
DA:454,119
DA:456,119
DA:458,122
DA:460,141
DA:462,19
DA:464,13
DA:467,6
DA:476,3
DA:477,4
DA:480,4
DA:481,4
DA:482,4
DA:483,4
DA:484,4
DA:485,4
DA:486,4
DA:487,4
DA:488,4
DA:491,4
DA:493,2
DA:497,2
DA:498,2
DA:500,4
DA:501,2
DA:503,2
DA:508,4
DA:510,3
DA:513,1
DA:514,10
DA:516,3
DA:518,1
DA:519,1
DA:521,2
DA:523,2
DA:524,2
DA:527,122
DA:529,122
DA:531,122
DA:533,3
DA:536,122
DA:537,122
DA:539,122
DA:540,122
DA:541,172
DA:542,172
DA:543,122
DA:545,122
DA:547,488
DA:548,488
DA:550,122
DA:552,2274
DA:554,538
DA:556,2152
DA:558,24
DA:559,72
DA:561,0
DA:563,72
DA:565,0
DA:567,72
DA:569,0
DA:571,72
DA:573,0
DA:575,72
DA:577,0
DA:579,72
DA:581,0
DA:583,72
DA:585,9
DA:587,72
DA:589,36
DA:591,72
DA:593,0
DA:595,24
DA:596,52
DA:598,28
DA:600,112
DA:602,0
DA:604,112
DA:606,14
DA:607,14
DA:608,14
DA:609,14
DA:611,84
DA:613,42
DA:614,42
DA:618,0
DA:621,28
DA:622,28
DA:623,24
DA:624,2056
DA:626,121
DA:628,1572
DA:630,220
DA:632,440
DA:634,110
DA:635,220
DA:637,330
DA:639,39
DA:641,330
DA:643,45
DA:646,330
DA:648,39
DA:651,330
DA:652,250
DA:654,12
DA:659,330
DA:660,374
DA:662,77
DA:665,220
DA:669,814
DA:671,66
DA:673,264
DA:675,3
DA:677,9
DA:679,9
DA:682,9
DA:684,6
DA:687,9
DA:689,9
DA:692,9
DA:694,9
DA:697,9
DA:699,9
DA:702,3
DA:703,3
DA:704,252
DA:706,63
DA:708,189
DA:710,180
DA:713,189
DA:715,189
DA:718,189
DA:720,39
DA:723,63
DA:725,63
DA:726,63
DA:727,0
DA:729,0
DA:731,0
DA:733,0
DA:737,0
DA:740,66
DA:741,66
DA:743,330
DA:745,110
DA:746,110
DA:748,1132
DA:750,363
DA:752,81
DA:753,243
DA:755,363
DA:757,9
DA:758,27
DA:760,363
DA:762,242
DA:763,363
DA:766,605
DA:768,68
DA:769,340
DA:772,121
DA:774,648
DA:776,560
DA:778,360
DA:780,630
DA:782,90
DA:783,90
DA:784,180
DA:785,180
DA:795,90
DA:796,180
DA:798,180
DA:800,0
DA:801,90
DA:803,90
DA:804,180
DA:806,90
DA:808,45
DA:809,90
DA:811,180
DA:812,326
DA:813,90
DA:814,180
DA:815,210
DA:816,90
DA:817,270
DA:818,202
DA:819,90
DA:821,270
DA:823,43695
DA:825,43605
DA:827,43605
DA:829,43605
DA:832,43605
DA:834,43535
DA:837,43605
DA:838,43605
DA:839,43605
DA:840,43605
DA:841,43605
DA:842,90
DA:844,488
DA:846,122
DA:849,416
DA:850,538
DA:852,0
DA:853,244
DA:855,119
DA:857,476
DA:859,0
DA:862,119
DA:865,1709
DA:867,1590
DA:869,119
DA:870,2165
DA:872,2046
DA:873,2046
DA:874,2046
DA:875,2046
DA:876,2046
DA:878,850
DA:880,2046
DA:883,2046
DA:884,2046
DA:886,49
DA:888,2046
DA:890,1546
DA:891,1546
DA:893,0
DA:894,0
DA:895,0
DA:897,69
DA:900,69
DA:901,69
DA:903,1460
DA:904,1460
DA:905,1460
DA:907,1460
DA:909,1460
DA:911,2
DA:912,2
DA:913,2
DA:915,15
DA:916,15
DA:917,15
DA:919,0
DA:920,0
DA:921,0
DA:926,119
DA:929,119
DA:931,120
DA:933,120
DA:935,120
DA:936,120
DA:937,120
DA:938,120
DA:940,120
DA:942,1432
DA:944,208
DA:946,832
DA:948,0
DA:950,832
DA:952,0
DA:954,832
DA:956,0
DA:958,832
DA:960,0
DA:962,832
DA:964,2
DA:966,1
DA:968,828
DA:970,0
DA:972,828
DA:974,0
DA:976,828
DA:978,0
DA:980,828
DA:982,2
DA:984,18
DA:986,8
DA:987,6
DA:988,8
DA:991,820
DA:993,24
DA:994,36
DA:996,30
DA:998,36
DA:1000,0
DA:1002,12
DA:1003,12
DA:1004,772
DA:1006,0
DA:1008,772
DA:1010,0
DA:1012,772
DA:1014,51
DA:1017,144
DA:1019,72
DA:1021,180
DA:1023,116
DA:1024,29
DA:1025,50
DA:1027,29
DA:1029,29
DA:1031,29
DA:1033,29
DA:1037,0
DA:1039,29
DA:1040,29
DA:1041,21
DA:1043,7
DA:1045,14
DA:1046,7
DA:1047,42
DA:1049,21
DA:1051,21
DA:1054,21
DA:1056,0
DA:1059,7
DA:1060,7
DA:1062,144
DA:1065,712
DA:1067,12
DA:1068,36
DA:1070,33
DA:1072,36
DA:1074,33
DA:1076,36
DA:1078,33
DA:1080,36
DA:1082,33
DA:1084,36
DA:1086,33
DA:1088,12
DA:1089,12
DA:1090,12
DA:1091,664
DA:1093,102
DA:1095,204
DA:1096,204
DA:1097,204
DA:1098,204
DA:1099,204
DA:1100,204
DA:1102,102
DA:1104,256
DA:1106,25
DA:1107,75
DA:1109,75
DA:1111,75
DA:1113,57
DA:1115,75
DA:1117,63
DA:1119,75
DA:1121,51
DA:1123,75
DA:1125,39
DA:1127,125
DA:1129,25
DA:1131,25
DA:1132,25
DA:1133,25
DA:1134,156
DA:1136,18
DA:1138,54
DA:1139,54
DA:1140,54
DA:1141,54
DA:1142,36
DA:1143,58
DA:1144,36
DA:1145,58
DA:1147,18
DA:1148,18
DA:1149,18
DA:1150,18
DA:1151,18
DA:1152,18
DA:1156,52
DA:1158,34
DA:1160,136
DA:1162,16
DA:1164,72
DA:1166,18
DA:1168,0
DA:1170,0
DA:1172,0
DA:1174,0
DA:1176,0
DA:1178,0
DA:1180,0
DA:1182,0
DA:1186,0
DA:1189,34
DA:1190,34
DA:1192,72
DA:1194,90
DA:1195,36
DA:1197,54
DA:1199,0
DA:1200,0
DA:1201,0
DA:1202,0
DA:1204,0
DA:1207,0
DA:1208,0
DA:1209,0
DA:1210,0
DA:1212,0
DA:1217,54
DA:1219,24
DA:1222,54
DA:1224,26
DA:1233,18
DA:1234,18
DA:1235,84
DA:1237,0
DA:1238,0
DA:1239,0
DA:1240,0
DA:1242,0
DA:1244,0
DA:1246,0
DA:1248,0
DA:1249,0
DA:1252,0
DA:1254,0
DA:1257,0
DA:1258,0
DA:1261,84
DA:1263,0
DA:1264,0
DA:1265,0
DA:1266,0
DA:1268,0
DA:1270,0
DA:1272,0
DA:1274,0
DA:1275,0
DA:1278,0
DA:1280,0
DA:1283,0
DA:1284,0
DA:1287,84
DA:1289,0
DA:1291,84
DA:1293,0
DA:1295,84
DA:1297,0
DA:1299,84
DA:1301,0
DA:1303,84
DA:1305,15
DA:1307,12
DA:1308,3
DA:1309,3
DA:1311,72
DA:1313,14
DA:1315,16
DA:1317,4
DA:1318,4
DA:1319,4
DA:1322,0
DA:1325,208
DA:1326,208
DA:1328,360
DA:1330,120
DA:1332,84
DA:1333,14
DA:1335,14
DA:1336,14
DA:1337,14
DA:1338,14
DA:1339,14
DA:1341,14
DA:1343,14
DA:1345,84
DA:1346,14
DA:1348,14
DA:1349,14
DA:1350,14
DA:1351,14
DA:1353,14
DA:1354,14
DA:1355,14
DA:1357,120
DA:1359,18
DA:1360,3
DA:1362,3
DA:1363,3
DA:1364,3
DA:1365,3
DA:1366,3
DA:1368,3
DA:1369,3
DA:1371,120
DA:1373,25
DA:1378,125
DA:1380,14
DA:1382,18
DA:1384,9
DA:1386,5
DA:1387,5
DA:1389,240
DA:1390,156
DA:1392,199515
DA:1394,199515
DA:1397,147
DA:1399,147
DA:1401,147
DA:1402,935
DA:1404,42
DA:1405,240
DA:1408,156
DA:1412,42
DA:1413,92
DA:1416,6
DA:1417,2
DA:1418,2
DA:1421,160
DA:1422,40
DA:1423,80
DA:1425,40
DA:1431,40
DA:1433,120
DA:1435,21
DA:1438,120
DA:1440,0
DA:1443,120
DA:1445,0
DA:1448,200
DA:1450,175
DA:1453,120
DA:1455,105
DA:1458,120
DA:1463,147
DA:1466,2
DA:1469,580
DA:1471,145
DA:1472,145
DA:1473,145
DA:1474,290
DA:1475,145
DA:1476,145
DA:1477,145
DA:1479,435
DA:1481,0
DA:1484,290
DA:1485,290
DA:1487,435
DA:1489,32
DA:1490,64
DA:1492,32
DA:1499,32
DA:1502,145
DA:1503,145
DA:1504,145
DA:1506,1305
DA:1508,145
DA:1510,580
DA:1512,144
DA:1513,144
DA:1515,4
DA:1517,0
DA:1518,0
DA:1519,0
DA:1520,0
DA:1521,0
DA:1523,0
DA:1525,0
DA:1526,0
DA:1528,0
DA:1529,0
DA:1530,0
DA:1532,0
DA:1535,0
DA:1537,0
DA:1538,0
DA:1539,0
DA:1541,0
DA:1543,0
DA:1546,0
DA:1548,0
DA:1550,0
DA:1552,0
DA:1554,0
DA:1556,0
DA:1559,0
DA:1561,0
DA:1562,0
DA:1564,0
DA:1568,4
DA:1570,4
DA:1571,1
DA:1572,1
DA:1573,4
DA:1577,0
DA:1580,145
DA:1581,145
DA:1583,435
DA:1585,145
DA:1587,0
DA:1590,145
DA:1592,145
DA:1594,0
DA:1595,0
DA:1597,145
DA:1599,1
DA:1600,1
DA:1602,144
DA:1604,144
DA:1605,144
DA:1607,0
DA:1609,0
DA:1611,0
DA:1613,0
DA:1615,0
DA:1617,0
DA:1621,145
DA:1622,145
DA:1624,1164
DA:1626,5820
DA:1628,1164
DA:1629,1164
DA:1631,235
DA:1632,235
DA:1633,235
DA:1634,235
DA:1636,940
DA:1638,4283
DA:1640,3885
DA:1642,1554
DA:1643,1614
DA:1644,777
DA:1645,777
DA:1647,777
DA:1649,18
DA:1652,777
DA:1653,1554
DA:1654,1554
DA:1656,2331
DA:1657,777
DA:1659,705
DA:1660,235
DA:1662,235
DA:1663,1164
DA:1665,1
DA:1667,1
DA:1668,1
DA:1669,1
DA:1670,1
DA:1671,1
DA:1672,1
DA:1674,663
DA:1676,663
DA:1677,663
DA:1678,663
DA:1679,663
DA:1680,663
DA:1681,663
DA:1683,663
DA:1685,84
DA:1686,84
DA:1687,84
DA:1689,84
DA:1690,84
DA:1691,84
DA:1693,4
DA:1694,4
DA:1695,4
DA:1697,96
DA:1698,97
DA:1699,95
DA:1701,0
DA:1702,0
DA:1703,0
DA:1705,0
DA:1706,0
DA:1707,0
DA:1709,0
DA:1710,0
DA:1711,0
DA:1713,0
DA:1714,0
DA:1715,0
DA:1717,0
DA:1718,0
DA:1719,0
DA:1721,0
DA:1722,0
DA:1723,0
DA:1725,69
DA:1726,69
DA:1727,69
DA:1729,84
DA:1730,84
DA:1731,84
DA:1733,72
DA:1734,72
DA:1735,72
DA:1737,0
DA:1738,0
DA:1739,0
DA:1741,0
DA:1742,0
DA:1743,0
DA:1745,119
DA:1746,119
DA:1747,119
DA:1749,42
DA:1750,42
DA:1751,42
DA:1753,0
DA:1754,0
DA:1755,0
DA:1757,0
DA:1758,0
DA:1760,0
DA:1761,0
DA:1763,0
DA:1764,0
DA:1766,0
DA:1767,0
DA:1769,5
DA:1770,5
DA:1771,5
DA:1773,0
DA:1774,0
DA:1776,0
DA:1777,0
DA:1779,0
DA:1780,0
DA:1782,0
DA:1783,0
DA:1785,0
DA:1786,0
DA:1788,0
DA:1789,0
DA:1791,0
DA:1792,0
DA:1794,0
DA:1795,0
DA:1797,0
DA:1798,0
DA:1800,0
DA:1801,0
DA:1803,2
DA:1804,2
DA:1805,2
DA:1807,2
DA:1808,2
DA:1809,2
DA:1812,662
DA:1813,666
DA:1815,96
DA:1817,96
DA:1819,96
DA:1821,96
DA:1822,96
DA:1824,406
DA:1826,310
DA:1827,96
DA:1829,406
DA:1831,310
DA:1834,96
DA:1837,642
DA:1838,406
DA:1840,1164
DA:1842,1535
DA:1844,467
DA:1845,1068
DA:1846,96
DA:1848,289
DA:1850,407
DA:1854,96
DA:1856,96
DA:1857,192
DA:1858,96
DA:1859,96
DA:1860,96
DA:1862,384
DA:1864,4184
DA:1866,926
DA:1868,3704
DA:1870,474
DA:1871,237
DA:1872,237
DA:1873,237
DA:1874,2756
DA:1876,1378
DA:1877,689
DA:1878,689
DA:1879,689
DA:1882,0
DA:1885,926
DA:1886,926
DA:1888,288
DA:1889,96
DA:1891,84
DA:1895,336
DA:1897,2060
DA:1899,410
DA:1900,410
DA:1901,410
DA:1903,624
DA:1905,410
DA:1906,410
DA:1907,410
DA:1909,252
DA:1910,84
DA:1912,84
DA:1914,336
DA:1916,3324
DA:1918,726
DA:1919,726
DA:1920,726
DA:1921,726
DA:1922,726
DA:1924,252
DA:1925,84
DA:1927,4
DA:1929,16
DA:1931,36
DA:1933,4
DA:1934,8
DA:1935,8
DA:1936,8
DA:1937,4
DA:1938,4
DA:1939,4
DA:1941,12
DA:1942,4
DA:1944,96
DA:1946,192
DA:1948,96
DA:1949,3
DA:1951,3
DA:1952,99
DA:1954,3
DA:1956,1
DA:1959,95
DA:1961,475
DA:1962,285
DA:1964,2663
DA:1966,547
DA:1968,2188
DA:1970,77
DA:1972,231
DA:1974,231
DA:1977,231
DA:1979,198
DA:1982,231
DA:1984,198
DA:1987,231
DA:1989,198
DA:1992,77
DA:1994,77
DA:1995,77
DA:1996,1880
DA:1998,0
DA:2000,1880
DA:2002,351
DA:2004,39
DA:2006,234
DA:2007,156
DA:2008,273
DA:2010,39
DA:2012,156
DA:2014,117
DA:2017,39
DA:2018,39
DA:2019,39
DA:2021,39
DA:2022,39
DA:2023,39
DA:2025,1724
DA:2027,384
DA:2028,107
DA:2031,190
DA:2032,190
DA:2033,190
DA:2034,190
DA:2035,190
DA:2036,190
DA:2037,190
DA:2038,190
DA:2039,190
DA:2040,190
DA:2041,190
DA:2042,190
DA:2043,190
DA:2044,190
DA:2045,190
DA:2046,190
DA:2047,190
DA:2048,190
DA:2050,1344
DA:2052,14
DA:2054,1288
DA:2056,747
DA:2058,332
DA:2059,166
DA:2062,83
DA:2064,249
DA:2066,237
DA:2069,249
DA:2071,237
DA:2074,249
DA:2076,237
DA:2079,249
DA:2081,237
DA:2084,249
DA:2086,174
DA:2089,249
DA:2091,32
DA:2092,16
DA:2095,83
DA:2097,83
DA:2098,249
DA:2099,83
DA:2101,956
DA:2103,95
DA:2105,963
DA:2107,488
DA:2109,244
DA:2111,122
DA:2112,244
DA:2113,488
DA:2115,488
DA:2116,122
DA:2118,366
DA:2119,122
DA:2121,576
DA:2123,1
DA:2125,572
DA:2127,1
DA:2129,568
DA:2131,58
DA:2133,28
DA:2135,7
DA:2136,14
DA:2137,21
DA:2139,18
DA:2141,21
DA:2143,3
DA:2145,7
DA:2146,7
DA:2147,7
DA:2149,21
DA:2150,7
DA:2152,544
DA:2154,81
DA:2155,243
DA:2157,207
DA:2159,243
DA:2161,135
DA:2163,81
DA:2164,81
DA:2166,220
DA:2168,0
DA:2170,220
DA:2172,0
DA:2174,220
DA:2176,0
DA:2178,220
DA:2180,0
DA:2182,220
DA:2184,0
DA:2186,220
DA:2188,0
DA:2190,220
DA:2192,0
DA:2194,220
DA:2196,0
DA:2198,220
DA:2200,404
DA:2202,46
DA:2204,276
DA:2205,184
DA:2206,322
DA:2208,21
DA:2210,84
DA:2212,63
DA:2215,21
DA:2216,21
DA:2217,21
DA:2219,46
DA:2220,46
DA:2221,46
DA:2225,11
DA:2228,547
DA:2229,547
DA:2231,285
DA:2233,190
DA:2234,95
DA:2236,95
DA:2241,95
DA:2243,475
DA:2245,380
DA:2247,908
DA:2248,454
DA:2252,217
DA:2254,122
DA:2255,122
DA:2256,172
DA:2257,172
DA:2258,122
DA:2260,122
DA:2261,122
DA:2263,122
DA:2264,141
DA:2265,141
DA:2267,19
DA:2270,122
DA:2272,122
DA:2274,476
DA:2276,217
DA:2277,441
DA:2281,0
DA:2283,0
DA:2285,0
DA:2287,0
DA:2289,0
DA:2291,0
DA:2293,0
DA:2295,0
DA:2297,0
DA:2299,0
DA:2301,0
DA:2303,0
DA:2305,0
DA:2307,0
DA:2309,0
DA:2311,0
DA:2313,69
DA:2315,276
DA:2316,138
DA:2318,3253
DA:2320,3635
DA:2321,2181
DA:2322,727
DA:2323,2181
DA:2324,727
DA:2326,207
DA:2338,69
DA:2340,0
DA:2342,0
DA:2344,0
DA:2346,0
DA:2348,0
DA:2350,0
DA:2352,85
DA:2354,85
DA:2355,85
DA:2357,340
DA:2358,340
DA:2360,85
DA:2361,85
DA:2362,85
DA:2364,3309
DA:2366,721
DA:2368,2884
DA:2370,84
DA:2371,84
DA:2372,252
DA:2374,168
DA:2375,84
DA:2378,1148
DA:2380,182
DA:2381,182
DA:2383,728
DA:2385,182
DA:2387,568
DA:2389,0
DA:2392,568
DA:2394,0
DA:2397,182
DA:2399,0
DA:2402,4514
DA:2404,901
DA:2406,901
DA:2408,2703
DA:2410,777
DA:2413,901
DA:2415,1032
DA:2416,258
DA:2417,1032
DA:2420,901
DA:2422,901
DA:2423,901
DA:2424,901
DA:2426,728
DA:2435,84
DA:2436,2548
DA:2438,85
DA:2439,85
DA:2440,255
DA:2442,170
DA:2443,85
DA:2446,2241
DA:2448,454
DA:2449,454
DA:2451,2270
DA:2453,1816
DA:2456,453
DA:2458,1812
DA:2460,453
DA:2462,1359
DA:2464,900
DA:2466,4210
DA:2468,490
DA:2470,1960
DA:2472,285
DA:2474,820
DA:2476,205
DA:2480,0
DA:2483,490
DA:2484,490
DA:2487,453
DA:2488,453
DA:2489,0
DA:2491,0
DA:2493,0
DA:2495,0
DA:2499,0
DA:2502,0
DA:2504,0
DA:2505,0
DA:2506,0
DA:2507,0
DA:2508,0
DA:2509,0
DA:2511,0
DA:2512,0
DA:2514,0
DA:2515,0
DA:2518,0
DA:2521,453
DA:2522,453
DA:2524,1816
DA:2533,85
DA:2534,2208
DA:2536,84
DA:2537,84
DA:2538,252
DA:2540,168
DA:2541,84
DA:2544,420
DA:2546,49
DA:2549,2464
DA:2551,511
DA:2552,511
DA:2554,2044
DA:2556,13139
DA:2558,2646
DA:2560,10584
DA:2562,1530
DA:2564,8544
DA:2566,1533
DA:2568,6500
DA:2570,453
DA:2572,4688
DA:2574,1308
DA:2576,2944
DA:2578,1182
DA:2580,1368
DA:2582,342
DA:2584,27
DA:2588,105
DA:2591,912
DA:2593,54
DA:2595,27
DA:2597,9
DA:2599,18
DA:2601,18
DA:2603,27
DA:2604,804
DA:2606,60
DA:2608,0
DA:2612,20
DA:2615,724
DA:2617,0
DA:2619,0
DA:2623,0
DA:2626,724
DA:2628,0
DA:2630,0
DA:2634,0
DA:2637,724
DA:2639,135
DA:2641,0
DA:2645,45
DA:2648,544
DA:2650,198
DA:2652,132
DA:2656,22
DA:2659,280
DA:2661,210
DA:2663,210
DA:2668,0
DA:2671,2646
DA:2672,2646
DA:2674,2044
DA:2683,84
DA:2684,1872
DA:2686,17
DA:2687,17
DA:2688,51
DA:2690,34
DA:2691,17
DA:2694,193
DA:2696,108
DA:2698,54
DA:2700,27
DA:2702,0
DA:2705,27
DA:2707,27
DA:2708,81
DA:2710,81
DA:2712,27
DA:2713,27
DA:2721,17
DA:2722,1804
DA:2724,83
DA:2725,249
DA:2727,166
DA:2728,83
DA:2731,2915
DA:2733,625
DA:2735,2500
DA:2737,1250
DA:2738,1250
DA:2740,1875
DA:2742,1539
DA:2745,1875
DA:2747,9
DA:2750,1875
DA:2752,1281
DA:2755,2500
DA:2764,83
DA:2765,2208
DA:2766,2608
DA:2768,168
DA:2769,168
DA:2770,504
DA:2772,336
DA:2773,168
DA:2775,84
DA:2779,84
DA:2783,1381
DA:2785,4852
DA:2787,1213
DA:2788,1213
DA:2789,1213
DA:2791,3639
DA:2793,1917
DA:2795,2426
DA:2796,4822
DA:2797,1213
DA:2799,3639
DA:2801,435
DA:2803,2426
DA:2804,4806
DA:2805,1213
DA:2807,3639
DA:2809,1479
DA:2811,2426
DA:2812,4852
DA:2813,1213
DA:2815,3639
DA:2817,1524
DA:2819,2426
DA:2820,4838
DA:2821,1213
DA:2823,2426
DA:2824,1213
DA:2826,2286
DA:2829,2426
DA:2830,1213
DA:2832,1782
DA:2835,2426
DA:2836,2432
DA:2837,2426
DA:2838,2432
DA:2840,3639
DA:2842,1233
DA:2845,8049
DA:2847,496
DA:2849,1984
DA:2851,474
DA:2852,474
DA:2854,1422
DA:2856,282
DA:2859,1422
DA:2861,123
DA:2864,1422
DA:2866,120
DA:2869,1422
DA:2871,93
DA:2874,1422
DA:2876,1197
DA:2879,1422
DA:2881,342
DA:2884,1422
DA:2886,3
DA:2889,88
DA:2891,22
DA:2892,22
DA:2894,66
DA:2895,110
DA:2896,88
DA:2897,110
DA:2901,0
DA:2904,496
DA:2905,496
DA:2907,4852
DA:2917,168
DA:2918,800
DA:2920,69
DA:2922,69
DA:2924,0
DA:2925,0
DA:2926,0
DA:2927,0
DA:2928,0
DA:2941,524
DA:2943,142
DA:2944,71
DA:2946,71
DA:2948,355
DA:2950,0
DA:2951,0
DA:2952,0
DA:2953,0
DA:2954,0
DA:2967,240
DA:2969,577
DA:2971,292
DA:2973,146
DA:2975,73
DA:2977,228
DA:2978,171
DA:2979,228
DA:2983,64
DA:2986,219
DA:2987,73
DA:2989,12
DA:2991,27
DA:2993,3
DA:2995,12
DA:2997,93
DA:2999,360
DA:3000,90
DA:3001,360
DA:3004,0
DA:3006,0
DA:3010,0
DA:3013,3
DA:3014,3
DA:3018,0
DA:3021,721
DA:3022,721
DA:3024,255
DA:3026,85
DA:3028,865
DA:3030,780
DA:3031,19911
DA:3032,780
DA:3034,780
DA:3036,625
DA:3038,625
DA:3039,625
DA:3040,625
DA:3041,625
DA:3042,625
DA:3043,625
DA:3044,625
DA:3045,625
DA:3047,625
DA:3048,625
DA:3049,625
DA:3050,625
DA:3051,625
DA:3052,625
DA:3053,625
DA:3054,625
DA:3055,625
DA:3056,625
DA:3059,85
DA:3061,518
DA:3063,433
DA:3064,433
DA:3066,433
DA:3067,433
DA:3069,433
DA:3071,433
DA:3072,433
DA:3073,433
DA:3074,433
DA:3075,433
DA:3076,433
DA:3077,433
DA:3078,433
DA:3079,433
DA:3080,433
DA:3081,433
DA:3082,433
DA:3083,433
DA:3084,433
DA:3086,433
DA:3088,255
DA:3090,72
DA:3092,216
DA:3093,72
DA:3094,72
DA:3095,72
DA:3096,360
DA:3098,72
DA:3100,72
DA:3102,10
DA:3103,4
DA:3106,146
DA:3108,0
DA:3110,0
DA:3114,14
DA:3116,14
DA:3118,14
DA:3120,14
DA:3122,70
DA:3124,42
DA:3125,56
DA:3127,126
DA:3129,56
DA:3130,14
DA:3131,56
DA:3134,42
DA:3135,56
DA:3137,182
DA:3139,140
DA:3141,28
DA:3142,56
DA:3143,56
DA:3145,112
DA:3147,140
DA:3149,112
DA:3151,112
DA:3153,0
DA:3154,0
DA:3155,0
DA:3158,84
DA:3159,28
DA:3161,56
DA:3162,42
DA:3163,14
DA:3165,3
DA:3167,3
DA:3169,3
DA:3171,5
DA:3173,2
DA:3174,2
DA:3176,2
DA:3178,2
DA:3180,2
DA:3181,2
DA:3182,3
DA:3184,3
DA:3185,3
DA:3189,0
DA:3191,0
DA:3193,0
DA:3195,0
DA:3197,46
DA:3199,46
DA:3200,46
DA:3201,46
DA:3202,46
DA:3203,46
DA:3205,7
DA:3207,7
DA:3208,7
DA:3209,7
DA:3210,7
DA:3211,7
DA:3213,5169
DA:3215,5169
DA:3217,7705
DA:3219,2536
DA:3220,2536
DA:3223,5169
DA:3224,0
DA:3226,973
DA:3228,973
DA:3230,973
DA:3232,381
DA:3233,381
DA:3235,3413
DA:3237,176
DA:3239,1524
DA:3241,71
DA:3242,71
DA:3250,71
DA:3253,1524
DA:3255,0
DA:3257,1524
DA:3259,268
DA:3260,268
DA:3262,134
DA:3264,377
DA:3266,243
DA:3268,710
DA:3271,243
DA:3273,243
DA:3275,426
DA:3276,142
DA:3280,134
DA:3281,134
DA:3283,381
DA:3284,381
DA:3285,381
DA:3287,973
DA:3288,0
DA:3290,392
DA:3292,2943
DA:3294,2551
DA:3296,275
DA:3299,392
DA:3301,207
DA:3303,414
DA:3305,207
DA:3307,130
DA:3310,207
DA:3312,1491
DA:3314,1491
DA:3315,1491
DA:3317,265
DA:3319,265
DA:3321,197
DA:3323,265
DA:3325,2027
DA:3327,2027
DA:3329,222
DA:3331,2027
DA:3333,475
DA:3337,475
DA:3338,475
DA:3341,526
DA:3343,51
DA:3344,51
DA:3345,51
DA:3346,51
DA:3347,51
DA:3348,475
DA:3350,23920
DA:3352,23920
DA:3353,23920
DA:3356,11057
DA:3358,11057
DA:3359,11057
DA:3360,11057
DA:3362,33171
DA:3363,11057
DA:3365,22114
DA:3366,11057
DA:3368,6760
DA:3370,6760
DA:3371,6760
DA:3372,6760
DA:3374,20280
DA:3375,6760
DA:3376,6760
DA:3378,17694
DA:3380,17694
DA:3381,17694
DA:3382,17694
DA:3383,17694
DA:3385,11
DA:3390,11
DA:3392,11
DA:3394,755
DA:3396,755
DA:3397,755
DA:3399,1567
DA:3401,812
DA:3402,2436
DA:3403,812
DA:3404,812
DA:3405,812
DA:3406,812
DA:3407,812
DA:3409,1624
DA:3411,725
DA:3413,174
DA:3415,51
DA:3416,51
DA:3418,357
DA:3420,102
DA:3421,102
DA:3423,204
DA:3425,51
DA:3427,601
DA:3429,224
DA:3431,448
DA:3433,153
DA:3435,346
DA:3437,153
DA:3439,244
DA:3441,51
DA:3443,142
DA:3445,42
DA:3447,114
DA:3449,0
DA:3451,114
DA:3453,39
DA:3455,88
DA:3457,108
DA:3458,36
DA:3461,16
DA:3463,0
DA:3464,0
DA:3467,16
DA:3469,18
DA:3471,0
DA:3475,6
DA:3478,4
DA:3480,6
DA:3481,2
DA:3486,0
DA:3489,224
DA:3490,224
DA:3491,224
DA:3493,102
DA:3495,51
DA:3499,0
DA:3502,102
DA:3503,102
DA:3504,102
DA:3505,102
DA:3507,51
DA:3508,51
DA:3509,72
DA:3511,2
DA:3512,4
DA:3513,4
DA:3515,4
DA:3516,2
DA:3518,2
DA:3520,2
DA:3523,2
DA:3525,2
DA:3526,2
DA:3527,68
DA:3529,68
DA:3530,102
DA:3532,96
DA:3534,102
DA:3536,0
DA:3538,34
DA:3539,34
DA:3542,0
DA:3545,812
DA:3546,812
DA:3547,812
DA:3549,755
DA:3550,0
DA:3552,1342
DA:3554,1342
DA:3556,4034
DA:3558,4
DA:3559,4
DA:3562,4014
DA:3564,1287
DA:3566,2727
DA:3568,1752
DA:3570,975
DA:3572,975
DA:3575,4014
DA:3577,540
DA:3580,1338
DA:3581,0
DA:3583,2059
DA:3585,2059
LF:1846
LH:1548
end_of_record
TN:
SF:/root/project/source/detail/serialization/xlsx_producer.cpp
FNL:0,1039,1043
FNA:0,0,_ZN4xlnt6detail13xlsx_producer38write_shared_workbook_revision_headersERKNS_12relationshipE
FNL:1,1045,1049
FNA:1,0,_ZN4xlnt6detail13xlsx_producer21write_shared_workbookERKNS_12relationshipE
FNL:2,105,109
FNA:2,1,_ZN4xlnt6detail13xlsx_producer4openERSo
FNL:3,1051,1055
FNA:3,0,_ZN4xlnt6detail13xlsx_producer31write_shared_workbook_user_dataERKNS_12relationshipE
FNL:4,1057,1140
FNA:4,206,_ZN4xlnt6detail13xlsx_producer10write_fontERKNS_4fontE
FNL:5,111,117
FNA:5,2,_ZN4xlnt6detail13xlsx_producer8add_cellERKNS_14cell_referenceE
FNL:6,1142,1218
FNA:6,227,_ZN4xlnt6detail13xlsx_producer10write_fillERKNS_4fillE
FNL:7,119,123
FNA:7,1,_ZN4xlnt6detail13xlsx_producer13add_worksheetERKNSt7__cxx1112basic_stringIcSt11char_traitsIcESaIcEEE
FNL:8,1220,1263
FNA:8,88,_ZN4xlnt6detail13xlsx_producer12write_borderERKNS_6borderE
FNL:9,1265,1781
FNA:9,45,_ZN4xlnt6detail13xlsx_producer12write_stylesERKNS_12relationshipE
FNL:10,127,171
FNA:10,47,_ZN4xlnt6detail13xlsx_producer16populate_archiveEb
FNL:11,1277,1284
FNA:11,45,_ZZN4xlnt6detail13xlsx_producer12write_stylesERKNS_12relationshipEENKUlRKNSt7__cxx1112basic_stringIcSt11char_traitsIcESaIcEEEE_clESC_
FNL:12,1300,1300
FNA:12,21,_ZZN4xlnt6detail13xlsx_producer12write_stylesERKNS_12relationshipEENKUlRKNS_13number_formatEE_clES7_
FNL:13,1331,1336
FNA:13,157,_ZZN4xlnt6detail13xlsx_producer12write_stylesERKNS_12relationshipEENKUlRKNS_4fontEE_clES7_
FNL:14,173,181
FNA:14,618,_ZN4xlnt6detail13xlsx_producer8end_partEv
FNL:15,1783,2252
FNA:15,44,_ZN4xlnt6detail13xlsx_producer11write_themeERKNS_12relationshipE
FNL:16,183,192
FNA:16,488,_ZN4xlnt6detail13xlsx_producer10begin_partERKNS_4pathE
FNL:17,196,223
FNA:17,47,_ZN4xlnt6detail13xlsx_producer19write_content_typesEv
FNL:18,225,365
FNA:18,651,_ZN4xlnt6detail13xlsx_producer14write_propertyERKNSt7__cxx1112basic_stringIcSt11char_traitsIcESaIcEEERKNS_7variantES9_bm
FNL:19,2254,2258
FNA:19,0,_ZN4xlnt6detail13xlsx_producer27write_volatile_dependenciesERKNS_12relationshipE
FNL:20,2260,3165
FNA:20,56,_ZN4xlnt6detail13xlsx_producer15write_worksheetERKNS_12relationshipE
FNL:21,2271,2273
FNA:21,67,_ZZN4xlnt6detail13xlsx_producer15write_worksheetERKNS_12relationshipEENKUlRKSt4pairINSt7__cxx1112basic_stringIcSt11char_traitsIcESaIcEEESB_EE_clESE_
FNL:22,2281,2300
FNA:22,56,_ZZN4xlnt6detail13xlsx_producer15write_worksheetERKNS_12relationshipEENKUlRKNSt7__cxx1112basic_stringIcSt11char_traitsIcESaIcEEEE_clESC_
FNL:23,3141,3141
FNA:23,49,_ZZN4xlnt6detail13xlsx_producer15write_worksheetERKNS_12relationshipEENKUlRKNS_4pathERKNSt7__cxx1112basic_stringIcSt11char_traitsIcESaIcEEEE_clES7_SF_
FNL:24,3169,3226
FNA:24,8,_ZN4xlnt6detail13xlsx_producer14write_commentsERKNS_12relationshipENS_9worksheetERKSt6vectorINS_14cell_referenceESaIS7_EE
FNL:25,3228,3363
FNA:25,8,_ZN4xlnt6detail13xlsx_producer18write_vml_drawingsERKNS_12relationshipENS_9worksheetERKSt6vectorINS_14cell_referenceESaIS7_EE
FNL:26,3365,3395
FNA:26,2,_ZN4xlnt6detail13xlsx_producer14write_drawingsERKNS_12relationshipENS_9worksheetE
FNL:27,3399,3401
FNA:27,0,_ZN4xlnt6detail13xlsx_producer21write_custom_propertyEv
FNL:28,3403,3405
FNA:28,0,_ZN4xlnt6detail13xlsx_producer19write_unknown_partsEv
FNL:29,3407,3409
FNA:29,0,_ZN4xlnt6detail13xlsx_producer27write_unknown_relationshipsEv
FNL:30,3411,3418
FNA:30,34,_ZN4xlnt6detail13xlsx_producer11write_imageERKNS_4pathE
FNL:31,3420,3427
FNA:31,2,_ZN4xlnt6detail13xlsx_producer12write_binaryERKNS_4pathE
FNL:32,3429,3432
FNA:32,2249,_ZNK4xlnt6detail13xlsx_producer10write_boolB5cxx11Eb
FNL:33,3434,3472
FNA:33,107,_ZN4xlnt6detail13xlsx_producer19write_relationshipsERKSt6vectorINS_12relationshipESaIS3_EERKNS_4pathE
FNL:34,3454,3454
FNA:34,984,_ZZN4xlnt6detail13xlsx_producer19write_relationshipsERKSt6vectorINS_12relationshipESaIS3_EERKNS_4pathEENKUlRKS3_E_clESC_
FNL:35,3474,3499
FNA:35,602,_ZN4xlnt6detail13xlsx_producer11write_colorERKNS_5colorE
FNL:36,3501,3504
FNA:36,24,_ZN4xlnt6detail13xlsx_producer19write_start_elementERKNSt7__cxx1112basic_stringIcSt11char_traitsIcESaIcEEE
FNL:37,3506,3509
FNA:37,41577,_ZN4xlnt6detail13xlsx_producer19write_start_elementERKNSt7__cxx1112basic_stringIcSt11char_traitsIcESaIcEEES9_
FNL:38,3511,3514
FNA:38,24,_ZN4xlnt6detail13xlsx_producer17write_end_elementERKNSt7__cxx1112basic_stringIcSt11char_traitsIcESaIcEEE
FNL:39,3516,3519
FNA:39,41577,_ZN4xlnt6detail13xlsx_producer17write_end_elementERKNSt7__cxx1112basic_stringIcSt11char_traitsIcESaIcEEES9_
FNL:40,3521,3524
FNA:40,1098,_ZN4xlnt6detail13xlsx_producer15write_namespaceERKNSt7__cxx1112basic_stringIcSt11char_traitsIcESaIcEEES9_
FNL:41,367,394
FNA:41,44,_ZN4xlnt6detail13xlsx_producer21write_core_propertiesERKNS_12relationshipE
FNL:42,396,414
FNA:42,44,_ZN4xlnt6detail13xlsx_producer25write_extended_propertiesERKNS_12relationshipE
FNL:43,416,431
FNA:43,3,_ZN4xlnt6detail13xlsx_producer23write_custom_propertiesERKNS_12relationshipE
FNL:44,435,852
FNA:44,47,_ZN4xlnt6detail13xlsx_producer14write_workbookERKNS_12relationshipE
FNL:45,53,78
FNA:45,404,_ZN12_GLOBAL__N_123core_property_namespaceEN4xlnt13core_propertyE
FNL:46,85,91
FNA:46,47,_ZN4xlnt6detail13xlsx_producerC2ERKNS_8workbookE
FNL:47,856,860
FNA:47,0,_ZN4xlnt6detail13xlsx_producer16write_chartsheetERKNS_12relationshipE
FNL:48,862,866
FNA:48,0,_ZN4xlnt6detail13xlsx_producer17write_connectionsERKNS_12relationshipE
FNL:49,868,872
FNA:49,0,_ZN4xlnt6detail13xlsx_producer25write_custom_xml_mappingsERKNS_12relationshipE
FNL:50,874,878
FNA:50,0,_ZN4xlnt6detail13xlsx_producer17write_dialogsheetERKNS_12relationshipE
FNL:51,880,884
FNA:51,0,_ZN4xlnt6detail13xlsx_producer34write_external_workbook_referencesERKNS_12relationshipE
FNL:52,886,890
FNA:52,0,_ZN4xlnt6detail13xlsx_producer17write_pivot_tableERKNS_12relationshipE
FNL:53,892,991
FNA:53,452,_ZN4xlnt6detail13xlsx_producer15write_rich_textERKNSt7__cxx1112basic_stringIcSt11char_traitsIcESaIcEEERKNS_9rich_textE
FNL:54,93,97
FNA:54,47,_ZN4xlnt6detail13xlsx_producerD2Ev
FNL:55,99,103
FNA:55,46,_ZN4xlnt6detail13xlsx_producer5writeERSo
FNL:56,993,1037
FNA:56,33,_ZN4xlnt6detail13xlsx_producer25write_shared_string_tableERKNS_12relationshipE
FNF:57
FNH:44
BRDA:58,0,0,326
BRDA:58,0,1,78
BRDA:59,0,0,86
BRDA:59,0,1,240
BRDA:61,0,0,164
BRDA:61,e0,1,0
BRDA:61,0,2,164
BRDA:61,e0,3,0
BRDA:62,0,0,164
BRDA:62,e0,1,0
BRDA:62,0,2,164
BRDA:62,e0,3,0
BRDA:62,0,4,328
BRDA:62,0,5,164
BRDA:62,0,6,0
BRDA:62,0,7,0
BRDA:64,0,0,228
BRDA:64,0,1,12
BRDA:65,0,0,216
BRDA:65,0,1,12
BRDA:66,0,0,134
BRDA:66,0,1,82
BRDA:67,0,0,12
BRDA:67,0,1,122
BRDA:69,0,0,118
BRDA:69,e0,1,0
BRDA:69,0,2,118
BRDA:69,e0,3,0
BRDA:69,0,4,118
BRDA:69,e0,5,0
BRDA:69,0,6,118
BRDA:69,0,7,118
BRDA:69,0,8,0
BRDA:69,0,9,0
BRDA:71,0,0,10
BRDA:71,0,1,112
BRDA:73,0,0,10
BRDA:73,e0,1,0
BRDA:73,0,2,10
BRDA:73,e0,3,0
BRDA:74,0,0,10
BRDA:74,e0,1,0
BRDA:74,0,2,10
BRDA:74,e0,3,0
BRDA:74,0,4,20
BRDA:74,0,5,10
BRDA:74,0,6,0
BRDA:74,0,7,0
BRDA:77,0,0,112
BRDA:77,e0,1,0
BRDA:77,0,2,112
BRDA:77,e0,3,0
BRDA:77,0,4,112
BRDA:77,e0,5,0
BRDA:77,0,6,112
BRDA:77,0,7,112
BRDA:77,0,8,0
BRDA:77,0,9,0
BRDA:78,0,0,164
BRDA:78,e0,1,0
BRDA:78,0,2,164
BRDA:78,e0,3,0
BRDA:78,0,4,164
BRDA:78,e0,5,0
BRDA:78,0,6,118
BRDA:78,e0,7,0
BRDA:78,0,8,10
BRDA:78,e0,9,0
BRDA:78,0,10,10
BRDA:78,e0,11,0
BRDA:78,0,12,10
BRDA:78,e0,13,0
BRDA:78,0,14,112
BRDA:78,e0,15,0
BRDA:78,0,16,0
BRDA:78,0,17,0
BRDA:78,0,18,0
BRDA:78,0,19,0
BRDA:78,0,20,0
BRDA:78,0,21,0
BRDA:78,0,22,0
BRDA:78,0,23,0
BRDA:78,0,24,0
BRDA:78,0,25,0
BRDA:78,0,26,0
BRDA:78,0,27,0
BRDA:78,0,28,0
BRDA:78,0,29,0
BRDA:78,0,30,0
BRDA:78,0,31,0
BRDA:87,0,0,47
BRDA:87,e0,1,0
BRDA:101,0,0,46
BRDA:101,e0,1,0
BRDA:101,0,2,0
BRDA:101,0,3,0
BRDA:107,0,0,1
BRDA:107,e0,1,0
BRDA:107,0,2,0
BRDA:107,0,3,0
BRDA:116,0,0,2
BRDA:116,e0,1,0
BRDA:131,0,0,47
BRDA:131,e0,1,0
BRDA:133,0,0,47
BRDA:133,e0,1,0
BRDA:133,0,2,47
BRDA:133,e0,3,0
BRDA:133,0,4,47
BRDA:133,e0,5,0
BRDA:133,0,6,47
BRDA:133,e0,7,0
BRDA:134,0,0,47
BRDA:134,e0,1,0
BRDA:134,0,2,47
BRDA:134,e0,3,0
BRDA:134,0,4,47
BRDA:134,e0,5,0
BRDA:136,0,0,170
BRDA:136,0,1,47
BRDA:139,0,0,170
BRDA:139,e0,1,0
BRDA:139,0,2,32
BRDA:139,0,3,138
BRDA:141,0,0,32
BRDA:141,e0,1,0
BRDA:141,0,2,32
BRDA:141,e0,3,0
BRDA:141,0,4,32
BRDA:141,e0,5,0
BRDA:145,0,0,138
BRDA:145,e0,1,0
BRDA:145,0,2,138
BRDA:145,e0,3,0
BRDA:145,0,4,138
BRDA:145,e0,5,0
BRDA:147,0,0,138
BRDA:147,e0,1,0
BRDA:147,0,2,44
BRDA:147,0,3,94
BRDA:149,0,0,44
BRDA:149,e0,1,0
BRDA:151,0,0,94
BRDA:151,e0,1,0
BRDA:151,0,2,44
BRDA:151,0,3,50
BRDA:153,0,0,44
BRDA:153,e0,1,0
BRDA:155,0,0,50
BRDA:155,e0,1,0
BRDA:155,0,2,3
BRDA:155,0,3,47
BRDA:157,0,0,3
BRDA:157,e0,1,0
BRDA:159,0,0,47
BRDA:159,e0,1,0
BRDA:159,0,2,47
BRDA:159,0,3,0
BRDA:161,0,0,47
BRDA:161,e0,1,0
BRDA:175,0,0,488
BRDA:175,0,1,130
BRDA:186,0,0,488
BRDA:186,e0,1,0
BRDA:189,0,0,488
BRDA:189,e0,1,0
BRDA:189,0,2,488
BRDA:189,e0,3,0
BRDA:189,0,4,0
BRDA:189,0,5,0
BRDA:190,0,0,488
BRDA:190,e0,1,0
BRDA:190,0,2,488
BRDA:190,e0,3,0
BRDA:190,0,4,488
BRDA:190,e0,5,0
BRDA:190,0,6,488
BRDA:190,e0,7,0
BRDA:198,0,0,47
BRDA:198,e0,1,0
BRDA:198,0,2,47
BRDA:198,e0,3,0
BRDA:199,0,0,47
BRDA:199,e0,1,0
BRDA:203,0,0,47
BRDA:203,e0,1,0
BRDA:203,0,2,47
BRDA:203,e0,3,0
BRDA:203,0,4,47
BRDA:203,e0,5,0
BRDA:204,0,0,47
BRDA:204,e0,1,0
BRDA:204,0,2,47
BRDA:204,e0,3,0
BRDA:204,0,4,47
BRDA:204,e0,5,0
BRDA:206,0,0,47
BRDA:206,e0,1,0
BRDA:206,0,2,47
BRDA:206,e0,3,0
BRDA:206,0,4,138
BRDA:206,0,5,47
BRDA:208,0,0,138
BRDA:208,e0,1,0
BRDA:208,0,2,138
BRDA:208,e0,3,0
BRDA:208,0,4,138
BRDA:208,e0,5,0
BRDA:209,0,0,138
BRDA:209,e0,1,0
BRDA:209,0,2,138
BRDA:209,e0,3,0
BRDA:209,0,4,138
BRDA:209,e0,5,0
BRDA:210,0,0,138
BRDA:210,e0,1,0
BRDA:210,0,2,138
BRDA:210,e0,3,0
BRDA:210,0,4,138
BRDA:210,e0,5,0
BRDA:210,0,6,138
BRDA:210,e0,7,0
BRDA:211,0,0,138
BRDA:211,e0,1,0
BRDA:211,0,2,138
BRDA:211,e0,3,0
BRDA:211,0,4,138
BRDA:211,e0,5,0
BRDA:214,0,0,47
BRDA:214,e0,1,0
BRDA:214,0,2,47
BRDA:214,e0,3,0
BRDA:214,0,4,336
BRDA:214,0,5,47
BRDA:216,0,0,336
BRDA:216,e0,1,0
BRDA:216,0,2,336
BRDA:216,e0,3,0
BRDA:216,0,4,336
BRDA:216,e0,5,0
BRDA:217,0,0,336
BRDA:217,e0,1,0
BRDA:217,0,2,336
BRDA:217,e0,3,0
BRDA:217,0,4,336
BRDA:217,e0,5,0
BRDA:217,0,6,336
BRDA:217,e0,7,0
BRDA:217,0,8,336
BRDA:217,e0,9,0
BRDA:217,0,10,336
BRDA:217,e0,11,0
BRDA:217,0,12,336
BRDA:217,e0,13,0
BRDA:218,0,0,336
BRDA:218,e0,1,0
BRDA:218,0,2,336
BRDA:218,e0,3,0
BRDA:218,0,4,336
BRDA:218,e0,5,0
BRDA:218,0,6,336
BRDA:218,e0,7,0
BRDA:219,0,0,336
BRDA:219,e0,1,0
BRDA:219,0,2,336
BRDA:219,e0,3,0
BRDA:219,0,4,336
BRDA:219,e0,5,0
BRDA:222,0,0,47
BRDA:222,e0,1,0
BRDA:222,0,2,47
BRDA:222,e0,3,0
BRDA:222,0,4,47
BRDA:222,e0,5,0
BRDA:228,0,0,4
BRDA:228,0,1,647
BRDA:230,0,0,4
BRDA:230,e0,1,0
BRDA:230,0,2,4
BRDA:230,e0,3,0
BRDA:231,0,0,4
BRDA:231,e0,1,0
BRDA:231,0,2,4
BRDA:231,e0,3,0
BRDA:231,0,4,4
BRDA:231,e0,5,0
BRDA:238,0,0,0
BRDA:238,0,1,66
BRDA:238,0,2,26
BRDA:238,0,3,449
BRDA:238,0,4,25
BRDA:238,0,5,85
BRDA:238,0,6,0
BRDA:245,0,0,0
BRDA:245,0,1,66
BRDA:247,0,0,-
BRDA:247,e0,1,-
BRDA:247,0,2,-
BRDA:247,e0,3,-
BRDA:248,0,0,-
BRDA:248,e0,1,-
BRDA:248,0,2,-
BRDA:248,e0,3,-
BRDA:249,0,0,-
BRDA:249,e0,1,-
BRDA:249,0,2,-
BRDA:249,e0,3,-
BRDA:249,0,4,-
BRDA:249,e0,5,-
BRDA:249,0,6,-
BRDA:249,e0,7,-
BRDA:252,0,0,3
BRDA:252,0,1,63
BRDA:254,0,0,0
BRDA:254,0,1,66
BRDA:256,0,0,-
BRDA:256,e0,1,-
BRDA:256,0,2,-
BRDA:256,e0,3,-
BRDA:256,0,4,-
BRDA:256,e0,5,-
BRDA:256,0,6,-
BRDA:256,e0,7,-
BRDA:263,0,0,0
BRDA:263,0,1,26
BRDA:265,0,0,-
BRDA:265,e0,1,-
BRDA:265,0,2,-
BRDA:265,e0,3,-
BRDA:266,0,0,-
BRDA:266,e0,1,-
BRDA:266,0,2,-
BRDA:266,e0,3,-
BRDA:267,0,0,-
BRDA:267,e0,1,-
BRDA:267,0,2,-
BRDA:267,e0,3,-
BRDA:267,0,4,-
BRDA:267,e0,5,-
BRDA:267,0,6,-
BRDA:267,e0,7,-
BRDA:272,0,0,0
BRDA:272,0,1,26
BRDA:274,0,0,-
BRDA:274,e0,1,-
BRDA:274,0,2,-
BRDA:274,e0,3,-
BRDA:274,0,4,-
BRDA:274,e0,5,-
BRDA:274,0,6,-
BRDA:274,e0,7,-
BRDA:281,0,0,3
BRDA:281,0,1,446
BRDA:283,0,0,3
BRDA:283,e0,1,0
BRDA:283,0,2,3
BRDA:283,e0,3,0
BRDA:284,0,0,3
BRDA:284,e0,1,0
BRDA:284,0,2,3
BRDA:284,e0,3,0
BRDA:285,0,0,3
BRDA:285,e0,1,0
BRDA:285,0,2,3
BRDA:285,e0,3,0
BRDA:285,0,4,3
BRDA:285,e0,5,0
BRDA:285,0,6,3
BRDA:285,e0,7,0
BRDA:288,0,0,446
BRDA:288,0,1,3
BRDA:288,0,2,446
BRDA:288,e0,3,0
BRDA:288,0,4,446
BRDA:288,e0,5,0
BRDA:288,0,6,58
BRDA:288,0,7,388
BRDA:288,0,8,58
BRDA:288,e0,9,0
BRDA:288,0,10,31
BRDA:288,0,11,27
BRDA:288,0,12,31
BRDA:288,e0,13,0
BRDA:288,0,14,31
BRDA:288,0,15,0
BRDA:288,0,16,446
BRDA:288,0,17,3
BRDA:288,0,18,446
BRDA:288,0,19,3
BRDA:288,0,20,58
BRDA:288,0,21,391
BRDA:288,0,22,0
BRDA:288,0,23,0
BRDA:288,0,24,0
BRDA:288,0,25,0
BRDA:290,0,0,58
BRDA:290,e0,1,0
BRDA:290,0,2,58
BRDA:290,e0,3,0
BRDA:290,0,4,58
BRDA:290,e0,5,0
BRDA:290,0,6,58
BRDA:290,e0,7,0
BRDA:290,0,8,58
BRDA:290,e0,9,0
BRDA:293,0,0,449
BRDA:293,e0,1,0
BRDA:293,0,2,449
BRDA:293,e0,3,0
BRDA:295,0,0,3
BRDA:295,0,1,446
BRDA:297,0,0,3
BRDA:297,e0,1,0
BRDA:297,0,2,3
BRDA:297,e0,3,0
BRDA:297,0,4,3
BRDA:297,e0,5,0
BRDA:297,0,6,3
BRDA:297,e0,7,0
BRDA:304,0,0,25
BRDA:304,e0,1,0
BRDA:304,0,2,25
BRDA:304,e0,3,0
BRDA:304,0,4,25
BRDA:304,e0,5,0
BRDA:304,0,6,25
BRDA:304,e0,7,0
BRDA:304,0,8,25
BRDA:304,e0,9,0
BRDA:305,0,0,25
BRDA:305,e0,1,0
BRDA:305,0,2,25
BRDA:305,e0,3,0
BRDA:305,0,4,25
BRDA:305,e0,5,0
BRDA:311,0,0,85
BRDA:311,e0,1,0
BRDA:311,0,2,85
BRDA:311,e0,3,0
BRDA:311,0,4,85
BRDA:311,e0,5,0
BRDA:311,0,6,85
BRDA:311,e0,7,0
BRDA:313,0,0,85
BRDA:313,e0,1,0
BRDA:316,0,0,145
BRDA:316,0,1,85
BRDA:318,0,0,145
BRDA:318,e0,1,0
BRDA:318,0,2,145
BRDA:318,e0,3,0
BRDA:322,0,0,44
BRDA:322,0,1,41
BRDA:322,0,2,44
BRDA:322,e0,3,0
BRDA:322,0,4,41
BRDA:322,e0,5,0
BRDA:322,0,6,41
BRDA:322,0,7,44
BRDA:322,0,8,0
BRDA:322,0,9,0
BRDA:324,0,0,85
BRDA:324,e0,1,0
BRDA:324,0,2,85
BRDA:324,e0,3,0
BRDA:325,0,0,85
BRDA:325,e0,1,0
BRDA:325,0,2,85
BRDA:325,e0,3,0
BRDA:325,0,4,85
BRDA:325,e0,5,0
BRDA:327,0,0,145
BRDA:327,0,1,85
BRDA:329,0,0,145
BRDA:329,e0,1,0
BRDA:331,0,0,84
BRDA:331,0,1,61
BRDA:333,0,0,84
BRDA:333,e0,1,0
BRDA:333,0,2,84
BRDA:333,e0,3,0
BRDA:333,0,4,84
BRDA:333,e0,5,0
BRDA:333,0,6,84
BRDA:333,e0,7,0
BRDA:336,0,0,145
BRDA:336,e0,1,0
BRDA:336,0,2,100
BRDA:336,0,3,45
BRDA:338,0,0,100
BRDA:338,e0,1,0
BRDA:338,0,2,100
BRDA:338,e0,3,0
BRDA:338,0,4,100
BRDA:338,e0,5,0
BRDA:338,0,6,100
BRDA:338,e0,7,0
BRDA:338,0,8,100
BRDA:338,e0,9,0
BRDA:340,0,0,45
BRDA:340,e0,1,0
BRDA:340,0,2,45
BRDA:340,0,3,0
BRDA:342,0,0,45
BRDA:342,e0,1,0
BRDA:342,0,2,45
BRDA:342,e0,3,0
BRDA:342,0,4,45
BRDA:342,e0,5,0
BRDA:342,0,6,45
BRDA:342,e0,7,0
BRDA:342,0,8,45
BRDA:342,e0,9,0
BRDA:345,0,0,84
BRDA:345,0,1,61
BRDA:347,0,0,84
BRDA:347,e0,1,0
BRDA:347,0,2,84
BRDA:347,e0,3,0
BRDA:347,0,4,84
BRDA:347,e0,5,0
BRDA:347,0,6,84
BRDA:347,e0,7,0
BRDA:351,0,0,85
BRDA:351,e0,1,0
BRDA:351,0,2,85
BRDA:351,e0,3,0
BRDA:351,0,4,85
BRDA:351,e0,5,0
BRDA:351,0,6,85
BRDA:351,e0,7,0
BRDA:357,0,0,4
BRDA:357,0,1,647
BRDA:359,0,0,4
BRDA:359,e0,1,0
BRDA:359,0,2,4
BRDA:359,e0,3,0
BRDA:369,0,0,44
BRDA:369,e0,1,0
BRDA:369,0,2,44
BRDA:369,e0,3,0
BRDA:369,0,4,44
BRDA:369,e0,5,0
BRDA:369,0,6,44
BRDA:369,e0,7,0
BRDA:371,0,0,44
BRDA:371,e0,1,0
BRDA:374,0,0,44
BRDA:374,e0,1,0
BRDA:374,0,2,44
BRDA:374,e0,3,0
BRDA:374,0,4,44
BRDA:374,e0,5,0
BRDA:374,0,6,44
BRDA:374,e0,7,0
BRDA:376,0,0,202
BRDA:376,0,1,44
BRDA:378,0,0,202
BRDA:378,e0,1,0
BRDA:378,0,2,289
BRDA:378,0,3,202
BRDA:380,0,0,289
BRDA:380,e0,1,0
BRDA:380,0,2,114
BRDA:380,0,3,175
BRDA:382,0,0,175
BRDA:382,e0,1,0
BRDA:383,0,0,175
BRDA:383,e0,1,0
BRDA:387,0,0,202
BRDA:387,0,1,44
BRDA:389,0,0,202
BRDA:389,e0,1,0
BRDA:389,0,2,202
BRDA:389,e0,3,0
BRDA:390,0,0,202
BRDA:390,e0,1,0
BRDA:390,0,2,202
BRDA:390,e0,3,0
BRDA:393,0,0,44
BRDA:393,e0,1,0
BRDA:393,0,2,44
BRDA:393,e0,3,0
BRDA:393,0,4,44
BRDA:393,e0,5,0
BRDA:393,0,6,44
BRDA:393,e0,7,0
BRDA:398,0,0,44
BRDA:398,e0,1,0
BRDA:398,0,2,44
BRDA:398,e0,3,0
BRDA:398,0,4,44
BRDA:398,e0,5,0
BRDA:398,0,6,44
BRDA:398,e0,7,0
BRDA:399,0,0,44
BRDA:399,e0,1,0
BRDA:399,0,2,44
BRDA:399,e0,3,0
BRDA:399,0,4,44
BRDA:399,e0,5,0
BRDA:399,0,6,44
BRDA:399,e0,7,0
BRDA:402,0,0,2
BRDA:402,0,1,42
BRDA:402,0,2,0
BRDA:402,0,3,2
BRDA:402,0,4,42
BRDA:402,0,5,2
BRDA:404,0,0,42
BRDA:404,e0,1,0
BRDA:404,0,2,42
BRDA:404,e0,3,0
BRDA:404,0,4,42
BRDA:404,e0,5,0
BRDA:404,0,6,42
BRDA:404,e0,7,0
BRDA:407,0,0,44
BRDA:407,e0,1,0
BRDA:407,0,2,445
BRDA:407,0,3,44
BRDA:409,0,0,445
BRDA:409,e0,1,0
BRDA:409,0,2,445
BRDA:409,e0,3,0
BRDA:409,0,4,445
BRDA:409,e0,5,0
BRDA:409,0,6,445
BRDA:409,e0,7,0
BRDA:410,0,0,445
BRDA:410,e0,1,0
BRDA:413,0,0,44
BRDA:413,e0,1,0
BRDA:413,0,2,44
BRDA:413,e0,3,0
BRDA:413,0,4,44
BRDA:413,e0,5,0
BRDA:413,0,6,44
BRDA:413,e0,7,0
BRDA:418,0,0,3
BRDA:418,e0,1,0
BRDA:418,0,2,3
BRDA:418,e0,3,0
BRDA:418,0,4,3
BRDA:418,e0,5,0
BRDA:418,0,6,3
BRDA:418,e0,7,0
BRDA:419,0,0,3
BRDA:419,e0,1,0
BRDA:419,0,2,3
BRDA:419,e0,3,0
BRDA:419,0,4,3
BRDA:419,e0,5,0
BRDA:419,0,6,3
BRDA:419,e0,7,0
BRDA:420,0,0,3
BRDA:420,e0,1,0
BRDA:420,0,2,3
BRDA:420,e0,3,0
BRDA:420,0,4,3
BRDA:420,e0,5,0
BRDA:420,0,6,3
BRDA:420,e0,7,0
BRDA:424,0,0,3
BRDA:424,e0,1,0
BRDA:424,0,2,4
BRDA:424,0,3,3
BRDA:426,0,0,4
BRDA:426,e0,1,0
BRDA:426,0,2,4
BRDA:426,e0,3,0
BRDA:426,0,4,4
BRDA:426,e0,5,0
BRDA:427,0,0,4
BRDA:427,e0,1,0
BRDA:430,0,0,3
BRDA:430,e0,1,0
BRDA:430,0,2,3
BRDA:430,e0,3,0
BRDA:430,0,4,3
BRDA:430,e0,5,0
BRDA:430,0,6,3
BRDA:430,e0,7,0
BRDA:440,0,0,47
BRDA:440,e0,1,0
BRDA:440,0,2,47
BRDA:440,e0,3,0
BRDA:440,0,4,56
BRDA:440,e0,5,0
BRDA:440,0,6,56
BRDA:440,e0,7,0
BRDA:440,0,8,103
BRDA:440,e0,9,0
BRDA:440,0,10,56
BRDA:440,0,11,47
BRDA:442,0,0,56
BRDA:442,e0,1,0
BRDA:442,0,2,8
BRDA:442,0,3,48
BRDA:442,0,4,8
BRDA:442,e0,5,0
BRDA:442,0,6,8
BRDA:442,e0,7,0
BRDA:442,0,8,8
BRDA:442,0,9,0
BRDA:442,0,10,8
BRDA:442,0,11,48
BRDA:442,0,12,56
BRDA:442,0,13,0
BRDA:442,0,14,0
BRDA:442,0,15,0
BRDA:447,0,0,56
BRDA:447,e0,1,0
BRDA:447,0,2,56
BRDA:447,e0,3,0
BRDA:447,0,4,56
BRDA:447,e0,5,0
BRDA:449,0,0,56
BRDA:449,e0,1,0
BRDA:449,0,2,1
BRDA:449,0,3,55
BRDA:452,0,0,1
BRDA:452,e0,1,0
BRDA:453,0,0,1
BRDA:453,e0,1,0
BRDA:455,0,0,1
BRDA:455,e0,1,0
BRDA:455,0,2,1
BRDA:455,e0,3,0
BRDA:455,0,4,1
BRDA:455,e0,5,0
BRDA:455,0,6,1
BRDA:455,e0,7,0
BRDA:456,0,0,1
BRDA:456,e0,1,0
BRDA:459,0,0,56
BRDA:459,e0,1,0
BRDA:459,0,2,2
BRDA:459,0,3,54
BRDA:462,0,0,2
BRDA:462,e0,1,0
BRDA:463,0,0,2
BRDA:463,e0,1,0
BRDA:465,0,0,2
BRDA:465,e0,1,0
BRDA:465,0,2,2
BRDA:465,e0,3,0
BRDA:465,0,4,2
BRDA:465,e0,5,0
BRDA:465,0,6,2
BRDA:465,e0,7,0
BRDA:466,0,0,2
BRDA:466,e0,1,0
BRDA:469,0,0,56
BRDA:469,e0,1,0
BRDA:469,0,2,3
BRDA:469,0,3,53
BRDA:472,0,0,3
BRDA:472,e0,1,0
BRDA:473,0,0,3
BRDA:473,e0,1,0
BRDA:476,0,0,3
BRDA:476,e0,1,0
BRDA:477,0,0,2
BRDA:477,0,1,1
BRDA:479,0,0,2
BRDA:479,e0,1,0
BRDA:479,0,2,2
BRDA:479,e0,3,0
BRDA:479,0,4,2
BRDA:479,e0,5,0
BRDA:479,0,6,2
BRDA:479,e0,7,0
BRDA:480,0,0,2
BRDA:480,e0,1,0
BRDA:480,0,2,2
BRDA:480,e0,3,0
BRDA:480,0,4,2
BRDA:480,e0,5,0
BRDA:480,0,6,2
BRDA:480,e0,7,0
BRDA:480,0,8,2
BRDA:480,e0,9,0
BRDA:482,0,0,3
BRDA:482,e0,1,0
BRDA:483,0,0,2
BRDA:483,0,1,1
BRDA:485,0,0,1
BRDA:485,0,1,1
BRDA:487,0,0,1
BRDA:487,e0,1,0
BRDA:489,0,0,2
BRDA:489,e0,1,0
BRDA:489,0,2,2
BRDA:489,e0,3,0
BRDA:489,0,4,2
BRDA:489,e0,5,0
BRDA:490,0,0,2
BRDA:490,e0,1,0
BRDA:490,0,2,2
BRDA:490,e0,3,0
BRDA:490,0,4,2
BRDA:490,e0,5,0
BRDA:490,0,6,2
BRDA:490,e0,7,0
BRDA:490,0,8,2
BRDA:490,e0,9,0
BRDA:493,0,0,3
BRDA:493,e0,1,0
BRDA:497,0,0,0
BRDA:497,0,1,47
BRDA:499,0,0,-
BRDA:499,e0,1,-
BRDA:502,0,0,4
BRDA:502,0,1,43
BRDA:502,0,2,4
BRDA:502,0,3,0
BRDA:502,0,4,4
BRDA:502,e0,5,0
BRDA:502,0,6,4
BRDA:502,e0,7,0
BRDA:502,0,8,0
BRDA:502,0,9,0
BRDA:503,0,0,4
BRDA:503,0,1,43
BRDA:503,0,2,4
BRDA:503,0,3,0
BRDA:503,0,4,4
BRDA:503,e0,5,0
BRDA:503,0,6,4
BRDA:503,e0,7,0
BRDA:503,0,8,0
BRDA:503,0,9,0
BRDA:504,0,0,4
BRDA:504,0,1,43
BRDA:504,0,2,4
BRDA:504,0,3,0
BRDA:504,0,4,4
BRDA:504,e0,5,0
BRDA:504,0,6,4
BRDA:504,e0,7,0
BRDA:504,0,8,0
BRDA:504,0,9,0
BRDA:505,0,0,4
BRDA:505,0,1,43
BRDA:505,0,2,4
BRDA:505,0,3,0
BRDA:505,0,4,4
BRDA:505,e0,5,0
BRDA:505,0,6,4
BRDA:505,e0,7,0
BRDA:505,0,8,0
BRDA:505,0,9,0
BRDA:506,0,0,4
BRDA:506,0,1,43
BRDA:506,0,2,4
BRDA:506,0,3,0
BRDA:506,0,4,4
BRDA:506,e0,5,0
BRDA:506,0,6,4
BRDA:506,e0,7,0
BRDA:506,0,8,0
BRDA:506,0,9,0
BRDA:507,0,0,4
BRDA:507,0,1,43
BRDA:507,0,2,4
BRDA:507,0,3,0
BRDA:507,0,4,4
BRDA:507,e0,5,0
BRDA:507,0,6,4
BRDA:507,e0,7,0
BRDA:507,0,8,0
BRDA:507,0,9,0
BRDA:508,0,0,4
BRDA:508,0,1,43
BRDA:508,0,2,4
BRDA:508,0,3,0
BRDA:508,0,4,4
BRDA:508,e0,5,0
BRDA:508,0,6,4
BRDA:508,e0,7,0
BRDA:508,0,8,0
BRDA:508,0,9,0
BRDA:510,0,0,47
BRDA:510,e0,1,0
BRDA:510,0,2,47
BRDA:510,e0,3,0
BRDA:511,0,0,47
BRDA:511,e0,1,0
BRDA:511,0,2,47
BRDA:511,e0,3,0
BRDA:512,0,0,47
BRDA:512,e0,1,0
BRDA:512,0,2,47
BRDA:512,e0,3,0
BRDA:514,0,0,18
BRDA:514,0,1,29
BRDA:516,0,0,18
BRDA:516,e0,1,0
BRDA:516,0,2,18
BRDA:516,e0,3,0
BRDA:517,0,0,18
BRDA:517,e0,1,0
BRDA:517,0,2,18
BRDA:517,e0,3,0
BRDA:518,0,0,18
BRDA:518,e0,1,0
BRDA:518,0,2,18
BRDA:518,e0,3,0
BRDA:518,0,4,18
BRDA:518,e0,5,0
BRDA:521,0,0,47
BRDA:521,e0,1,0
BRDA:521,0,2,43
BRDA:521,0,3,4
BRDA:523,0,0,43
BRDA:523,e0,1,0
BRDA:523,0,2,43
BRDA:523,e0,3,0
BRDA:525,0,0,43
BRDA:525,e0,1,0
BRDA:525,0,2,43
BRDA:525,e0,3,0
BRDA:525,0,4,43
BRDA:525,e0,5,0
BRDA:526,0,0,43
BRDA:526,e0,1,0
BRDA:526,0,2,43
BRDA:526,e0,3,0
BRDA:526,0,4,43
BRDA:526,e0,5,0
BRDA:527,0,0,43
BRDA:527,e0,1,0
BRDA:527,0,2,43
BRDA:527,e0,3,0
BRDA:527,0,4,43
BRDA:527,e0,5,0
BRDA:528,0,0,43
BRDA:528,e0,1,0
BRDA:528,0,2,43
BRDA:528,e0,3,0
BRDA:528,0,4,43
BRDA:528,e0,5,0
BRDA:530,0,0,43
BRDA:530,e0,1,0
BRDA:530,0,2,43
BRDA:530,e0,3,0
BRDA:533,0,0,47
BRDA:533,e0,1,0
BRDA:533,0,2,47
BRDA:533,e0,3,0
BRDA:535,0,0,47
BRDA:535,e0,1,0
BRDA:535,0,2,0
BRDA:535,0,3,47
BRDA:537,0,0,-
BRDA:537,e0,1,-
BRDA:537,0,2,-
BRDA:537,e0,3,-
BRDA:537,0,4,-
BRDA:537,e0,5,-
BRDA:540,0,0,47
BRDA:540,e0,1,0
BRDA:540,0,2,1
BRDA:540,0,3,46
BRDA:542,0,0,1
BRDA:542,e0,1,0
BRDA:542,0,2,1
BRDA:542,e0,3,0
BRDA:545,0,0,47
BRDA:545,e0,1,0
BRDA:545,0,2,47
BRDA:545,e0,3,0
BRDA:547,0,0,18
BRDA:547,0,1,29
BRDA:549,0,0,18
BRDA:549,e0,1,0
BRDA:549,0,2,18
BRDA:549,e0,3,0
BRDA:550,0,0,18
BRDA:550,e0,1,0
BRDA:550,0,2,18
BRDA:550,e0,3,0
BRDA:551,0,0,18
BRDA:551,e0,1,0
BRDA:551,0,2,18
BRDA:551,e0,3,0
BRDA:552,0,0,18
BRDA:552,e0,1,0
BRDA:552,0,2,18
BRDA:552,e0,3,0
BRDA:553,0,0,18
BRDA:553,e0,1,0
BRDA:553,0,2,18
BRDA:553,e0,3,0
BRDA:554,0,0,18
BRDA:554,e0,1,0
BRDA:554,0,2,18
BRDA:554,e0,3,0
BRDA:555,0,0,18
BRDA:555,e0,1,0
BRDA:555,0,2,18
BRDA:555,e0,3,0
BRDA:555,0,4,18
BRDA:555,e0,5,0
BRDA:555,0,6,18
BRDA:555,e0,7,0
BRDA:556,0,0,18
BRDA:556,e0,1,0
BRDA:556,0,2,18
BRDA:556,e0,3,0
BRDA:557,0,0,18
BRDA:557,e0,1,0
BRDA:557,0,2,18
BRDA:557,e0,3,0
BRDA:558,0,0,18
BRDA:558,e0,1,0
BRDA:558,0,2,18
BRDA:558,e0,3,0
BRDA:561,0,0,47
BRDA:561,e0,1,0
BRDA:561,0,2,44
BRDA:561,0,3,3
BRDA:563,0,0,44
BRDA:563,e0,1,0
BRDA:563,0,2,44
BRDA:563,e0,3,0
BRDA:564,0,0,44
BRDA:564,e0,1,0
BRDA:564,0,2,44
BRDA:564,e0,3,0
BRDA:566,0,0,44
BRDA:566,e0,1,0
BRDA:568,0,0,43
BRDA:568,0,1,1
BRDA:568,0,2,43
BRDA:568,e0,3,0
BRDA:568,0,4,1
BRDA:568,0,5,42
BRDA:568,0,6,1
BRDA:568,0,7,43
BRDA:570,0,0,1
BRDA:570,e0,1,0
BRDA:570,0,2,1
BRDA:570,e0,3,0
BRDA:570,0,4,1
BRDA:570,e0,5,0
BRDA:573,0,0,0
BRDA:573,0,1,44
BRDA:575,0,0,-
BRDA:575,e0,1,-
BRDA:575,0,2,-
BRDA:575,e0,3,-
BRDA:575,0,4,-
BRDA:575,e0,5,-
BRDA:578,0,0,0
BRDA:578,0,1,44
BRDA:580,0,0,-
BRDA:580,e0,1,-
BRDA:580,0,2,-
BRDA:580,e0,3,-
BRDA:580,0,4,-
BRDA:580,e0,5,-
BRDA:583,0,0,0
BRDA:583,0,1,44
BRDA:585,0,0,-
BRDA:585,e0,1,-
BRDA:585,0,2,-
BRDA:585,e0,3,-
BRDA:585,0,4,-
BRDA:585,e0,5,-
BRDA:588,0,0,0
BRDA:588,0,1,44
BRDA:590,0,0,-
BRDA:590,e0,1,-
BRDA:590,0,2,-
BRDA:590,e0,3,-
BRDA:590,0,4,-
BRDA:590,e0,5,-
BRDA:593,0,0,0
BRDA:593,0,1,44
BRDA:595,0,0,-
BRDA:595,e0,1,-
BRDA:595,0,2,-
BRDA:595,e0,3,-
BRDA:595,0,4,-
BRDA:595,e0,5,-
BRDA:598,0,0,0
BRDA:598,0,1,44
BRDA:600,0,0,-
BRDA:600,e0,1,-
BRDA:600,0,2,-
BRDA:600,e0,3,-
BRDA:600,0,4,-
BRDA:600,e0,5,-
BRDA:603,0,0,0
BRDA:603,0,1,44
BRDA:605,0,0,-
BRDA:605,e0,1,-
BRDA:605,0,2,-
BRDA:605,e0,3,-
BRDA:605,0,4,-
BRDA:605,e0,5,-
BRDA:608,0,0,44
BRDA:608,0,1,0
BRDA:610,0,0,44
BRDA:610,e0,1,0
BRDA:610,0,2,44
BRDA:610,e0,3,0
BRDA:610,0,4,44
BRDA:610,e0,5,0
BRDA:613,0,0,44
BRDA:613,0,1,0
BRDA:615,0,0,44
BRDA:615,e0,1,0
BRDA:615,0,2,44
BRDA:615,e0,3,0
BRDA:615,0,4,44
BRDA:615,e0,5,0
BRDA:618,0,0,44
BRDA:618,0,1,0
BRDA:620,0,0,44
BRDA:620,e0,1,0
BRDA:620,0,2,44
BRDA:620,e0,3,0
BRDA:620,0,4,44
BRDA:620,e0,5,0
BRDA:623,0,0,44
BRDA:623,0,1,0
BRDA:625,0,0,44
BRDA:625,e0,1,0
BRDA:625,0,2,44
BRDA:625,e0,3,0
BRDA:625,0,4,44
BRDA:625,e0,5,0
BRDA:628,0,0,34
BRDA:628,0,1,10
BRDA:630,0,0,34
BRDA:630,e0,1,0
BRDA:630,0,2,34
BRDA:630,e0,3,0
BRDA:630,0,4,34
BRDA:630,e0,5,0
BRDA:633,0,0,44
BRDA:633,e0,1,0
BRDA:633,0,2,44
BRDA:633,e0,3,0
BRDA:634,0,0,44
BRDA:634,e0,1,0
BRDA:634,0,2,44
BRDA:634,e0,3,0
BRDA:637,0,0,47
BRDA:637,e0,1,0
BRDA:637,0,2,47
BRDA:637,e0,3,0
BRDA:641,0,0,47
BRDA:641,e0,1,0
BRDA:641,0,2,47
BRDA:641,e0,3,0
BRDA:641,0,4,56
BRDA:641,e0,5,0
BRDA:641,0,6,56
BRDA:641,e0,7,0
BRDA:641,0,8,103
BRDA:641,e0,9,0
BRDA:641,0,10,56
BRDA:641,0,11,47
BRDA:643,0,0,56
BRDA:643,e0,1,0
BRDA:643,0,2,56
BRDA:643,e0,3,0
BRDA:643,0,4,56
BRDA:643,e0,5,0
BRDA:644,0,0,56
BRDA:644,e0,1,0
BRDA:644,0,2,56
BRDA:644,e0,3,0
BRDA:644,0,4,56
BRDA:644,e0,5,0
BRDA:646,0,0,56
BRDA:646,e0,1,0
BRDA:646,0,2,56
BRDA:646,e0,3,0
BRDA:647,0,0,56
BRDA:647,e0,1,0
BRDA:647,0,2,56
BRDA:647,e0,3,0
BRDA:647,0,4,56
BRDA:647,e0,5,0
BRDA:648,0,0,56
BRDA:648,e0,1,0
BRDA:648,0,2,56
BRDA:648,e0,3,0
BRDA:648,0,4,56
BRDA:648,e0,5,0
BRDA:650,0,0,56
BRDA:650,e0,1,0
BRDA:650,0,2,8
BRDA:650,0,3,48
BRDA:650,0,4,8
BRDA:650,e0,5,0
BRDA:650,0,6,0
BRDA:650,0,7,8
BRDA:650,0,8,0
BRDA:650,0,9,56
BRDA:652,0,0,-
BRDA:652,e0,1,-
BRDA:652,0,2,-
BRDA:652,e0,3,-
BRDA:655,0,0,56
BRDA:655,e0,1,0
BRDA:655,0,2,56
BRDA:655,e0,3,0
BRDA:655,0,4,56
BRDA:655,e0,5,0
BRDA:655,0,6,56
BRDA:655,e0,7,0
BRDA:656,0,0,56
BRDA:656,e0,1,0
BRDA:656,0,2,56
BRDA:656,e0,3,0
BRDA:660,0,0,47
BRDA:660,e0,1,0
BRDA:660,0,2,47
BRDA:660,e0,3,0
BRDA:662,0,0,1
BRDA:662,0,1,46
BRDA:664,0,0,1
BRDA:664,e0,1,0
BRDA:664,0,2,1
BRDA:664,e0,3,0
BRDA:665,0,0,6
BRDA:665,0,1,1
BRDA:667,0,0,6
BRDA:667,e0,1,0
BRDA:667,0,2,6
BRDA:667,e0,3,0
BRDA:668,0,0,6
BRDA:668,e0,1,0
BRDA:668,0,2,6
BRDA:668,e0,3,0
BRDA:668,0,4,6
BRDA:668,e0,5,0
BRDA:669,0,0,1
BRDA:669,0,1,5
BRDA:671,0,0,1
BRDA:671,e0,1,0
BRDA:671,0,2,1
BRDA:671,e0,3,0
BRDA:671,0,4,1
BRDA:671,e0,5,0
BRDA:674,0,0,6
BRDA:674,0,1,0
BRDA:676,0,0,6
BRDA:676,e0,1,0
BRDA:676,0,2,6
BRDA:676,e0,3,0
BRDA:676,0,4,6
BRDA:676,e0,5,0
BRDA:676,0,6,6
BRDA:676,e0,7,0
BRDA:678,0,0,6
BRDA:678,e0,1,0
BRDA:678,0,2,6
BRDA:678,e0,3,0
BRDA:679,0,0,6
BRDA:679,e0,1,0
BRDA:679,0,2,6
BRDA:679,e0,3,0
BRDA:681,0,0,1
BRDA:681,e0,1,0
BRDA:681,0,2,1
BRDA:681,e0,3,0
BRDA:684,0,0,47
BRDA:684,e0,1,0
BRDA:684,0,2,44
BRDA:684,0,3,3
BRDA:686,0,0,44
BRDA:686,e0,1,0
BRDA:686,0,2,44
BRDA:686,e0,3,0
BRDA:687,0,0,44
BRDA:687,e0,1,0
BRDA:687,0,2,44
BRDA:687,e0,3,0
BRDA:687,0,4,44
BRDA:687,e0,5,0
BRDA:690,0,0,44
BRDA:690,e0,1,0
BRDA:690,0,2,44
BRDA:690,e0,3,0
BRDA:690,0,4,44
BRDA:690,e0,5,0
BRDA:690,0,6,44
BRDA:690,e0,7,0
BRDA:691,0,0,44
BRDA:691,e0,1,0
BRDA:691,0,2,44
BRDA:691,e0,3,0
BRDA:694,0,0,47
BRDA:694,e0,1,0
BRDA:694,0,2,0
BRDA:694,0,3,47
BRDA:696,0,0,-
BRDA:696,e0,1,-
BRDA:696,0,2,-
BRDA:696,e0,3,-
BRDA:698,0,0,-
BRDA:698,e0,1,-
BRDA:698,0,2,-
BRDA:698,0,3,-
BRDA:700,0,0,-
BRDA:700,e0,1,-
BRDA:700,0,2,-
BRDA:700,e0,3,-
BRDA:701,0,0,-
BRDA:701,e0,1,-
BRDA:701,0,2,-
BRDA:701,e0,3,-
BRDA:702,0,0,-
BRDA:702,e0,1,-
BRDA:702,0,2,-
BRDA:702,e0,3,-
BRDA:702,0,4,-
BRDA:702,e0,5,-
BRDA:703,0,0,-
BRDA:703,e0,1,-
BRDA:704,0,0,-
BRDA:704,e0,1,-
BRDA:704,0,2,-
BRDA:704,e0,3,-
BRDA:704,0,4,-
BRDA:704,e0,5,-
BRDA:704,0,6,-
BRDA:704,e0,7,-
BRDA:704,0,8,-
BRDA:704,e0,9,-
BRDA:704,0,10,-
BRDA:704,e0,11,-
BRDA:705,0,0,-
BRDA:705,e0,1,-
BRDA:705,0,2,-
BRDA:705,e0,3,-
BRDA:708,0,0,-
BRDA:708,e0,1,-
BRDA:708,0,2,-
BRDA:708,e0,3,-
BRDA:711,0,0,10
BRDA:711,0,1,37
BRDA:713,0,0,10
BRDA:713,e0,1,0
BRDA:713,0,2,10
BRDA:713,e0,3,0
BRDA:714,0,0,10
BRDA:714,e0,1,0
BRDA:714,0,2,10
BRDA:714,e0,3,0
BRDA:715,0,0,10
BRDA:715,e0,1,0
BRDA:715,0,2,10
BRDA:715,e0,3,0
BRDA:716,0,0,10
BRDA:716,e0,1,0
BRDA:716,0,2,10
BRDA:716,e0,3,0
BRDA:717,0,0,10
BRDA:717,e0,1,0
BRDA:717,0,2,10
BRDA:717,e0,3,0
BRDA:718,0,0,10
BRDA:718,e0,1,0
BRDA:718,0,2,10
BRDA:718,e0,3,0
BRDA:718,0,4,10
BRDA:718,e0,5,0
BRDA:719,0,0,10
BRDA:719,e0,1,0
BRDA:719,0,2,10
BRDA:719,e0,3,0
BRDA:720,0,0,10
BRDA:720,e0,1,0
BRDA:720,0,2,10
BRDA:720,e0,3,0
BRDA:721,0,0,10
BRDA:721,e0,1,0
BRDA:721,0,2,10
BRDA:721,e0,3,0
BRDA:724,0,0,47
BRDA:724,e0,1,0
BRDA:724,0,2,47
BRDA:724,e0,3,0
BRDA:726,0,0,47
BRDA:726,e0,1,0
BRDA:726,0,2,47
BRDA:726,e0,3,0
BRDA:726,0,4,47
BRDA:726,e0,5,0
BRDA:726,0,6,47
BRDA:726,e0,7,0
BRDA:727,0,0,47
BRDA:727,e0,1,0
BRDA:727,0,2,47
BRDA:727,e0,3,0
BRDA:727,0,4,47
BRDA:727,e0,5,0
BRDA:729,0,0,185
BRDA:729,0,1,47
BRDA:731,0,0,185
BRDA:731,e0,1,0
BRDA:731,0,2,6
BRDA:731,0,3,179
BRDA:741,0,0,179
BRDA:741,e0,1,0
BRDA:741,0,2,179
BRDA:741,e0,3,0
BRDA:741,0,4,179
BRDA:741,e0,5,0
BRDA:742,0,0,179
BRDA:742,e0,1,0
BRDA:742,0,2,179
BRDA:742,e0,3,0
BRDA:742,0,4,179
BRDA:742,e0,5,0
BRDA:742,0,6,179
BRDA:742,e0,7,0
BRDA:745,0,0,179
BRDA:745,e0,1,0
BRDA:745,0,2,1
BRDA:745,0,3,178
BRDA:747,0,0,1
BRDA:747,e0,1,0
BRDA:752,0,0,178
BRDA:752,e0,1,0
BRDA:754,0,0,178
BRDA:754,e0,1,0
BRDA:754,0,2,0
BRDA:754,0,3,0
BRDA:754,0,4,0
BRDA:754,0,5,0
BRDA:754,0,6,0
BRDA:754,0,7,0
BRDA:754,0,8,33
BRDA:754,0,9,0
BRDA:754,0,10,45
BRDA:754,0,11,44
BRDA:754,0,12,0
BRDA:754,0,13,56
BRDA:754,0,14,0
BRDA:754,0,15,0
BRDA:754,0,16,0
BRDA:754,0,17,0
BRDA:754,0,18,0
BRDA:754,0,19,0
BRDA:754,0,20,0
BRDA:754,0,21,0
BRDA:754,0,22,0
BRDA:754,0,23,0
BRDA:754,0,24,0
BRDA:754,0,25,0
BRDA:754,0,26,0
BRDA:754,0,27,0
BRDA:754,0,28,0
BRDA:754,0,29,0
BRDA:754,0,30,0
BRDA:754,0,31,0
BRDA:754,0,32,0
BRDA:754,0,33,0
BRDA:754,0,34,0
BRDA:754,0,35,0
BRDA:754,0,36,0
BRDA:754,0,37,0
BRDA:757,0,0,-
BRDA:757,e0,1,-
BRDA:761,0,0,-
BRDA:761,e0,1,-
BRDA:765,0,0,-
BRDA:765,e0,1,-
BRDA:769,0,0,-
BRDA:769,e0,1,-
BRDA:773,0,0,-
BRDA:773,e0,1,-
BRDA:777,0,0,-
BRDA:777,e0,1,-
BRDA:781,0,0,33
BRDA:781,e0,1,0
BRDA:785,0,0,-
BRDA:785,e0,1,-
BRDA:789,0,0,45
BRDA:789,e0,1,0
BRDA:793,0,0,44
BRDA:793,e0,1,0
BRDA:797,0,0,-
BRDA:797,e0,1,-
BRDA:801,0,0,56
BRDA:801,e0,1,0
BRDA:851,0,0,178
BRDA:851,0,1,1
BRDA:851,0,2,178
BRDA:851,0,3,1
BRDA:858,0,0,-
BRDA:858,e0,1,-
BRDA:858,0,2,-
BRDA:858,e0,3,-
BRDA:858,0,4,-
BRDA:858,e0,5,-
BRDA:858,0,6,-
BRDA:858,e0,7,-
BRDA:859,0,0,-
BRDA:859,e0,1,-
BRDA:859,0,2,-
BRDA:859,e0,3,-
BRDA:859,0,4,-
BRDA:859,e0,5,-
BRDA:859,0,6,-
BRDA:859,e0,7,-
BRDA:864,0,0,-
BRDA:864,e0,1,-
BRDA:864,0,2,-
BRDA:864,e0,3,-
BRDA:864,0,4,-
BRDA:864,e0,5,-
BRDA:864,0,6,-
BRDA:864,e0,7,-
BRDA:865,0,0,-
BRDA:865,e0,1,-
BRDA:865,0,2,-
BRDA:865,e0,3,-
BRDA:865,0,4,-
BRDA:865,e0,5,-
BRDA:865,0,6,-
BRDA:865,e0,7,-
BRDA:870,0,0,-
BRDA:870,e0,1,-
BRDA:870,0,2,-
BRDA:870,e0,3,-
BRDA:870,0,4,-
BRDA:870,e0,5,-
BRDA:870,0,6,-
BRDA:870,e0,7,-
BRDA:871,0,0,-
BRDA:871,e0,1,-
BRDA:871,0,2,-
BRDA:871,e0,3,-
BRDA:871,0,4,-
BRDA:871,e0,5,-
BRDA:871,0,6,-
BRDA:871,e0,7,-
BRDA:876,0,0,-
BRDA:876,e0,1,-
BRDA:876,0,2,-
BRDA:876,e0,3,-
BRDA:876,0,4,-
BRDA:876,e0,5,-
BRDA:876,0,6,-
BRDA:876,e0,7,-
BRDA:877,0,0,-
BRDA:877,e0,1,-
BRDA:877,0,2,-
BRDA:877,e0,3,-
BRDA:877,0,4,-
BRDA:877,e0,5,-
BRDA:877,0,6,-
BRDA:877,e0,7,-
BRDA:882,0,0,-
BRDA:882,e0,1,-
BRDA:882,0,2,-
BRDA:882,e0,3,-
BRDA:882,0,4,-
BRDA:882,e0,5,-
BRDA:882,0,6,-
BRDA:882,e0,7,-
BRDA:883,0,0,-
BRDA:883,e0,1,-
BRDA:883,0,2,-
BRDA:883,e0,3,-
BRDA:883,0,4,-
BRDA:883,e0,5,-
BRDA:883,0,6,-
BRDA:883,e0,7,-
BRDA:888,0,0,-
BRDA:888,e0,1,-
BRDA:888,0,2,-
BRDA:888,e0,3,-
BRDA:888,0,4,-
BRDA:888,e0,5,-
BRDA:888,0,6,-
BRDA:888,e0,7,-
BRDA:889,0,0,-
BRDA:889,e0,1,-
BRDA:889,0,2,-
BRDA:889,e0,3,-
BRDA:889,0,4,-
BRDA:889,e0,5,-
BRDA:889,0,6,-
BRDA:889,e0,7,-
BRDA:894,0,0,452
BRDA:894,e0,1,0
BRDA:894,0,2,452
BRDA:894,0,3,0
BRDA:894,0,4,452
BRDA:894,e0,5,0
BRDA:894,0,6,452
BRDA:894,e0,7,0
BRDA:894,0,8,436
BRDA:894,0,9,16
BRDA:894,0,10,452
BRDA:894,0,11,0
BRDA:894,0,12,452
BRDA:894,0,13,0
BRDA:894,0,14,436
BRDA:894,0,15,16
BRDA:894,0,16,0
BRDA:894,0,17,0
BRDA:894,0,18,0
BRDA:894,0,19,0
BRDA:896,0,0,436
BRDA:896,e0,1,0
BRDA:896,0,2,436
BRDA:896,e0,3,0
BRDA:897,0,0,436
BRDA:897,e0,1,0
BRDA:897,0,2,436
BRDA:897,e0,3,0
BRDA:897,0,4,436
BRDA:897,e0,5,0
BRDA:898,0,0,436
BRDA:898,e0,1,0
BRDA:898,0,2,436
BRDA:898,e0,3,0
BRDA:902,0,0,16
BRDA:902,e0,1,0
BRDA:902,0,2,16
BRDA:902,0,3,16
BRDA:904,0,0,16
BRDA:904,e0,1,0
BRDA:904,0,2,16
BRDA:904,e0,3,0
BRDA:906,0,0,16
BRDA:906,0,1,0
BRDA:908,0,0,16
BRDA:908,e0,1,0
BRDA:908,0,2,16
BRDA:908,e0,3,0
BRDA:910,0,0,16
BRDA:910,e0,1,0
BRDA:910,0,2,16
BRDA:910,e0,3,0
BRDA:910,0,4,16
BRDA:910,0,5,0
BRDA:912,0,0,16
BRDA:912,e0,1,0
BRDA:912,0,2,16
BRDA:912,e0,3,0
BRDA:913,0,0,16
BRDA:913,e0,1,0
BRDA:913,0,2,16
BRDA:913,e0,3,0
BRDA:916,0,0,16
BRDA:916,e0,1,0
BRDA:916,0,2,16
BRDA:916,e0,3,0
BRDA:916,0,4,16
BRDA:916,0,5,0
BRDA:918,0,0,16
BRDA:918,e0,1,0
BRDA:918,0,2,16
BRDA:918,e0,3,0
BRDA:919,0,0,16
BRDA:919,e0,1,0
BRDA:919,0,2,16
BRDA:919,e0,3,0
BRDA:919,0,4,16
BRDA:919,e0,5,0
BRDA:919,0,6,16
BRDA:919,e0,7,0
BRDA:920,0,0,16
BRDA:920,e0,1,0
BRDA:920,0,2,16
BRDA:920,e0,3,0
BRDA:923,0,0,16
BRDA:923,e0,1,0
BRDA:923,0,2,16
BRDA:923,e0,3,0
BRDA:923,0,4,16
BRDA:923,0,5,0
BRDA:925,0,0,16
BRDA:925,e0,1,0
BRDA:925,0,2,16
BRDA:925,e0,3,0
BRDA:926,0,0,16
BRDA:926,e0,1,0
BRDA:926,0,2,16
BRDA:926,e0,3,0
BRDA:926,0,4,16
BRDA:926,e0,5,0
BRDA:927,0,0,16
BRDA:927,e0,1,0
BRDA:927,0,2,16
BRDA:927,e0,3,0
BRDA:930,0,0,16
BRDA:930,e0,1,0
BRDA:930,0,2,16
BRDA:930,e0,3,0
BRDA:930,0,4,16
BRDA:930,0,5,0
BRDA:932,0,0,16
BRDA:932,e0,1,0
BRDA:932,0,2,16
BRDA:932,e0,3,0
BRDA:933,0,0,16
BRDA:933,e0,1,0
BRDA:933,0,2,16
BRDA:933,e0,3,0
BRDA:933,0,4,16
BRDA:933,e0,5,0
BRDA:933,0,6,16
BRDA:933,e0,7,0
BRDA:933,0,8,16
BRDA:933,e0,9,0
BRDA:934,0,0,16
BRDA:934,e0,1,0
BRDA:934,0,2,16
BRDA:934,e0,3,0
BRDA:937,0,0,16
BRDA:937,e0,1,0
BRDA:937,0,2,16
BRDA:937,e0,3,0
BRDA:937,0,4,0
BRDA:937,0,5,16
BRDA:939,0,0,-
BRDA:939,e0,1,-
BRDA:939,0,2,-
BRDA:939,e0,3,-
BRDA:940,0,0,-
BRDA:940,e0,1,-
BRDA:940,0,2,-
BRDA:940,e0,3,-
BRDA:940,0,4,-
BRDA:940,e0,5,-
BRDA:940,0,6,-
BRDA:940,e0,7,-
BRDA:941,0,0,-
BRDA:941,e0,1,-
BRDA:941,0,2,-
BRDA:941,e0,3,-
BRDA:944,0,0,16
BRDA:944,e0,1,0
BRDA:944,0,2,16
BRDA:944,e0,3,0
BRDA:944,0,4,0
BRDA:944,0,5,16
BRDA:946,0,0,-
BRDA:946,e0,1,-
BRDA:946,0,2,-
BRDA:946,e0,3,-
BRDA:947,0,0,-
BRDA:947,e0,1,-
BRDA:947,0,2,-
BRDA:947,e0,3,-
BRDA:947,0,4,-
BRDA:947,e0,5,-
BRDA:947,0,6,-
BRDA:947,e0,7,-
BRDA:947,0,8,-
BRDA:947,e0,9,-
BRDA:948,0,0,-
BRDA:948,e0,1,-
BRDA:948,0,2,-
BRDA:948,e0,3,-
BRDA:951,0,0,16
BRDA:951,e0,1,0
BRDA:951,0,2,16
BRDA:951,e0,3,0
BRDA:954,0,0,16
BRDA:954,e0,1,0
BRDA:954,0,2,16
BRDA:954,e0,3,0
BRDA:954,0,4,16
BRDA:954,e0,5,0
BRDA:955,0,0,16
BRDA:955,e0,1,0
BRDA:955,0,2,16
BRDA:955,e0,3,0
BRDA:959,0,0,452
BRDA:959,e0,1,0
BRDA:959,0,2,1
BRDA:959,0,3,452
BRDA:961,0,0,1
BRDA:961,e0,1,0
BRDA:961,0,2,1
BRDA:961,e0,3,0
BRDA:962,0,0,1
BRDA:962,e0,1,0
BRDA:962,0,2,1
BRDA:962,e0,3,0
BRDA:963,0,0,1
BRDA:963,e0,1,0
BRDA:963,0,2,1
BRDA:963,e0,3,0
BRDA:964,0,0,1
BRDA:964,e0,1,0
BRDA:964,0,2,1
BRDA:964,e0,3,0
BRDA:965,0,0,1
BRDA:965,e0,1,0
BRDA:965,0,2,1
BRDA:965,e0,3,0
BRDA:966,0,0,1
BRDA:966,e0,1,0
BRDA:966,0,2,1
BRDA:966,e0,3,0
BRDA:967,0,0,1
BRDA:967,e0,1,0
BRDA:967,0,2,1
BRDA:967,e0,3,0
BRDA:970,0,0,3
BRDA:970,0,1,449
BRDA:974,0,0,3
BRDA:974,e0,1,0
BRDA:974,0,2,3
BRDA:974,e0,3,0
BRDA:975,0,0,3
BRDA:975,e0,1,0
BRDA:975,0,2,3
BRDA:975,e0,3,0
BRDA:977,0,0,2
BRDA:977,0,1,1
BRDA:980,0,0,2
BRDA:980,e0,1,0
BRDA:980,0,2,2
BRDA:980,e0,3,0
BRDA:980,0,4,2
BRDA:980,e0,5,0
BRDA:980,0,6,2
BRDA:980,e0,7,0
BRDA:983,0,0,0
BRDA:983,0,1,3
BRDA:986,0,0,-
BRDA:986,e0,1,-
BRDA:986,0,2,-
BRDA:986,e0,3,-
BRDA:986,0,4,-
BRDA:986,e0,5,-
BRDA:986,0,6,-
BRDA:986,e0,7,-
BRDA:989,0,0,3
BRDA:989,e0,1,0
BRDA:989,0,2,3
BRDA:989,e0,3,0
BRDA:995,0,0,3
BRDA:995,0,1,30
BRDA:995,0,2,3
BRDA:995,0,3,0
BRDA:995,0,4,3
BRDA:995,e0,5,0
BRDA:995,0,6,3
BRDA:995,e0,7,0
BRDA:995,0,8,0
BRDA:995,0,9,0
BRDA:997,0,0,33
BRDA:997,e0,1,0
BRDA:997,0,2,33
BRDA:997,e0,3,0
BRDA:998,0,0,33
BRDA:998,e0,1,0
BRDA:998,0,2,33
BRDA:998,e0,3,0
BRDA:1003,0,0,33
BRDA:1003,e0,1,0
BRDA:1003,0,2,33
BRDA:1003,e0,3,0
BRDA:1003,0,4,40
BRDA:1003,e0,5,0
BRDA:1003,0,6,40
BRDA:1003,e0,7,0
BRDA:1003,0,8,73
BRDA:1003,e0,9,0
BRDA:1003,0,10,40
BRDA:1003,0,11,33
BRDA:1005,0,0,40
BRDA:1005,e0,1,0
BRDA:1006,0,0,40
BRDA:1006,e0,1,0
BRDA:1008,0,0,1785
BRDA:1008,e0,1,0
BRDA:1008,0,2,1785
BRDA:1008,e0,3,0
BRDA:1008,0,4,1785
BRDA:1008,e0,5,0
BRDA:1008,0,6,1745
BRDA:1008,0,7,40
BRDA:1010,0,0,14362
BRDA:1010,e0,1,0
BRDA:1010,0,2,14362
BRDA:1010,e0,3,0
BRDA:1010,0,4,14362
BRDA:1010,e0,5,0
BRDA:1010,0,6,14362
BRDA:1010,e0,7,0
BRDA:1010,0,8,12617
BRDA:1010,0,9,1745
BRDA:1012,0,0,12617
BRDA:1012,e0,1,0
BRDA:1013,0,0,10953
BRDA:1013,0,1,1664
BRDA:1013,0,2,10734
BRDA:1013,0,3,219
BRDA:1013,0,4,10734
BRDA:1013,0,5,1883
BRDA:1018,0,0,12617
BRDA:1018,e0,1,0
BRDA:1018,0,2,12617
BRDA:1018,e0,3,0
BRDA:1018,0,4,12617
BRDA:1018,e0,5,0
BRDA:1021,0,0,1745
BRDA:1021,e0,1,0
BRDA:1021,0,2,1745
BRDA:1021,e0,3,0
BRDA:1022,0,0,1745
BRDA:1022,e0,1,0
BRDA:1022,0,2,1745
BRDA:1022,e0,3,0
BRDA:1022,0,4,1745
BRDA:1022,e0,5,0
BRDA:1022,0,6,1745
BRDA:1022,e0,7,0
BRDA:1026,0,0,33
BRDA:1026,e0,1,0
BRDA:1026,0,2,33
BRDA:1026,e0,3,0
BRDA:1027,0,0,33
BRDA:1027,e0,1,0
BRDA:1027,0,2,33
BRDA:1027,e0,3,0
BRDA:1029,0,0,33
BRDA:1029,e0,1,0
BRDA:1029,0,2,436
BRDA:1029,0,3,33
BRDA:1031,0,0,436
BRDA:1031,e0,1,0
BRDA:1031,0,2,436
BRDA:1031,e0,3,0
BRDA:1032,0,0,436
BRDA:1032,e0,1,0
BRDA:1033,0,0,436
BRDA:1033,e0,1,0
BRDA:1033,0,2,436
BRDA:1033,e0,3,0
BRDA:1036,0,0,33
BRDA:1036,e0,1,0
BRDA:1036,0,2,33
BRDA:1036,e0,3,0
BRDA:1041,0,0,-
BRDA:1041,e0,1,-
BRDA:1041,0,2,-
BRDA:1041,e0,3,-
BRDA:1041,0,4,-
BRDA:1041,e0,5,-
BRDA:1041,0,6,-
BRDA:1041,e0,7,-
BRDA:1042,0,0,-
BRDA:1042,e0,1,-
BRDA:1042,0,2,-
BRDA:1042,e0,3,-
BRDA:1042,0,4,-
BRDA:1042,e0,5,-
BRDA:1042,0,6,-
BRDA:1042,e0,7,-
BRDA:1047,0,0,-
BRDA:1047,e0,1,-
BRDA:1047,0,2,-
BRDA:1047,e0,3,-
BRDA:1047,0,4,-
BRDA:1047,e0,5,-
BRDA:1047,0,6,-
BRDA:1047,e0,7,-
BRDA:1048,0,0,-
BRDA:1048,e0,1,-
BRDA:1048,0,2,-
BRDA:1048,e0,3,-
BRDA:1048,0,4,-
BRDA:1048,e0,5,-
BRDA:1048,0,6,-
BRDA:1048,e0,7,-
BRDA:1053,0,0,-
BRDA:1053,e0,1,-
BRDA:1053,0,2,-
BRDA:1053,e0,3,-
BRDA:1053,0,4,-
BRDA:1053,e0,5,-
BRDA:1053,0,6,-
BRDA:1053,e0,7,-
BRDA:1054,0,0,-
BRDA:1054,e0,1,-
BRDA:1054,0,2,-
BRDA:1054,e0,3,-
BRDA:1054,0,4,-
BRDA:1054,e0,5,-
BRDA:1054,0,6,-
BRDA:1054,e0,7,-
BRDA:1059,0,0,4
BRDA:1059,0,1,202
BRDA:1059,0,2,4
BRDA:1059,0,3,0
BRDA:1059,0,4,4
BRDA:1059,e0,5,0
BRDA:1059,0,6,4
BRDA:1059,e0,7,0
BRDA:1059,0,8,0
BRDA:1059,0,9,0
BRDA:1061,0,0,206
BRDA:1061,e0,1,0
BRDA:1061,0,2,206
BRDA:1061,e0,3,0
BRDA:1063,0,0,47
BRDA:1063,0,1,159
BRDA:1065,0,0,47
BRDA:1065,e0,1,0
BRDA:1065,0,2,47
BRDA:1065,e0,3,0
BRDA:1066,0,0,47
BRDA:1066,e0,1,0
BRDA:1066,0,2,47
BRDA:1066,e0,3,0
BRDA:1069,0,0,20
BRDA:1069,0,1,186
BRDA:1071,0,0,20
BRDA:1071,e0,1,0
BRDA:1071,0,2,20
BRDA:1071,e0,3,0
BRDA:1072,0,0,20
BRDA:1072,e0,1,0
BRDA:1072,0,2,20
BRDA:1072,e0,3,0
BRDA:1075,0,0,8
BRDA:1075,0,1,198
BRDA:1077,0,0,8
BRDA:1077,e0,1,0
BRDA:1077,0,2,8
BRDA:1077,e0,3,0
BRDA:1078,0,0,8
BRDA:1078,e0,1,0
BRDA:1078,0,2,8
BRDA:1078,e0,3,0
BRDA:1081,0,0,29
BRDA:1081,0,1,177
BRDA:1083,0,0,29
BRDA:1083,e0,1,0
BRDA:1083,0,2,29
BRDA:1083,e0,3,0
BRDA:1084,0,0,20
BRDA:1084,0,1,9
BRDA:1086,0,0,20
BRDA:1086,e0,1,0
BRDA:1086,0,2,20
BRDA:1086,e0,3,0
BRDA:1088,0,0,29
BRDA:1088,e0,1,0
BRDA:1088,0,2,29
BRDA:1088,e0,3,0
BRDA:1091,0,0,4
BRDA:1091,0,1,202
BRDA:1093,0,0,4
BRDA:1093,e0,1,0
BRDA:1093,0,2,4
BRDA:1093,e0,3,0
BRDA:1094,0,0,4
BRDA:1094,e0,1,0
BRDA:1094,0,2,4
BRDA:1094,e0,3,0
BRDA:1095,0,0,4
BRDA:1095,e0,1,0
BRDA:1095,0,2,4
BRDA:1095,e0,3,0
BRDA:1097,0,0,8
BRDA:1097,0,1,194
BRDA:1099,0,0,8
BRDA:1099,e0,1,0
BRDA:1099,0,2,8
BRDA:1099,e0,3,0
BRDA:1100,0,0,8
BRDA:1100,e0,1,0
BRDA:1100,0,2,8
BRDA:1100,e0,3,0
BRDA:1101,0,0,8
BRDA:1101,e0,1,0
BRDA:1101,0,2,8
BRDA:1101,e0,3,0
BRDA:1104,0,0,204
BRDA:1104,0,1,2
BRDA:1106,0,0,204
BRDA:1106,e0,1,0
BRDA:1106,0,2,204
BRDA:1106,e0,3,0
BRDA:1107,0,0,204
BRDA:1107,e0,1,0
BRDA:1107,0,2,204
BRDA:1107,e0,3,0
BRDA:1108,0,0,204
BRDA:1108,e0,1,0
BRDA:1108,0,2,204
BRDA:1108,e0,3,0
BRDA:1111,0,0,196
BRDA:1111,0,1,10
BRDA:1113,0,0,196
BRDA:1113,e0,1,0
BRDA:1113,0,2,196
BRDA:1113,e0,3,0
BRDA:1114,0,0,196
BRDA:1114,e0,1,0
BRDA:1114,0,2,196
BRDA:1114,e0,3,0
BRDA:1115,0,0,196
BRDA:1115,e0,1,0
BRDA:1115,0,2,196
BRDA:1115,e0,3,0
BRDA:1118,0,0,205
BRDA:1118,0,1,1
BRDA:1120,0,0,205
BRDA:1120,e0,1,0
BRDA:1120,0,2,205
BRDA:1120,e0,3,0
BRDA:1121,0,0,205
BRDA:1121,e0,1,0
BRDA:1121,0,2,205
BRDA:1121,e0,3,0
BRDA:1121,0,4,205
BRDA:1121,e0,5,0
BRDA:1121,0,6,205
BRDA:1121,e0,7,0
BRDA:1122,0,0,205
BRDA:1122,e0,1,0
BRDA:1122,0,2,205
BRDA:1122,e0,3,0
BRDA:1125,0,0,184
BRDA:1125,0,1,22
BRDA:1127,0,0,184
BRDA:1127,e0,1,0
BRDA:1127,0,2,184
BRDA:1127,e0,3,0
BRDA:1128,0,0,184
BRDA:1128,e0,1,0
BRDA:1128,0,2,184
BRDA:1128,e0,3,0
BRDA:1129,0,0,184
BRDA:1129,e0,1,0
BRDA:1129,0,2,184
BRDA:1129,e0,3,0
BRDA:1132,0,0,185
BRDA:1132,0,1,21
BRDA:1134,0,0,185
BRDA:1134,e0,1,0
BRDA:1134,0,2,185
BRDA:1134,e0,3,0
BRDA:1135,0,0,185
BRDA:1135,e0,1,0
BRDA:1135,0,2,185
BRDA:1135,e0,3,0
BRDA:1135,0,4,185
BRDA:1135,e0,5,0
BRDA:1135,0,6,185
BRDA:1135,e0,7,0
BRDA:1136,0,0,185
BRDA:1136,e0,1,0
BRDA:1136,0,2,185
BRDA:1136,e0,3,0
BRDA:1139,0,0,206
BRDA:1139,e0,1,0
BRDA:1139,0,2,206
BRDA:1139,e0,3,0
BRDA:1144,0,0,4
BRDA:1144,0,1,223
BRDA:1144,0,2,4
BRDA:1144,0,3,0
BRDA:1144,0,4,4
BRDA:1144,e0,5,0
BRDA:1144,0,6,4
BRDA:1144,e0,7,0
BRDA:1144,0,8,0
BRDA:1144,0,9,0
BRDA:1146,0,0,227
BRDA:1146,e0,1,0
BRDA:1146,0,2,227
BRDA:1146,e0,3,0
BRDA:1148,0,0,227
BRDA:1148,0,1,0
BRDA:1150,0,0,227
BRDA:1150,e0,1,0
BRDA:1152,0,0,227
BRDA:1152,e0,1,0
BRDA:1152,0,2,227
BRDA:1152,e0,3,0
BRDA:1154,0,0,227
BRDA:1154,e0,1,0
BRDA:1154,0,2,227
BRDA:1154,e0,3,0
BRDA:1154,0,4,227
BRDA:1154,e0,5,0
BRDA:1156,0,0,227
BRDA:1156,e0,1,0
BRDA:1156,0,2,137
BRDA:1156,0,3,90
BRDA:1158,0,0,137
BRDA:1158,e0,1,0
BRDA:1158,0,2,137
BRDA:1158,e0,3,0
BRDA:1159,0,0,137
BRDA:1159,e0,1,0
BRDA:1159,0,2,137
BRDA:1159,e0,3,0
BRDA:1159,0,4,137
BRDA:1159,e0,5,0
BRDA:1160,0,0,137
BRDA:1160,e0,1,0
BRDA:1160,0,2,137
BRDA:1160,e0,3,0
BRDA:1163,0,0,227
BRDA:1163,e0,1,0
BRDA:1163,0,2,137
BRDA:1163,0,3,90
BRDA:1165,0,0,137
BRDA:1165,e0,1,0
BRDA:1165,0,2,137
BRDA:1165,e0,3,0
BRDA:1166,0,0,137
BRDA:1166,e0,1,0
BRDA:1166,0,2,137
BRDA:1166,e0,3,0
BRDA:1166,0,4,137
BRDA:1166,e0,5,0
BRDA:1167,0,0,137
BRDA:1167,e0,1,0
BRDA:1167,0,2,137
BRDA:1167,e0,3,0
BRDA:1170,0,0,227
BRDA:1170,e0,1,0
BRDA:1170,0,2,227
BRDA:1170,e0,3,0
BRDA:1172,0,0,-
BRDA:1172,0,1,-
BRDA:1174,0,0,-
BRDA:1174,e0,1,-
BRDA:1176,0,0,-
BRDA:1176,e0,1,-
BRDA:1176,0,2,-
BRDA:1176,e0,3,-
BRDA:1177,0,0,-
BRDA:1177,e0,1,-
BRDA:1177,0,2,-
BRDA:1177,e0,3,-
BRDA:1177,0,4,-
BRDA:1177,e0,5,-
BRDA:1179,0,0,-
BRDA:1179,e0,1,-
BRDA:1179,0,2,-
BRDA:1179,0,3,-
BRDA:1181,0,0,-
BRDA:1181,e0,1,-
BRDA:1181,0,2,-
BRDA:1181,e0,3,-
BRDA:1181,0,4,-
BRDA:1181,e0,5,-
BRDA:1184,0,0,-
BRDA:1184,e0,1,-
BRDA:1184,0,2,-
BRDA:1184,0,3,-
BRDA:1186,0,0,-
BRDA:1186,e0,1,-
BRDA:1186,0,2,-
BRDA:1186,e0,3,-
BRDA:1186,0,4,-
BRDA:1186,e0,5,-
BRDA:1189,0,0,-
BRDA:1189,e0,1,-
BRDA:1189,0,2,-
BRDA:1189,0,3,-
BRDA:1191,0,0,-
BRDA:1191,e0,1,-
BRDA:1191,0,2,-
BRDA:1191,e0,3,-
BRDA:1191,0,4,-
BRDA:1191,e0,5,-
BRDA:1194,0,0,-
BRDA:1194,e0,1,-
BRDA:1194,0,2,-
BRDA:1194,0,3,-
BRDA:1196,0,0,-
BRDA:1196,e0,1,-
BRDA:1196,0,2,-
BRDA:1196,e0,3,-
BRDA:1196,0,4,-
BRDA:1196,e0,5,-
BRDA:1199,0,0,-
BRDA:1199,e0,1,-
BRDA:1199,0,2,-
BRDA:1199,0,3,-
BRDA:1201,0,0,-
BRDA:1201,e0,1,-
BRDA:1201,0,2,-
BRDA:1201,e0,3,-
BRDA:1201,0,4,-
BRDA:1201,e0,5,-
BRDA:1204,0,0,-
BRDA:1204,e0,1,-
BRDA:1204,0,2,-
BRDA:1204,0,3,-
BRDA:1206,0,0,-
BRDA:1206,e0,1,-
BRDA:1206,0,2,-
BRDA:1206,e0,3,-
BRDA:1207,0,0,-
BRDA:1207,e0,1,-
BRDA:1207,0,2,-
BRDA:1207,e0,3,-
BRDA:1208,0,0,-
BRDA:1208,e0,1,-
BRDA:1208,0,2,-
BRDA:1208,e0,3,-
BRDA:1209,0,0,-
BRDA:1209,e0,1,-
BRDA:1210,0,0,-
BRDA:1210,e0,1,-
BRDA:1210,0,2,-
BRDA:1210,e0,3,-
BRDA:1211,0,0,-
BRDA:1211,e0,1,-
BRDA:1211,0,2,-
BRDA:1211,e0,3,-
BRDA:1214,0,0,-
BRDA:1214,e0,1,-
BRDA:1214,0,2,-
BRDA:1214,e0,3,-
BRDA:1217,0,0,227
BRDA:1217,e0,1,0
BRDA:1217,0,2,227
BRDA:1217,e0,3,0
BRDA:1222,0,0,4
BRDA:1222,0,1,84
BRDA:1222,0,2,4
BRDA:1222,0,3,0
BRDA:1222,0,4,4
BRDA:1222,e0,5,0
BRDA:1222,0,6,4
BRDA:1222,e0,7,0
BRDA:1222,0,8,0
BRDA:1222,0,9,0
BRDA:1224,0,0,88
BRDA:1224,e0,1,0
BRDA:1224,0,2,88
BRDA:1224,e0,3,0
BRDA:1226,0,0,88
BRDA:1226,e0,1,0
BRDA:1226,0,2,0
BRDA:1226,0,3,88
BRDA:1228,0,0,-
BRDA:1228,0,1,-
BRDA:1229,0,0,-
BRDA:1229,e0,1,-
BRDA:1229,0,2,-
BRDA:1229,e0,3,-
BRDA:1229,0,4,-
BRDA:1229,0,5,-
BRDA:1229,0,6,-
BRDA:1229,e0,7,-
BRDA:1229,0,8,-
BRDA:1229,e0,9,-
BRDA:1229,0,10,-
BRDA:1229,0,11,-
BRDA:1229,0,12,-
BRDA:1229,0,13,-
BRDA:1229,0,14,-
BRDA:1229,0,15,-
BRDA:1229,0,16,-
BRDA:1229,0,17,-
BRDA:1230,0,0,-
BRDA:1230,e0,1,-
BRDA:1230,0,2,-
BRDA:1230,e0,3,-
BRDA:1230,0,4,-
BRDA:1230,e0,5,-
BRDA:1232,0,0,-
BRDA:1232,0,1,-
BRDA:1233,0,0,-
BRDA:1233,e0,1,-
BRDA:1233,0,2,-
BRDA:1233,e0,3,-
BRDA:1233,0,4,-
BRDA:1233,0,5,-
BRDA:1233,0,6,-
BRDA:1233,e0,7,-
BRDA:1233,0,8,-
BRDA:1233,e0,9,-
BRDA:1233,0,10,-
BRDA:1233,0,11,-
BRDA:1233,0,12,-
BRDA:1233,0,13,-
BRDA:1233,0,14,-
BRDA:1233,0,15,-
BRDA:1233,0,16,-
BRDA:1233,0,17,-
BRDA:1234,0,0,-
BRDA:1234,e0,1,-
BRDA:1234,0,2,-
BRDA:1234,e0,3,-
BRDA:1234,0,4,-
BRDA:1234,e0,5,-
BRDA:1237,0,0,88
BRDA:1237,e0,1,0
BRDA:1237,0,2,616
BRDA:1237,0,3,88
BRDA:1239,0,0,616
BRDA:1239,e0,1,0
BRDA:1239,0,2,435
BRDA:1239,0,3,181
BRDA:1241,0,0,435
BRDA:1241,e0,1,0
BRDA:1241,0,2,435
BRDA:1241,e0,3,0
BRDA:1243,0,0,435
BRDA:1243,e0,1,0
BRDA:1244,0,0,435
BRDA:1244,e0,1,0
BRDA:1246,0,0,435
BRDA:1246,e0,1,0
BRDA:1246,0,2,116
BRDA:1246,0,3,319
BRDA:1248,0,0,116
BRDA:1248,e0,1,0
BRDA:1248,0,2,116
BRDA:1248,e0,3,0
BRDA:1248,0,4,116
BRDA:1248,e0,5,0
BRDA:1248,0,6,116
BRDA:1248,e0,7,0
BRDA:1251,0,0,435
BRDA:1251,e0,1,0
BRDA:1251,0,2,116
BRDA:1251,0,3,319
BRDA:1253,0,0,116
BRDA:1253,e0,1,0
BRDA:1253,0,2,116
BRDA:1253,e0,3,0
BRDA:1254,0,0,116
BRDA:1254,e0,1,0
BRDA:1254,0,2,116
BRDA:1254,e0,3,0
BRDA:1254,0,4,116
BRDA:1254,e0,5,0
BRDA:1255,0,0,116
BRDA:1255,e0,1,0
BRDA:1255,0,2,116
BRDA:1255,e0,3,0
BRDA:1258,0,0,435
BRDA:1258,e0,1,0
BRDA:1262,0,0,88
BRDA:1262,e0,1,0
BRDA:1262,0,2,88
BRDA:1262,e0,3,0
BRDA:1267,0,0,4
BRDA:1267,0,1,41
BRDA:1267,0,2,4
BRDA:1267,0,3,0
BRDA:1267,0,4,4
BRDA:1267,e0,5,0
BRDA:1267,0,6,4
BRDA:1267,e0,7,0
BRDA:1267,0,8,0
BRDA:1267,0,9,0
BRDA:1268,0,0,4
BRDA:1268,0,1,41
BRDA:1268,0,2,4
BRDA:1268,0,3,0
BRDA:1268,0,4,4
BRDA:1268,e0,5,0
BRDA:1268,0,6,4
BRDA:1268,e0,7,0
BRDA:1268,0,8,0
BRDA:1268,0,9,0
BRDA:1269,0,0,4
BRDA:1269,0,1,41
BRDA:1269,0,2,4
BRDA:1269,0,3,0
BRDA:1269,0,4,4
BRDA:1269,e0,5,0
BRDA:1269,0,6,4
BRDA:1269,e0,7,0
BRDA:1269,0,8,0
BRDA:1269,0,9,0
BRDA:1270,0,0,4
BRDA:1270,0,1,41
BRDA:1270,0,2,4
BRDA:1270,0,3,0
BRDA:1270,0,4,4
BRDA:1270,e0,5,0
BRDA:1270,0,6,4
BRDA:1270,e0,7,0
BRDA:1270,0,8,0
BRDA:1270,0,9,0
BRDA:1272,0,0,45
BRDA:1272,e0,1,0
BRDA:1272,0,2,45
BRDA:1272,e0,3,0
BRDA:1273,0,0,45
BRDA:1273,e0,1,0
BRDA:1273,0,2,45
BRDA:1273,e0,3,0
BRDA:1275,0,0,45
BRDA:1275,e0,1,0
BRDA:1275,0,2,45
BRDA:1275,e0,3,0
BRDA:1278,0,0,45
BRDA:1278,0,1,0
BRDA:1286,0,0,45
BRDA:1286,e0,1,0
BRDA:1286,0,2,45
BRDA:1286,e0,3,0
BRDA:1286,0,4,25
BRDA:1286,0,5,20
BRDA:1288,0,0,25
BRDA:1288,e0,1,0
BRDA:1288,0,2,25
BRDA:1288,e0,3,0
BRDA:1289,0,0,25
BRDA:1289,e0,1,0
BRDA:1289,0,2,25
BRDA:1289,e0,3,0
BRDA:1290,0,0,25
BRDA:1290,e0,1,0
BRDA:1290,0,2,25
BRDA:1290,e0,3,0
BRDA:1290,0,4,25
BRDA:1290,e0,5,0
BRDA:1295,0,0,18
BRDA:1295,0,1,27
BRDA:1299,0,0,18
BRDA:1299,e0,1,0
BRDA:1302,0,0,2
BRDA:1302,0,1,16
BRDA:1304,0,0,2
BRDA:1304,e0,1,0
BRDA:1304,0,2,2
BRDA:1304,e0,3,0
BRDA:1305,0,0,2
BRDA:1305,e0,1,0
BRDA:1305,0,2,2
BRDA:1305,e0,3,0
BRDA:1307,0,0,5
BRDA:1307,0,1,2
BRDA:1309,0,0,5
BRDA:1309,e0,1,0
BRDA:1309,0,2,1
BRDA:1309,0,3,4
BRDA:1310,0,0,4
BRDA:1310,e0,1,0
BRDA:1310,0,2,4
BRDA:1310,e0,3,0
BRDA:1311,0,0,4
BRDA:1311,e0,1,0
BRDA:1311,0,2,4
BRDA:1311,e0,3,0
BRDA:1311,0,4,4
BRDA:1311,e0,5,0
BRDA:1312,0,0,4
BRDA:1312,e0,1,0
BRDA:1312,0,2,4
BRDA:1312,e0,3,0
BRDA:1312,0,4,4
BRDA:1312,e0,5,0
BRDA:1313,0,0,4
BRDA:1313,e0,1,0
BRDA:1313,0,2,4
BRDA:1313,e0,3,0
BRDA:1316,0,0,2
BRDA:1316,e0,1,0
BRDA:1316,0,2,2
BRDA:1316,e0,3,0
BRDA:1322,0,0,45
BRDA:1322,0,1,0
BRDA:1326,0,0,45
BRDA:1326,e0,1,0
BRDA:1326,0,2,45
BRDA:1326,e0,3,0
BRDA:1327,0,0,45
BRDA:1327,e0,1,0
BRDA:1327,0,2,45
BRDA:1327,e0,3,0
BRDA:1329,0,0,25
BRDA:1329,0,1,20
BRDA:1333,0,0,157
BRDA:1333,e0,1,0
BRDA:1333,0,2,157
BRDA:1333,e0,3,0
BRDA:1333,0,4,157
BRDA:1333,e0,5,0
BRDA:1333,0,6,157
BRDA:1333,e0,7,0
BRDA:1333,0,8,157
BRDA:1333,e0,9,0
BRDA:1333,0,10,157
BRDA:1333,e0,11,0
BRDA:1333,0,12,157
BRDA:1333,e0,13,0
BRDA:1333,0,14,157
BRDA:1333,e0,15,0
BRDA:1333,0,16,157
BRDA:1333,e0,17,0
BRDA:1333,0,18,157
BRDA:1333,e0,19,0
BRDA:1333,0,20,157
BRDA:1333,0,21,157
BRDA:1333,0,22,0
BRDA:1333,0,23,0
BRDA:1335,0,0,157
BRDA:1335,e0,1,0
BRDA:1336,0,0,157
BRDA:1336,e0,1,0
BRDA:1336,0,2,157
BRDA:1336,e0,3,0
BRDA:1336,0,4,0
BRDA:1336,0,5,0
BRDA:1336,0,6,0
BRDA:1336,0,7,0
BRDA:1340,0,0,157
BRDA:1340,0,1,25
BRDA:1342,0,0,157
BRDA:1342,e0,1,0
BRDA:1342,0,2,24
BRDA:1342,0,3,133
BRDA:1348,0,0,25
BRDA:1348,e0,1,0
BRDA:1348,0,2,25
BRDA:1348,e0,3,0
BRDA:1348,0,4,25
BRDA:1348,e0,5,0
BRDA:1351,0,0,206
BRDA:1351,0,1,45
BRDA:1353,0,0,206
BRDA:1353,e0,1,0
BRDA:1356,0,0,45
BRDA:1356,e0,1,0
BRDA:1356,0,2,45
BRDA:1356,e0,3,0
BRDA:1361,0,0,45
BRDA:1361,0,1,0
BRDA:1365,0,0,45
BRDA:1365,e0,1,0
BRDA:1365,0,2,45
BRDA:1365,e0,3,0
BRDA:1366,0,0,45
BRDA:1366,e0,1,0
BRDA:1366,0,2,45
BRDA:1366,e0,3,0
BRDA:1368,0,0,227
BRDA:1368,0,1,45
BRDA:1370,0,0,227
BRDA:1370,e0,1,0
BRDA:1373,0,0,45
BRDA:1373,e0,1,0
BRDA:1373,0,2,45
BRDA:1373,e0,3,0
BRDA:1378,0,0,45
BRDA:1378,0,1,0
BRDA:1382,0,0,45
BRDA:1382,e0,1,0
BRDA:1382,0,2,45
BRDA:1382,e0,3,0
BRDA:1383,0,0,45
BRDA:1383,e0,1,0
BRDA:1383,0,2,45
BRDA:1383,e0,3,0
BRDA:1385,0,0,88
BRDA:1385,0,1,45
BRDA:1387,0,0,88
BRDA:1387,e0,1,0
BRDA:1390,0,0,45
BRDA:1390,e0,1,0
BRDA:1390,0,2,45
BRDA:1390,e0,3,0
BRDA:1394,0,0,45
BRDA:1394,0,1,0
BRDA:1396,0,0,45
BRDA:1396,e0,1,0
BRDA:1396,0,2,45
BRDA:1396,e0,3,0
BRDA:1397,0,0,45
BRDA:1397,e0,1,0
BRDA:1397,0,2,45
BRDA:1397,e0,3,0
BRDA:1399,0,0,230
BRDA:1399,0,1,45
BRDA:1401,0,0,230
BRDA:1401,e0,1,0
BRDA:1403,0,0,230
BRDA:1403,e0,1,0
BRDA:1403,0,2,230
BRDA:1403,e0,3,0
BRDA:1405,0,0,230
BRDA:1405,0,1,0
BRDA:1407,0,0,230
BRDA:1407,e0,1,0
BRDA:1407,0,2,230
BRDA:1407,e0,3,0
BRDA:1407,0,4,230
BRDA:1407,e0,5,0
BRDA:1410,0,0,230
BRDA:1410,0,1,0
BRDA:1412,0,0,230
BRDA:1412,e0,1,0
BRDA:1412,0,2,230
BRDA:1412,e0,3,0
BRDA:1412,0,4,230
BRDA:1412,e0,5,0
BRDA:1415,0,0,229
BRDA:1415,0,1,1
BRDA:1417,0,0,229
BRDA:1417,e0,1,0
BRDA:1417,0,2,229
BRDA:1417,e0,3,0
BRDA:1417,0,4,229
BRDA:1417,e0,5,0
BRDA:1420,0,0,229
BRDA:1420,0,1,1
BRDA:1422,0,0,229
BRDA:1422,e0,1,0
BRDA:1422,0,2,229
BRDA:1422,e0,3,0
BRDA:1422,0,4,229
BRDA:1422,e0,5,0
BRDA:1426,0,0,230
BRDA:1426,0,1,0
BRDA:1426,0,2,170
BRDA:1426,0,3,60
BRDA:1426,0,4,170
BRDA:1426,0,5,60
BRDA:1428,0,0,170
BRDA:1428,e0,1,0
BRDA:1428,0,2,170
BRDA:1428,e0,3,0
BRDA:1429,0,0,170
BRDA:1429,e0,1,0
BRDA:1429,0,2,170
BRDA:1429,e0,3,0
BRDA:1433,0,0,229
BRDA:1433,0,1,1
BRDA:1433,0,2,41
BRDA:1433,0,3,188
BRDA:1433,0,4,41
BRDA:1433,0,5,189
BRDA:1435,0,0,41
BRDA:1435,e0,1,0
BRDA:1435,0,2,41
BRDA:1435,e0,3,0
BRDA:1436,0,0,41
BRDA:1436,e0,1,0
BRDA:1436,0,2,41
BRDA:1436,e0,3,0
BRDA:1440,0,0,230
BRDA:1440,0,1,0
BRDA:1440,0,2,12
BRDA:1440,0,3,218
BRDA:1440,0,4,12
BRDA:1440,0,5,218
BRDA:1442,0,0,12
BRDA:1442,e0,1,0
BRDA:1442,0,2,12
BRDA:1442,e0,3,0
BRDA:1443,0,0,12
BRDA:1443,e0,1,0
BRDA:1443,0,2,12
BRDA:1443,e0,3,0
BRDA:1447,0,0,229
BRDA:1447,0,1,1
BRDA:1447,0,2,135
BRDA:1447,0,3,94
BRDA:1447,0,4,135
BRDA:1447,0,5,95
BRDA:1449,0,0,135
BRDA:1449,e0,1,0
BRDA:1449,0,2,135
BRDA:1449,e0,3,0
BRDA:1450,0,0,135
BRDA:1450,e0,1,0
BRDA:1450,0,2,135
BRDA:1450,e0,3,0
BRDA:1454,0,0,45
BRDA:1454,0,1,185
BRDA:1454,0,2,43
BRDA:1454,0,3,2
BRDA:1454,0,4,43
BRDA:1454,0,5,187
BRDA:1456,0,0,43
BRDA:1456,e0,1,0
BRDA:1456,0,2,43
BRDA:1456,e0,3,0
BRDA:1457,0,0,43
BRDA:1457,e0,1,0
BRDA:1457,0,2,43
BRDA:1457,e0,3,0
BRDA:1461,0,0,0
BRDA:1461,0,1,230
BRDA:1461,0,2,0
BRDA:1461,0,3,0
BRDA:1461,0,4,0
BRDA:1461,0,5,230
BRDA:1463,0,0,-
BRDA:1463,e0,1,-
BRDA:1463,0,2,-
BRDA:1463,e0,3,-
BRDA:1464,0,0,-
BRDA:1464,e0,1,-
BRDA:1464,0,2,-
BRDA:1464,e0,3,-
BRDA:1467,0,0,0
BRDA:1467,0,1,230
BRDA:1469,0,0,-
BRDA:1469,e0,1,-
BRDA:1469,0,2,-
BRDA:1469,e0,3,-
BRDA:1469,0,4,-
BRDA:1469,e0,5,-
BRDA:1472,0,0,0
BRDA:1472,0,1,230
BRDA:1474,0,0,-
BRDA:1474,e0,1,-
BRDA:1474,0,2,-
BRDA:1474,e0,3,-
BRDA:1474,0,4,-
BRDA:1474,e0,5,-
BRDA:1477,0,0,45
BRDA:1477,0,1,185
BRDA:1479,0,0,45
BRDA:1479,e0,1,0
BRDA:1481,0,0,45
BRDA:1481,e0,1,0
BRDA:1481,0,2,45
BRDA:1481,e0,3,0
BRDA:1483,0,0,45
BRDA:1483,e0,1,0
BRDA:1483,0,2,45
BRDA:1483,0,3,0
BRDA:1485,0,0,45
BRDA:1485,e0,1,0
BRDA:1485,0,2,45
BRDA:1485,e0,3,0
BRDA:1485,0,4,45
BRDA:1485,e0,5,0
BRDA:1485,0,6,45
BRDA:1485,e0,7,0
BRDA:1488,0,0,45
BRDA:1488,e0,1,0
BRDA:1488,0,2,1
BRDA:1488,0,3,44
BRDA:1490,0,0,1
BRDA:1490,e0,1,0
BRDA:1490,0,2,1
BRDA:1490,e0,3,0
BRDA:1490,0,4,1
BRDA:1490,e0,5,0
BRDA:1490,0,6,1
BRDA:1490,e0,7,0
BRDA:1493,0,0,45
BRDA:1493,e0,1,0
BRDA:1493,0,2,1
BRDA:1493,0,3,44
BRDA:1495,0,0,1
BRDA:1495,e0,1,0
BRDA:1495,0,2,1
BRDA:1495,e0,3,0
BRDA:1495,0,4,1
BRDA:1495,e0,5,0
BRDA:1495,0,6,1
BRDA:1495,e0,7,0
BRDA:1498,0,0,45
BRDA:1498,e0,1,0
BRDA:1498,0,2,1
BRDA:1498,0,3,44
BRDA:1500,0,0,1
BRDA:1500,e0,1,0
BRDA:1500,0,2,1
BRDA:1500,e0,3,0
BRDA:1500,0,4,1
BRDA:1500,e0,5,0
BRDA:1500,0,6,1
BRDA:1500,e0,7,0
BRDA:1503,0,0,45
BRDA:1503,e0,1,0
BRDA:1503,0,2,1
BRDA:1503,0,3,44
BRDA:1505,0,0,1
BRDA:1505,e0,1,0
BRDA:1505,0,2,1
BRDA:1505,e0,3,0
BRDA:1505,0,4,1
BRDA:1505,e0,5,0
BRDA:1505,0,6,1
BRDA:1505,e0,7,0
BRDA:1508,0,0,45
BRDA:1508,e0,1,0
BRDA:1508,0,2,0
BRDA:1508,0,3,45
BRDA:1510,0,0,-
BRDA:1510,e0,1,-
BRDA:1510,0,2,-
BRDA:1510,e0,3,-
BRDA:1510,0,4,-
BRDA:1510,e0,5,-
BRDA:1510,0,6,-
BRDA:1510,e0,7,-
BRDA:1513,0,0,45
BRDA:1513,e0,1,0
BRDA:1513,0,2,45
BRDA:1513,e0,3,0
BRDA:1516,0,0,0
BRDA:1516,0,1,230
BRDA:1518,0,0,-
BRDA:1518,e0,1,-
BRDA:1520,0,0,-
BRDA:1520,e0,1,-
BRDA:1520,0,2,-
BRDA:1520,e0,3,-
BRDA:1521,0,0,-
BRDA:1521,e0,1,-
BRDA:1521,0,2,-
BRDA:1521,e0,3,-
BRDA:1521,0,4,-
BRDA:1521,e0,5,-
BRDA:1521,0,6,-
BRDA:1521,e0,7,-
BRDA:1522,0,0,-
BRDA:1522,e0,1,-
BRDA:1522,0,2,-
BRDA:1522,e0,3,-
BRDA:1522,0,4,-
BRDA:1522,e0,5,-
BRDA:1522,0,6,-
BRDA:1522,e0,7,-
BRDA:1523,0,0,-
BRDA:1523,e0,1,-
BRDA:1523,0,2,-
BRDA:1523,e0,3,-
BRDA:1526,0,0,230
BRDA:1526,e0,1,0
BRDA:1526,0,2,230
BRDA:1526,e0,3,0
BRDA:1529,0,0,45
BRDA:1529,e0,1,0
BRDA:1529,0,2,45
BRDA:1529,e0,3,0
BRDA:1534,0,0,45
BRDA:1534,e0,1,0
BRDA:1534,0,2,45
BRDA:1534,e0,3,0
BRDA:1535,0,0,45
BRDA:1535,e0,1,0
BRDA:1535,0,2,45
BRDA:1535,e0,3,0
BRDA:1537,0,0,198
BRDA:1537,0,1,45
BRDA:1539,0,0,198
BRDA:1539,e0,1,0
BRDA:1539,0,2,198
BRDA:1539,e0,3,0
BRDA:1541,0,0,193
BRDA:1541,0,1,5
BRDA:1543,0,0,193
BRDA:1543,e0,1,0
BRDA:1543,0,2,193
BRDA:1543,e0,3,0
BRDA:1543,0,4,193
BRDA:1543,e0,5,0
BRDA:1546,0,0,194
BRDA:1546,0,1,4
BRDA:1548,0,0,194
BRDA:1548,e0,1,0
BRDA:1548,0,2,194
BRDA:1548,e0,3,0
BRDA:1548,0,4,194
BRDA:1548,e0,5,0
BRDA:1551,0,0,182
BRDA:1551,0,1,16
BRDA:1553,0,0,182
BRDA:1553,e0,1,0
BRDA:1553,0,2,182
BRDA:1553,e0,3,0
BRDA:1553,0,4,182
BRDA:1553,e0,5,0
BRDA:1556,0,0,186
BRDA:1556,0,1,12
BRDA:1558,0,0,186
BRDA:1558,e0,1,0
BRDA:1558,0,2,186
BRDA:1558,e0,3,0
BRDA:1558,0,4,186
BRDA:1558,e0,5,0
BRDA:1561,0,0,193
BRDA:1561,0,1,5
BRDA:1563,0,0,193
BRDA:1563,e0,1,0
BRDA:1563,0,2,193
BRDA:1563,e0,3,0
BRDA:1563,0,4,193
BRDA:1563,e0,5,0
BRDA:1563,0,6,193
BRDA:1563,e0,7,0
BRDA:1567,0,0,193
BRDA:1567,0,1,5
BRDA:1567,0,2,15
BRDA:1567,0,3,178
BRDA:1567,0,4,15
BRDA:1567,0,5,183
BRDA:1569,0,0,15
BRDA:1569,e0,1,0
BRDA:1569,0,2,15
BRDA:1569,e0,3,0
BRDA:1570,0,0,15
BRDA:1570,e0,1,0
BRDA:1570,0,2,15
BRDA:1570,e0,3,0
BRDA:1574,0,0,182
BRDA:1574,0,1,16
BRDA:1574,0,2,4
BRDA:1574,0,3,178
BRDA:1574,0,4,4
BRDA:1574,0,5,194
BRDA:1576,0,0,4
BRDA:1576,e0,1,0
BRDA:1576,0,2,4
BRDA:1576,e0,3,0
BRDA:1577,0,0,4
BRDA:1577,e0,1,0
BRDA:1577,0,2,4
BRDA:1577,e0,3,0
BRDA:1581,0,0,194
BRDA:1581,0,1,4
BRDA:1581,0,2,91
BRDA:1581,0,3,103
BRDA:1581,0,4,91
BRDA:1581,0,5,107
BRDA:1583,0,0,91
BRDA:1583,e0,1,0
BRDA:1583,0,2,91
BRDA:1583,e0,3,0
BRDA:1584,0,0,91
BRDA:1584,e0,1,0
BRDA:1584,0,2,91
BRDA:1584,e0,3,0
BRDA:1588,0,0,186
BRDA:1588,0,1,12
BRDA:1588,0,2,9
BRDA:1588,0,3,177
BRDA:1588,0,4,9
BRDA:1588,0,5,189
BRDA:1590,0,0,9
BRDA:1590,e0,1,0
BRDA:1590,0,2,9
BRDA:1590,e0,3,0
BRDA:1591,0,0,9
BRDA:1591,e0,1,0
BRDA:1591,0,2,9
BRDA:1591,e0,3,0
BRDA:1594,0,0,58
BRDA:1594,0,1,140
BRDA:1596,0,0,58
BRDA:1596,e0,1,0
BRDA:1596,0,2,58
BRDA:1596,e0,3,0
BRDA:1597,0,0,58
BRDA:1597,e0,1,0
BRDA:1597,0,2,58
BRDA:1597,e0,3,0
BRDA:1600,0,0,12
BRDA:1600,0,1,186
BRDA:1602,0,0,12
BRDA:1602,e0,1,0
BRDA:1602,0,2,12
BRDA:1602,e0,3,0
BRDA:1603,0,0,12
BRDA:1603,e0,1,0
BRDA:1603,0,2,12
BRDA:1603,e0,3,0
BRDA:1606,0,0,0
BRDA:1606,0,1,198
BRDA:1608,0,0,-
BRDA:1608,e0,1,-
BRDA:1608,0,2,-
BRDA:1608,e0,3,-
BRDA:1608,0,4,-
BRDA:1608,e0,5,-
BRDA:1611,0,0,0
BRDA:1611,0,1,198
BRDA:1613,0,0,-
BRDA:1613,e0,1,-
BRDA:1613,0,2,-
BRDA:1613,e0,3,-
BRDA:1613,0,4,-
BRDA:1613,e0,5,-
BRDA:1616,0,0,58
BRDA:1616,0,1,140
BRDA:1618,0,0,58
BRDA:1618,e0,1,0
BRDA:1620,0,0,58
BRDA:1620,e0,1,0
BRDA:1620,0,2,58
BRDA:1620,e0,3,0
BRDA:1622,0,0,58
BRDA:1622,e0,1,0
BRDA:1622,0,2,23
BRDA:1622,0,3,35
BRDA:1624,0,0,23
BRDA:1624,e0,1,0
BRDA:1624,0,2,23
BRDA:1624,e0,3,0
BRDA:1624,0,4,23
BRDA:1624,e0,5,0
BRDA:1624,0,6,23
BRDA:1624,e0,7,0
BRDA:1627,0,0,58
BRDA:1627,e0,1,0
BRDA:1627,0,2,29
BRDA:1627,0,3,29
BRDA:1629,0,0,29
BRDA:1629,e0,1,0
BRDA:1629,0,2,29
BRDA:1629,e0,3,0
BRDA:1629,0,4,29
BRDA:1629,e0,5,0
BRDA:1629,0,6,29
BRDA:1629,e0,7,0
BRDA:1632,0,0,58
BRDA:1632,e0,1,0
BRDA:1632,0,2,5
BRDA:1632,0,3,53
BRDA:1634,0,0,5
BRDA:1634,e0,1,0
BRDA:1634,0,2,5
BRDA:1634,e0,3,0
BRDA:1634,0,4,5
BRDA:1634,e0,5,0
BRDA:1634,0,6,5
BRDA:1634,e0,7,0
BRDA:1637,0,0,58
BRDA:1637,e0,1,0
BRDA:1637,0,2,18
BRDA:1637,0,3,40
BRDA:1639,0,0,18
BRDA:1639,e0,1,0
BRDA:1639,0,2,18
BRDA:1639,e0,3,0
BRDA:1639,0,4,18
BRDA:1639,e0,5,0
BRDA:1639,0,6,18
BRDA:1639,e0,7,0
BRDA:1642,0,0,58
BRDA:1642,e0,1,0
BRDA:1642,0,2,9
BRDA:1642,0,3,49
BRDA:1644,0,0,9
BRDA:1644,e0,1,0
BRDA:1644,0,2,9
BRDA:1644,e0,3,0
BRDA:1644,0,4,9
BRDA:1644,e0,5,0
BRDA:1644,0,6,9
BRDA:1644,e0,7,0
BRDA:1647,0,0,58
BRDA:1647,e0,1,0
BRDA:1647,0,2,8
BRDA:1647,0,3,50
BRDA:1649,0,0,8
BRDA:1649,e0,1,0
BRDA:1649,0,2,8
BRDA:1649,e0,3,0
BRDA:1649,0,4,8
BRDA:1649,e0,5,0
BRDA:1649,0,6,8
BRDA:1649,e0,7,0
BRDA:1652,0,0,58
BRDA:1652,e0,1,0
BRDA:1652,0,2,58
BRDA:1652,e0,3,0
BRDA:1655,0,0,1
BRDA:1655,0,1,197
BRDA:1657,0,0,1
BRDA:1657,e0,1,0
BRDA:1659,0,0,1
BRDA:1659,e0,1,0
BRDA:1659,0,2,1
BRDA:1659,e0,3,0
BRDA:1660,0,0,1
BRDA:1660,e0,1,0
BRDA:1660,0,2,1
BRDA:1660,e0,3,0
BRDA:1660,0,4,1
BRDA:1660,e0,5,0
BRDA:1660,0,6,1
BRDA:1660,e0,7,0
BRDA:1661,0,0,1
BRDA:1661,e0,1,0
BRDA:1661,0,2,1
BRDA:1661,e0,3,0
BRDA:1661,0,4,1
BRDA:1661,e0,5,0
BRDA:1661,0,6,1
BRDA:1661,e0,7,0
BRDA:1662,0,0,1
BRDA:1662,e0,1,0
BRDA:1662,0,2,1
BRDA:1662,e0,3,0
BRDA:1665,0,0,198
BRDA:1665,e0,1,0
BRDA:1665,0,2,198
BRDA:1665,e0,3,0
BRDA:1668,0,0,45
BRDA:1668,e0,1,0
BRDA:1668,0,2,45
BRDA:1668,e0,3,0
BRDA:1671,0,0,45
BRDA:1671,0,1,0
BRDA:1673,0,0,45
BRDA:1673,e0,1,0
BRDA:1673,0,2,45
BRDA:1673,e0,3,0
BRDA:1674,0,0,45
BRDA:1674,e0,1,0
BRDA:1674,0,2,45
BRDA:1674,e0,3,0
BRDA:1677,0,0,230
BRDA:1677,0,1,45
BRDA:1679,0,0,230
BRDA:1679,e0,1,0
BRDA:1681,0,0,230
BRDA:1681,e0,1,0
BRDA:1681,0,2,230
BRDA:1681,e0,3,0
BRDA:1683,0,0,230
BRDA:1683,e0,1,0
BRDA:1683,0,2,230
BRDA:1683,e0,3,0
BRDA:1683,0,4,230
BRDA:1683,e0,5,0
BRDA:1684,0,0,230
BRDA:1684,e0,1,0
BRDA:1684,0,2,230
BRDA:1684,e0,3,0
BRDA:1686,0,0,219
BRDA:1686,0,1,11
BRDA:1688,0,0,219
BRDA:1688,e0,1,0
BRDA:1688,0,2,219
BRDA:1688,e0,3,0
BRDA:1688,0,4,219
BRDA:1688,e0,5,0
BRDA:1691,0,0,0
BRDA:1691,0,1,230
BRDA:1693,0,0,-
BRDA:1693,e0,1,-
BRDA:1693,0,2,-
BRDA:1693,e0,3,-
BRDA:1693,0,4,-
BRDA:1693,e0,5,-
BRDA:1696,0,0,219
BRDA:1696,0,1,11
BRDA:1696,0,2,164
BRDA:1696,0,3,55
BRDA:1696,0,4,164
BRDA:1696,0,5,66
BRDA:1698,0,0,164
BRDA:1698,e0,1,0
BRDA:1698,0,2,164
BRDA:1698,e0,3,0
BRDA:1698,0,4,164
BRDA:1698,e0,5,0
BRDA:1701,0,0,230
BRDA:1701,e0,1,0
BRDA:1701,0,2,230
BRDA:1701,e0,3,0
BRDA:1704,0,0,45
BRDA:1704,e0,1,0
BRDA:1704,0,2,45
BRDA:1704,e0,3,0
BRDA:1708,0,0,45
BRDA:1708,e0,1,0
BRDA:1708,0,2,45
BRDA:1708,e0,3,0
BRDA:1709,0,0,45
BRDA:1709,e0,1,0
BRDA:1709,0,2,45
BRDA:1709,e0,3,0
BRDA:1711,0,0,0
BRDA:1711,0,1,45
BRDA:1713,0,0,-
BRDA:1713,e0,1,-
BRDA:1713,0,2,-
BRDA:1713,e0,3,-
BRDA:1715,0,0,-
BRDA:1715,0,1,-
BRDA:1717,0,0,-
BRDA:1717,e0,1,-
BRDA:1717,0,2,-
BRDA:1717,e0,3,-
BRDA:1718,0,0,-
BRDA:1718,e0,1,-
BRDA:1721,0,0,-
BRDA:1721,0,1,-
BRDA:1723,0,0,-
BRDA:1723,e0,1,-
BRDA:1723,0,2,-
BRDA:1723,e0,3,-
BRDA:1724,0,0,-
BRDA:1724,e0,1,-
BRDA:1727,0,0,-
BRDA:1727,0,1,-
BRDA:1729,0,0,-
BRDA:1729,e0,1,-
BRDA:1729,0,2,-
BRDA:1729,e0,3,-
BRDA:1730,0,0,-
BRDA:1730,e0,1,-
BRDA:1733,0,0,-
BRDA:1733,e0,1,-
BRDA:1733,0,2,-
BRDA:1733,e0,3,-
BRDA:1736,0,0,45
BRDA:1736,e0,1,0
BRDA:1736,0,2,45
BRDA:1736,e0,3,0
BRDA:1738,0,0,45
BRDA:1738,e0,1,0
BRDA:1738,0,2,45
BRDA:1738,e0,3,0
BRDA:1739,0,0,45
BRDA:1739,e0,1,0
BRDA:1739,0,2,45
BRDA:1739,e0,3,0
BRDA:1740,0,0,45
BRDA:1740,e0,1,0
BRDA:1740,0,2,45
BRDA:1740,e0,3,0
BRDA:1741,0,0,45
BRDA:1741,e0,1,0
BRDA:1741,0,2,45
BRDA:1741,e0,3,0
BRDA:1742,0,0,45
BRDA:1742,e0,1,0
BRDA:1742,0,2,45
BRDA:1742,e0,3,0
BRDA:1744,0,0,1
BRDA:1744,0,1,44
BRDA:1746,0,0,1
BRDA:1746,e0,1,0
BRDA:1746,0,2,1
BRDA:1746,e0,3,0
BRDA:1747,0,0,1
BRDA:1747,e0,1,0
BRDA:1747,0,2,1
BRDA:1747,e0,3,0
BRDA:1749,0,0,13
BRDA:1749,0,1,1
BRDA:1751,0,0,13
BRDA:1751,e0,1,0
BRDA:1751,0,2,13
BRDA:1751,e0,3,0
BRDA:1752,0,0,13
BRDA:1752,e0,1,0
BRDA:1752,0,2,13
BRDA:1752,e0,3,0
BRDA:1752,0,4,13
BRDA:1752,e0,5,0
BRDA:1752,0,6,13
BRDA:1752,e0,7,0
BRDA:1753,0,0,13
BRDA:1753,e0,1,0
BRDA:1753,0,2,13
BRDA:1753,e0,3,0
BRDA:1756,0,0,1
BRDA:1756,e0,1,0
BRDA:1756,0,2,1
BRDA:1756,e0,3,0
BRDA:1757,0,0,1
BRDA:1757,e0,1,0
BRDA:1757,0,2,1
BRDA:1757,e0,3,0
BRDA:1762,0,0,27
BRDA:1762,0,1,18
BRDA:1764,0,0,27
BRDA:1764,e0,1,0
BRDA:1764,0,2,27
BRDA:1764,e0,3,0
BRDA:1766,0,0,27
BRDA:1766,0,1,0
BRDA:1768,0,0,27
BRDA:1768,e0,1,0
BRDA:1768,0,2,27
BRDA:1768,e0,3,0
BRDA:1769,0,0,27
BRDA:1769,e0,1,0
BRDA:1769,0,2,27
BRDA:1769,e0,3,0
BRDA:1770,0,0,27
BRDA:1770,e0,1,0
BRDA:1770,0,2,27
BRDA:1770,e0,3,0
BRDA:1771,0,0,27
BRDA:1771,e0,1,0
BRDA:1771,0,2,27
BRDA:1771,e0,3,0
BRDA:1772,0,0,27
BRDA:1772,e0,1,0
BRDA:1772,0,2,27
BRDA:1772,e0,3,0
BRDA:1772,0,4,27
BRDA:1772,e0,5,0
BRDA:1772,0,6,27
BRDA:1772,e0,7,0
BRDA:1773,0,0,27
BRDA:1773,e0,1,0
BRDA:1773,0,2,27
BRDA:1773,e0,3,0
BRDA:1774,0,0,27
BRDA:1774,e0,1,0
BRDA:1774,0,2,27
BRDA:1774,e0,3,0
BRDA:1777,0,0,27
BRDA:1777,e0,1,0
BRDA:1777,0,2,27
BRDA:1777,e0,3,0
BRDA:1780,0,0,45
BRDA:1780,e0,1,0
BRDA:1780,0,2,45
BRDA:1780,e0,3,0
BRDA:1785,0,0,4
BRDA:1785,0,1,40
BRDA:1785,0,2,4
BRDA:1785,0,3,0
BRDA:1785,0,4,4
BRDA:1785,e0,5,0
BRDA:1785,0,6,4
BRDA:1785,e0,7,0
BRDA:1785,0,8,0
BRDA:1785,0,9,0
BRDA:1786,0,0,4
BRDA:1786,0,1,40
BRDA:1786,0,2,4
BRDA:1786,0,3,0
BRDA:1786,0,4,4
BRDA:1786,e0,5,0
BRDA:1786,0,6,4
BRDA:1786,e0,7,0
BRDA:1786,0,8,0
BRDA:1786,0,9,0
BRDA:1788,0,0,44
BRDA:1788,e0,1,0
BRDA:1788,0,2,44
BRDA:1788,e0,3,0
BRDA:1789,0,0,44
BRDA:1789,e0,1,0
BRDA:1789,0,2,44
BRDA:1789,e0,3,0
BRDA:1790,0,0,44
BRDA:1790,e0,1,0
BRDA:1790,0,2,44
BRDA:1790,e0,3,0
BRDA:1792,0,0,44
BRDA:1792,e0,1,0
BRDA:1792,0,2,44
BRDA:1792,e0,3,0
BRDA:1793,0,0,44
BRDA:1793,e0,1,0
BRDA:1793,0,2,44
BRDA:1793,e0,3,0
BRDA:1794,0,0,44
BRDA:1794,e0,1,0
BRDA:1794,0,2,44
BRDA:1794,e0,3,0
BRDA:1816,0,0,44
BRDA:1816,e0,1,0
BRDA:1816,0,2,528
BRDA:1816,0,3,44
BRDA:1816,0,4,0
BRDA:1816,0,5,0
BRDA:1818,0,0,528
BRDA:1818,e0,1,0
BRDA:1818,0,2,528
BRDA:1818,0,3,44
BRDA:1820,0,0,528
BRDA:1820,e0,1,0
BRDA:1821,0,0,528
BRDA:1821,e0,1,0
BRDA:1822,0,0,528
BRDA:1822,e0,1,0
BRDA:1822,0,2,528
BRDA:1822,e0,3,0
BRDA:1822,0,4,528
BRDA:1822,e0,5,0
BRDA:1824,0,0,528
BRDA:1824,e0,1,0
BRDA:1824,0,2,44
BRDA:1824,0,3,484
BRDA:1826,0,0,44
BRDA:1826,e0,1,0
BRDA:1826,0,2,44
BRDA:1826,e0,3,0
BRDA:1828,0,0,484
BRDA:1828,e0,1,0
BRDA:1828,0,2,44
BRDA:1828,0,3,440
BRDA:1830,0,0,44
BRDA:1830,e0,1,0
BRDA:1830,0,2,44
BRDA:1830,e0,3,0
BRDA:1833,0,0,528
BRDA:1833,e0,1,0
BRDA:1834,0,0,528
BRDA:1834,e0,1,0
BRDA:1837,0,0,44
BRDA:1837,e0,1,0
BRDA:1837,0,2,44
BRDA:1837,e0,3,0
BRDA:1866,0,0,4
BRDA:1866,0,1,40
BRDA:1866,0,2,4
BRDA:1866,0,3,0
BRDA:1866,0,4,4
BRDA:1866,e0,5,0
BRDA:1866,0,6,132
BRDA:1866,0,7,4
BRDA:1866,0,8,0
BRDA:1866,0,9,0
BRDA:1866,0,10,0
BRDA:1866,0,11,0
BRDA:1868,0,0,44
BRDA:1868,e0,1,0
BRDA:1868,0,2,44
BRDA:1868,e0,3,0
BRDA:1869,0,0,44
BRDA:1869,e0,1,0
BRDA:1869,0,2,44
BRDA:1869,e0,3,0
BRDA:1871,0,0,88
BRDA:1871,0,1,44
BRDA:1873,0,0,44
BRDA:1873,0,1,44
BRDA:1873,0,2,88
BRDA:1873,e0,3,0
BRDA:1873,0,4,88
BRDA:1873,e0,5,0
BRDA:1875,0,0,2904
BRDA:1875,0,1,88
BRDA:1877,0,0,1452
BRDA:1877,0,1,1452
BRDA:1877,0,2,2904
BRDA:1877,e0,3,0
BRDA:1879,0,0,264
BRDA:1879,0,1,2640
BRDA:1881,0,0,264
BRDA:1881,e0,1,0
BRDA:1882,0,0,264
BRDA:1882,e0,1,0
BRDA:1882,0,2,264
BRDA:1882,e0,3,0
BRDA:1882,0,4,264
BRDA:1882,e0,5,0
BRDA:1884,0,0,264
BRDA:1884,e0,1,0
BRDA:1884,0,2,44
BRDA:1884,0,3,220
BRDA:1886,0,0,44
BRDA:1886,e0,1,0
BRDA:1886,0,2,44
BRDA:1886,e0,3,0
BRDA:1888,0,0,220
BRDA:1888,e0,1,0
BRDA:1888,0,2,44
BRDA:1888,0,3,176
BRDA:1890,0,0,44
BRDA:1890,e0,1,0
BRDA:1890,0,2,44
BRDA:1890,e0,3,0
BRDA:1893,0,0,264
BRDA:1893,e0,1,0
BRDA:1897,0,0,2640
BRDA:1897,e0,1,0
BRDA:1897,0,2,2640
BRDA:1897,e0,3,0
BRDA:1898,0,0,2640
BRDA:1898,e0,1,0
BRDA:1898,0,2,2640
BRDA:1898,e0,3,0
BRDA:1898,0,4,2640
BRDA:1898,e0,5,0
BRDA:1899,0,0,2640
BRDA:1899,e0,1,0
BRDA:1899,0,2,2640
BRDA:1899,e0,3,0
BRDA:1899,0,4,2640
BRDA:1899,e0,5,0
BRDA:1900,0,0,2640
BRDA:1900,e0,1,0
BRDA:1900,0,2,2640
BRDA:1900,e0,3,0
BRDA:1904,0,0,44
BRDA:1904,0,1,44
BRDA:1904,0,2,88
BRDA:1904,e0,3,0
BRDA:1904,0,4,88
BRDA:1904,e0,5,0
BRDA:1907,0,0,44
BRDA:1907,e0,1,0
BRDA:1907,0,2,44
BRDA:1907,e0,3,0
BRDA:1909,0,0,44
BRDA:1909,e0,1,0
BRDA:1909,0,2,44
BRDA:1909,e0,3,0
BRDA:1910,0,0,44
BRDA:1910,e0,1,0
BRDA:1910,0,2,44
BRDA:1910,e0,3,0
BRDA:1912,0,0,44
BRDA:1912,e0,1,0
BRDA:1912,0,2,44
BRDA:1912,e0,3,0
BRDA:1913,0,0,44
BRDA:1913,e0,1,0
BRDA:1913,0,2,44
BRDA:1913,e0,3,0
BRDA:1914,0,0,44
BRDA:1914,e0,1,0
BRDA:1914,0,2,44
BRDA:1914,e0,3,0
BRDA:1915,0,0,44
BRDA:1915,e0,1,0
BRDA:1915,0,2,44
BRDA:1915,e0,3,0
BRDA:1916,0,0,44
BRDA:1916,e0,1,0
BRDA:1916,0,2,44
BRDA:1916,e0,3,0
BRDA:1917,0,0,44
BRDA:1917,e0,1,0
BRDA:1917,0,2,44
BRDA:1917,e0,3,0
BRDA:1919,0,0,44
BRDA:1919,e0,1,0
BRDA:1919,0,2,44
BRDA:1919,e0,3,0
BRDA:1920,0,0,44
BRDA:1920,e0,1,0
BRDA:1920,0,2,44
BRDA:1920,e0,3,0
BRDA:1921,0,0,44
BRDA:1921,e0,1,0
BRDA:1921,0,2,44
BRDA:1921,e0,3,0
BRDA:1923,0,0,44
BRDA:1923,e0,1,0
BRDA:1923,0,2,44
BRDA:1923,e0,3,0
BRDA:1924,0,0,44
BRDA:1924,e0,1,0
BRDA:1924,0,2,44
BRDA:1924,e0,3,0
BRDA:1925,0,0,44
BRDA:1925,e0,1,0
BRDA:1925,0,2,44
BRDA:1925,e0,3,0
BRDA:1926,0,0,44
BRDA:1926,e0,1,0
BRDA:1926,0,2,44
BRDA:1926,e0,3,0
BRDA:1927,0,0,44
BRDA:1927,e0,1,0
BRDA:1927,0,2,44
BRDA:1927,e0,3,0
BRDA:1928,0,0,44
BRDA:1928,e0,1,0
BRDA:1928,0,2,44
BRDA:1928,e0,3,0
BRDA:1929,0,0,44
BRDA:1929,e0,1,0
BRDA:1929,0,2,44
BRDA:1929,e0,3,0
BRDA:1930,0,0,44
BRDA:1930,e0,1,0
BRDA:1930,0,2,44
BRDA:1930,e0,3,0
BRDA:1931,0,0,44
BRDA:1931,e0,1,0
BRDA:1931,0,2,44
BRDA:1931,e0,3,0
BRDA:1932,0,0,44
BRDA:1932,e0,1,0
BRDA:1932,0,2,44
BRDA:1932,e0,3,0
BRDA:1933,0,0,44
BRDA:1933,e0,1,0
BRDA:1933,0,2,44
BRDA:1933,e0,3,0
BRDA:1934,0,0,44
BRDA:1934,e0,1,0
BRDA:1934,0,2,44
BRDA:1934,e0,3,0
BRDA:1935,0,0,44
BRDA:1935,e0,1,0
BRDA:1935,0,2,44
BRDA:1935,e0,3,0
BRDA:1936,0,0,44
BRDA:1936,e0,1,0
BRDA:1936,0,2,44
BRDA:1936,e0,3,0
BRDA:1937,0,0,44
BRDA:1937,e0,1,0
BRDA:1937,0,2,44
BRDA:1937,e0,3,0
BRDA:1939,0,0,44
BRDA:1939,e0,1,0
BRDA:1939,0,2,44
BRDA:1939,e0,3,0
BRDA:1940,0,0,44
BRDA:1940,e0,1,0
BRDA:1940,0,2,44
BRDA:1940,e0,3,0
BRDA:1941,0,0,44
BRDA:1941,e0,1,0
BRDA:1941,0,2,44
BRDA:1941,e0,3,0
BRDA:1942,0,0,44
BRDA:1942,e0,1,0
BRDA:1942,0,2,44
BRDA:1942,e0,3,0
BRDA:1943,0,0,44
BRDA:1943,e0,1,0
BRDA:1943,0,2,44
BRDA:1943,e0,3,0
BRDA:1944,0,0,44
BRDA:1944,e0,1,0
BRDA:1944,0,2,44
BRDA:1944,e0,3,0
BRDA:1945,0,0,44
BRDA:1945,e0,1,0
BRDA:1945,0,2,44
BRDA:1945,e0,3,0
BRDA:1946,0,0,44
BRDA:1946,e0,1,0
BRDA:1946,0,2,44
BRDA:1946,e0,3,0
BRDA:1947,0,0,44
BRDA:1947,e0,1,0
BRDA:1947,0,2,44
BRDA:1947,e0,3,0
BRDA:1948,0,0,44
BRDA:1948,e0,1,0
BRDA:1948,0,2,44
BRDA:1948,e0,3,0
BRDA:1949,0,0,44
BRDA:1949,e0,1,0
BRDA:1949,0,2,44
BRDA:1949,e0,3,0
BRDA:1950,0,0,44
BRDA:1950,e0,1,0
BRDA:1950,0,2,44
BRDA:1950,e0,3,0
BRDA:1951,0,0,44
BRDA:1951,e0,1,0
BRDA:1951,0,2,44
BRDA:1951,e0,3,0
BRDA:1952,0,0,44
BRDA:1952,e0,1,0
BRDA:1952,0,2,44
BRDA:1952,e0,3,0
BRDA:1953,0,0,44
BRDA:1953,e0,1,0
BRDA:1953,0,2,44
BRDA:1953,e0,3,0
BRDA:1955,0,0,44
BRDA:1955,e0,1,0
BRDA:1955,0,2,44
BRDA:1955,e0,3,0
BRDA:1956,0,0,44
BRDA:1956,e0,1,0
BRDA:1956,0,2,44
BRDA:1956,e0,3,0
BRDA:1957,0,0,44
BRDA:1957,e0,1,0
BRDA:1957,0,2,44
BRDA:1957,e0,3,0
BRDA:1958,0,0,44
BRDA:1958,e0,1,0
BRDA:1958,0,2,44
BRDA:1958,e0,3,0
BRDA:1959,0,0,44
BRDA:1959,e0,1,0
BRDA:1959,0,2,44
BRDA:1959,e0,3,0
BRDA:1960,0,0,44
BRDA:1960,e0,1,0
BRDA:1960,0,2,44
BRDA:1960,e0,3,0
BRDA:1961,0,0,44
BRDA:1961,e0,1,0
BRDA:1961,0,2,44
BRDA:1961,e0,3,0
BRDA:1962,0,0,44
BRDA:1962,e0,1,0
BRDA:1962,0,2,44
BRDA:1962,e0,3,0
BRDA:1963,0,0,44
BRDA:1963,e0,1,0
BRDA:1963,0,2,44
BRDA:1963,e0,3,0
BRDA:1964,0,0,44
BRDA:1964,e0,1,0
BRDA:1964,0,2,44
BRDA:1964,e0,3,0
BRDA:1965,0,0,44
BRDA:1965,e0,1,0
BRDA:1965,0,2,44
BRDA:1965,e0,3,0
BRDA:1966,0,0,44
BRDA:1966,e0,1,0
BRDA:1966,0,2,44
BRDA:1966,e0,3,0
BRDA:1967,0,0,44
BRDA:1967,e0,1,0
BRDA:1967,0,2,44
BRDA:1967,e0,3,0
BRDA:1968,0,0,44
BRDA:1968,e0,1,0
BRDA:1968,0,2,44
BRDA:1968,e0,3,0
BRDA:1969,0,0,44
BRDA:1969,e0,1,0
BRDA:1969,0,2,44
BRDA:1969,e0,3,0
BRDA:1971,0,0,44
BRDA:1971,e0,1,0
BRDA:1971,0,2,44
BRDA:1971,e0,3,0
BRDA:1973,0,0,44
BRDA:1973,e0,1,0
BRDA:1973,0,2,44
BRDA:1973,e0,3,0
BRDA:1974,0,0,44
BRDA:1974,e0,1,0
BRDA:1974,0,2,44
BRDA:1974,e0,3,0
BRDA:1975,0,0,44
BRDA:1975,e0,1,0
BRDA:1975,0,2,44
BRDA:1975,e0,3,0
BRDA:1976,0,0,44
BRDA:1976,e0,1,0
BRDA:1976,0,2,44
BRDA:1976,e0,3,0
BRDA:1978,0,0,44
BRDA:1978,e0,1,0
BRDA:1978,0,2,44
BRDA:1978,e0,3,0
BRDA:1980,0,0,44
BRDA:1980,e0,1,0
BRDA:1980,0,2,44
BRDA:1980,e0,3,0
BRDA:1981,0,0,44
BRDA:1981,e0,1,0
BRDA:1981,0,2,44
BRDA:1981,e0,3,0
BRDA:1982,0,0,44
BRDA:1982,e0,1,0
BRDA:1982,0,2,44
BRDA:1982,e0,3,0
BRDA:1984,0,0,44
BRDA:1984,e0,1,0
BRDA:1984,0,2,44
BRDA:1984,e0,3,0
BRDA:1985,0,0,44
BRDA:1985,e0,1,0
BRDA:1985,0,2,44
BRDA:1985,e0,3,0
BRDA:1986,0,0,44
BRDA:1986,e0,1,0
BRDA:1986,0,2,44
BRDA:1986,e0,3,0
BRDA:1987,0,0,44
BRDA:1987,e0,1,0
BRDA:1987,0,2,44
BRDA:1987,e0,3,0
BRDA:1988,0,0,44
BRDA:1988,e0,1,0
BRDA:1988,0,2,44
BRDA:1988,e0,3,0
BRDA:1989,0,0,44
BRDA:1989,e0,1,0
BRDA:1989,0,2,44
BRDA:1989,e0,3,0
BRDA:1990,0,0,44
BRDA:1990,e0,1,0
BRDA:1990,0,2,44
BRDA:1990,e0,3,0
BRDA:1991,0,0,44
BRDA:1991,e0,1,0
BRDA:1991,0,2,44
BRDA:1991,e0,3,0
BRDA:1992,0,0,44
BRDA:1992,e0,1,0
BRDA:1992,0,2,44
BRDA:1992,e0,3,0
BRDA:1993,0,0,44
BRDA:1993,e0,1,0
BRDA:1993,0,2,44
BRDA:1993,e0,3,0
BRDA:1994,0,0,44
BRDA:1994,e0,1,0
BRDA:1994,0,2,44
BRDA:1994,e0,3,0
BRDA:1995,0,0,44
BRDA:1995,e0,1,0
BRDA:1995,0,2,44
BRDA:1995,e0,3,0
BRDA:1996,0,0,44
BRDA:1996,e0,1,0
BRDA:1996,0,2,44
BRDA:1996,e0,3,0
BRDA:1997,0,0,44
BRDA:1997,e0,1,0
BRDA:1997,0,2,44
BRDA:1997,e0,3,0
BRDA:1998,0,0,44
BRDA:1998,e0,1,0
BRDA:1998,0,2,44
BRDA:1998,e0,3,0
BRDA:2000,0,0,44
BRDA:2000,e0,1,0
BRDA:2000,0,2,44
BRDA:2000,e0,3,0
BRDA:2001,0,0,44
BRDA:2001,e0,1,0
BRDA:2001,0,2,44
BRDA:2001,e0,3,0
BRDA:2002,0,0,44
BRDA:2002,e0,1,0
BRDA:2002,0,2,44
BRDA:2002,e0,3,0
BRDA:2003,0,0,44
BRDA:2003,e0,1,0
BRDA:2003,0,2,44
BRDA:2003,e0,3,0
BRDA:2004,0,0,44
BRDA:2004,e0,1,0
BRDA:2004,0,2,44
BRDA:2004,e0,3,0
BRDA:2005,0,0,44
BRDA:2005,e0,1,0
BRDA:2005,0,2,44
BRDA:2005,e0,3,0
BRDA:2006,0,0,44
BRDA:2006,e0,1,0
BRDA:2006,0,2,44
BRDA:2006,e0,3,0
BRDA:2007,0,0,44
BRDA:2007,e0,1,0
BRDA:2007,0,2,44
BRDA:2007,e0,3,0
BRDA:2008,0,0,44
BRDA:2008,e0,1,0
BRDA:2008,0,2,44
BRDA:2008,e0,3,0
BRDA:2009,0,0,44
BRDA:2009,e0,1,0
BRDA:2009,0,2,44
BRDA:2009,e0,3,0
BRDA:2010,0,0,44
BRDA:2010,e0,1,0
BRDA:2010,0,2,44
BRDA:2010,e0,3,0
BRDA:2011,0,0,44
BRDA:2011,e0,1,0
BRDA:2011,0,2,44
BRDA:2011,e0,3,0
BRDA:2012,0,0,44
BRDA:2012,e0,1,0
BRDA:2012,0,2,44
BRDA:2012,e0,3,0
BRDA:2013,0,0,44
BRDA:2013,e0,1,0
BRDA:2013,0,2,44
BRDA:2013,e0,3,0
BRDA:2014,0,0,44
BRDA:2014,e0,1,0
BRDA:2014,0,2,44
BRDA:2014,e0,3,0
BRDA:2016,0,0,44
BRDA:2016,e0,1,0
BRDA:2016,0,2,44
BRDA:2016,e0,3,0
BRDA:2017,0,0,44
BRDA:2017,e0,1,0
BRDA:2017,0,2,44
BRDA:2017,e0,3,0
BRDA:2018,0,0,44
BRDA:2018,e0,1,0
BRDA:2018,0,2,44
BRDA:2018,e0,3,0
BRDA:2019,0,0,44
BRDA:2019,e0,1,0
BRDA:2019,0,2,44
BRDA:2019,e0,3,0
BRDA:2020,0,0,44
BRDA:2020,e0,1,0
BRDA:2020,0,2,44
BRDA:2020,e0,3,0
BRDA:2021,0,0,44
BRDA:2021,e0,1,0
BRDA:2021,0,2,44
BRDA:2021,e0,3,0
BRDA:2022,0,0,44
BRDA:2022,e0,1,0
BRDA:2022,0,2,44
BRDA:2022,e0,3,0
BRDA:2023,0,0,44
BRDA:2023,e0,1,0
BRDA:2023,0,2,44
BRDA:2023,e0,3,0
BRDA:2024,0,0,44
BRDA:2024,e0,1,0
BRDA:2024,0,2,44
BRDA:2024,e0,3,0
BRDA:2025,0,0,44
BRDA:2025,e0,1,0
BRDA:2025,0,2,44
BRDA:2025,e0,3,0
BRDA:2026,0,0,44
BRDA:2026,e0,1,0
BRDA:2026,0,2,44
BRDA:2026,e0,3,0
BRDA:2027,0,0,44
BRDA:2027,e0,1,0
BRDA:2027,0,2,44
BRDA:2027,e0,3,0
BRDA:2028,0,0,44
BRDA:2028,e0,1,0
BRDA:2028,0,2,44
BRDA:2028,e0,3,0
BRDA:2029,0,0,44
BRDA:2029,e0,1,0
BRDA:2029,0,2,44
BRDA:2029,e0,3,0
BRDA:2030,0,0,44
BRDA:2030,e0,1,0
BRDA:2030,0,2,44
BRDA:2030,e0,3,0
BRDA:2032,0,0,44
BRDA:2032,e0,1,0
BRDA:2032,0,2,44
BRDA:2032,e0,3,0
BRDA:2034,0,0,44
BRDA:2034,e0,1,0
BRDA:2034,0,2,44
BRDA:2034,e0,3,0
BRDA:2035,0,0,44
BRDA:2035,e0,1,0
BRDA:2035,0,2,44
BRDA:2035,e0,3,0
BRDA:2036,0,0,44
BRDA:2036,e0,1,0
BRDA:2036,0,2,44
BRDA:2036,e0,3,0
BRDA:2037,0,0,44
BRDA:2037,e0,1,0
BRDA:2037,0,2,44
BRDA:2037,e0,3,0
BRDA:2039,0,0,44
BRDA:2039,e0,1,0
BRDA:2039,0,2,44
BRDA:2039,e0,3,0
BRDA:2040,0,0,44
BRDA:2040,e0,1,0
BRDA:2040,0,2,44
BRDA:2040,e0,3,0
BRDA:2042,0,0,44
BRDA:2042,e0,1,0
BRDA:2042,0,2,44
BRDA:2042,e0,3,0
BRDA:2044,0,0,44
BRDA:2044,e0,1,0
BRDA:2044,0,2,44
BRDA:2044,e0,3,0
BRDA:2045,0,0,44
BRDA:2045,e0,1,0
BRDA:2045,0,2,44
BRDA:2045,e0,3,0
BRDA:2046,0,0,44
BRDA:2046,e0,1,0
BRDA:2046,0,2,44
BRDA:2046,e0,3,0
BRDA:2047,0,0,44
BRDA:2047,e0,1,0
BRDA:2047,0,2,44
BRDA:2047,e0,3,0
BRDA:2048,0,0,44
BRDA:2048,e0,1,0
BRDA:2048,0,2,44
BRDA:2048,e0,3,0
BRDA:2049,0,0,44
BRDA:2049,e0,1,0
BRDA:2049,0,2,44
BRDA:2049,e0,3,0
BRDA:2050,0,0,44
BRDA:2050,e0,1,0
BRDA:2050,0,2,44
BRDA:2050,e0,3,0
BRDA:2051,0,0,44
BRDA:2051,e0,1,0
BRDA:2051,0,2,44
BRDA:2051,e0,3,0
BRDA:2052,0,0,44
BRDA:2052,e0,1,0
BRDA:2052,0,2,44
BRDA:2052,e0,3,0
BRDA:2053,0,0,44
BRDA:2053,e0,1,0
BRDA:2053,0,2,44
BRDA:2053,e0,3,0
BRDA:2054,0,0,44
BRDA:2054,e0,1,0
BRDA:2054,0,2,44
BRDA:2054,e0,3,0
BRDA:2055,0,0,44
BRDA:2055,e0,1,0
BRDA:2055,0,2,44
BRDA:2055,e0,3,0
BRDA:2056,0,0,44
BRDA:2056,e0,1,0
BRDA:2056,0,2,44
BRDA:2056,e0,3,0
BRDA:2057,0,0,44
BRDA:2057,e0,1,0
BRDA:2057,0,2,44
BRDA:2057,e0,3,0
BRDA:2058,0,0,44
BRDA:2058,e0,1,0
BRDA:2058,0,2,44
BRDA:2058,e0,3,0
BRDA:2059,0,0,44
BRDA:2059,e0,1,0
BRDA:2059,0,2,44
BRDA:2059,e0,3,0
BRDA:2060,0,0,44
BRDA:2060,e0,1,0
BRDA:2060,0,2,44
BRDA:2060,e0,3,0
BRDA:2062,0,0,44
BRDA:2062,e0,1,0
BRDA:2062,0,2,44
BRDA:2062,e0,3,0
BRDA:2063,0,0,44
BRDA:2063,e0,1,0
BRDA:2063,0,2,44
BRDA:2063,e0,3,0
BRDA:2064,0,0,44
BRDA:2064,e0,1,0
BRDA:2064,0,2,44
BRDA:2064,e0,3,0
BRDA:2065,0,0,44
BRDA:2065,e0,1,0
BRDA:2065,0,2,44
BRDA:2065,e0,3,0
BRDA:2066,0,0,44
BRDA:2066,e0,1,0
BRDA:2066,0,2,44
BRDA:2066,e0,3,0
BRDA:2067,0,0,44
BRDA:2067,e0,1,0
BRDA:2067,0,2,44
BRDA:2067,e0,3,0
BRDA:2068,0,0,44
BRDA:2068,e0,1,0
BRDA:2068,0,2,44
BRDA:2068,e0,3,0
BRDA:2069,0,0,44
BRDA:2069,e0,1,0
BRDA:2069,0,2,44
BRDA:2069,e0,3,0
BRDA:2070,0,0,44
BRDA:2070,e0,1,0
BRDA:2070,0,2,44
BRDA:2070,e0,3,0
BRDA:2071,0,0,44
BRDA:2071,e0,1,0
BRDA:2071,0,2,44
BRDA:2071,e0,3,0
BRDA:2072,0,0,44
BRDA:2072,e0,1,0
BRDA:2072,0,2,44
BRDA:2072,e0,3,0
BRDA:2073,0,0,44
BRDA:2073,e0,1,0
BRDA:2073,0,2,44
BRDA:2073,e0,3,0
BRDA:2074,0,0,44
BRDA:2074,e0,1,0
BRDA:2074,0,2,44
BRDA:2074,e0,3,0
BRDA:2075,0,0,44
BRDA:2075,e0,1,0
BRDA:2075,0,2,44
BRDA:2075,e0,3,0
BRDA:2076,0,0,44
BRDA:2076,e0,1,0
BRDA:2076,0,2,44
BRDA:2076,e0,3,0
BRDA:2077,0,0,44
BRDA:2077,e0,1,0
BRDA:2077,0,2,44
BRDA:2077,e0,3,0
BRDA:2078,0,0,44
BRDA:2078,e0,1,0
BRDA:2078,0,2,44
BRDA:2078,e0,3,0
BRDA:2080,0,0,44
BRDA:2080,e0,1,0
BRDA:2080,0,2,44
BRDA:2080,e0,3,0
BRDA:2081,0,0,44
BRDA:2081,e0,1,0
BRDA:2081,0,2,44
BRDA:2081,e0,3,0
BRDA:2082,0,0,44
BRDA:2082,e0,1,0
BRDA:2082,0,2,44
BRDA:2082,e0,3,0
BRDA:2083,0,0,44
BRDA:2083,e0,1,0
BRDA:2083,0,2,44
BRDA:2083,e0,3,0
BRDA:2084,0,0,44
BRDA:2084,e0,1,0
BRDA:2084,0,2,44
BRDA:2084,e0,3,0
BRDA:2085,0,0,44
BRDA:2085,e0,1,0
BRDA:2085,0,2,44
BRDA:2085,e0,3,0
BRDA:2086,0,0,44
BRDA:2086,e0,1,0
BRDA:2086,0,2,44
BRDA:2086,e0,3,0
BRDA:2087,0,0,44
BRDA:2087,e0,1,0
BRDA:2087,0,2,44
BRDA:2087,e0,3,0
BRDA:2088,0,0,44
BRDA:2088,e0,1,0
BRDA:2088,0,2,44
BRDA:2088,e0,3,0
BRDA:2089,0,0,44
BRDA:2089,e0,1,0
BRDA:2089,0,2,44
BRDA:2089,e0,3,0
BRDA:2090,0,0,44
BRDA:2090,e0,1,0
BRDA:2090,0,2,44
BRDA:2090,e0,3,0
BRDA:2091,0,0,44
BRDA:2091,e0,1,0
BRDA:2091,0,2,44
BRDA:2091,e0,3,0
BRDA:2092,0,0,44
BRDA:2092,e0,1,0
BRDA:2092,0,2,44
BRDA:2092,e0,3,0
BRDA:2093,0,0,44
BRDA:2093,e0,1,0
BRDA:2093,0,2,44
BRDA:2093,e0,3,0
BRDA:2094,0,0,44
BRDA:2094,e0,1,0
BRDA:2094,0,2,44
BRDA:2094,e0,3,0
BRDA:2095,0,0,44
BRDA:2095,e0,1,0
BRDA:2095,0,2,44
BRDA:2095,e0,3,0
BRDA:2096,0,0,44
BRDA:2096,e0,1,0
BRDA:2096,0,2,44
BRDA:2096,e0,3,0
BRDA:2098,0,0,44
BRDA:2098,e0,1,0
BRDA:2098,0,2,44
BRDA:2098,e0,3,0
BRDA:2100,0,0,44
BRDA:2100,e0,1,0
BRDA:2100,0,2,44
BRDA:2100,e0,3,0
BRDA:2102,0,0,44
BRDA:2102,e0,1,0
