TN:
SF:/root/project/include/xlnt/cell/cell_reference.hpp
FN:265,_ZNKSt4hashIN4xlnt14cell_referenceEEclERKS1_
FNDA:91123,_ZNKSt4hashIN4xlnt14cell_referenceEEclERKS1_
FNF:1
FNH:1
DA:265,91123
DA:269,91123
LF:2
LH:2
end_of_record
TN:
SF:/root/project/include/xlnt/cell/index_types.hpp
FN:302,_ZNKSt4hashIN4xlnt8column_tEEclERKS1_
FNDA:46353,_ZNKSt4hashIN4xlnt8column_tEEclERKS1_
FNF:1
FNH:1
DA:302,46353
DA:305,46353
LF:2
LH:2
end_of_record
TN:
SF:/root/project/include/xlnt/cell/rich_text.hpp
FN:47,_ZN4xlnt9rich_textC2Ev
FN:167,_ZNK4xlnt14rich_text_hashclERKNS_9rich_textE
FNDA:11362,_ZNK4xlnt14rich_text_hashclERKNS_9rich_textE
FNDA:12582,_ZN4xlnt9rich_textC2Ev
FNF:2
FNH:2
DA:47,12582
DA:167,11362
DA:169,11362
DA:171,22745
DA:173,11383
DA:174,22745
DA:176,11362
LF:7
LH:7
end_of_record
TN:
SF:/root/project/include/xlnt/packaging/ext_list.hpp
FN:77,_ZN4xlnteqERKNS_8ext_list3extES3_
FNDA:0,_ZN4xlnteqERKNS_8ext_list3extES3_
FNF:1
FNH:0
DA:77,0
DA:79,0
DA:80,0
LF:3
LH:0
end_of_record
TN:
SF:/root/project/include/xlnt/styles/conditional_format.hpp
FN:56,_ZNK4xlnt9conditioneqERKS0_
FNDA:0,_ZNK4xlnt9conditioneqERKS0_
FNF:1
FNH:0
DA:56,0
DA:58,0
LF:2
LH:0
end_of_record
TN:
SF:/root/project/include/xlnt/utils/date.hpp
FN:59,_ZN4xlnt4dateC2Ev
FN:95,_ZNK4xlnt4date7is_nullEv
FNDA:100,_ZNK4xlnt4date7is_nullEv
FNDA:0,_ZN4xlnt4dateC2Ev
FNF:2
FNH:1
DA:59,0
DA:95,100
DA:97,100
LF:3
LH:2
end_of_record
TN:
SF:/root/project/include/xlnt/utils/exceptions.hpp
FN:50,_ZN4xlnt9exceptionC2ERKS0_
FN:89,_ZN4xlnt17invalid_parameterC2ERKS0_
FN:111,_ZN4xlnt19invalid_sheet_titleC2ERKS0_
FN:134,_ZN4xlnt12invalid_fileC2ERKS0_
FN:157,_ZN4xlnt17illegal_characterC2ERKS0_
FN:201,_ZN4xlnt20invalid_column_indexC2ERKS0_
FN:228,_ZN4xlnt22invalid_cell_referenceC2ERKS0_
FN:250,_ZN4xlnt17invalid_attributeC2ERKS0_
FN:272,_ZN4xlnt13key_not_foundC2ERKS0_
FNDA:29,_ZN4xlnt17illegal_characterC2ERKS0_
FNDA:21,_ZN4xlnt17invalid_attributeC2ERKS0_
FNDA:111,_ZN4xlnt9exceptionC2ERKS0_
FNDA:4,_ZN4xlnt20invalid_column_indexC2ERKS0_
FNDA:11,_ZN4xlnt19invalid_sheet_titleC2ERKS0_
FNDA:8,_ZN4xlnt17invalid_parameterC2ERKS0_
FNDA:3,_ZN4xlnt22invalid_cell_referenceC2ERKS0_
FNDA:1,_ZN4xlnt12invalid_fileC2ERKS0_
FNDA:9,_ZN4xlnt13key_not_foundC2ERKS0_
FNF:9
FNH:9
DA:50,111
DA:89,8
DA:111,11
DA:134,1
DA:157,29
DA:201,4
DA:228,3
DA:250,21
DA:272,9
LF:9
LH:9
end_of_record
TN:
SF:/root/project/include/xlnt/utils/numeric.hpp
FN:41,_ZN4xlnt6detail3absIiEET_S2_
FN:41,_ZN4xlnt6detail3absIdEET_S2_
FN:41,_ZN4xlnt6detail3absIfEET_S2_
FN:50,_ZN4xlnt6detail3maxIiiEENSt11common_typeIJT_T0_EE4typeES3_S4_
FN:50,_ZN4xlnt6detail3maxIddEENSt11common_typeIJT_T0_EE4typeES3_S4_
FN:50,_ZN4xlnt6detail3maxIidEENSt11common_typeIJT_T0_EE4typeES3_S4_
FN:50,_ZN4xlnt6detail3maxIffEENSt11common_typeIJT_T0_EE4typeES3_S4_
FN:50,_ZN4xlnt6detail3maxIdiEENSt11common_typeIJT_T0_EE4typeES3_S4_
FN:59,_ZN4xlnt6detail3minIiiEENSt11common_typeIJT_T0_EE4typeES3_S4_
FN:59,_ZN4xlnt6detail3minIidEENSt11common_typeIJT_T0_EE4typeES3_S4_
FN:59,_ZN4xlnt6detail3minIdiEENSt11common_typeIJT_T0_EE4typeES3_S4_
FN:75,_ZN4xlnt6detail12float_equalsIfdfEEbRKT0_RKT1_i
FN:75,_ZN4xlnt6detail12float_equalsIfddEEbRKT0_RKT1_i
FN:75,_ZN4xlnt6detail12float_equalsIdddEEbRKT0_RKT1_i
FN:75,_ZN4xlnt6detail12float_equalsIfffEEbRKT0_RKT1_i
FN:75,_ZN4xlnt6detail12float_equalsIddfEEbRKT0_RKT1_i
FNDA:6266,_ZN4xlnt6detail12float_equalsIfddEEbRKT0_RKT1_i
FNDA:12568,_ZN4xlnt6detail3maxIddEENSt11common_typeIJT_T0_EE4typeES3_S4_
FNDA:3,_ZN4xlnt6detail3absIiEET_S2_
FNDA:5,_ZN4xlnt6detail12float_equalsIfdfEEbRKT0_RKT1_i
FNDA:6,_ZN4xlnt6detail3minIiiEENSt11common_typeIJT_T0_EE4typeES3_S4_
FNDA:6,_ZN4xlnt6detail3maxIiiEENSt11common_typeIJT_T0_EE4typeES3_S4_
FNDA:4,_ZN4xlnt6detail12float_equalsIfffEEbRKT0_RKT1_i
FNDA:8,_ZN4xlnt6detail3absIfEET_S2_
FNDA:9,_ZN4xlnt6detail12float_equalsIddfEEbRKT0_RKT1_i
FNDA:3,_ZN4xlnt6detail3maxIdiEENSt11common_typeIJT_T0_EE4typeES3_S4_
FNDA:3,_ZN4xlnt6detail3minIidEENSt11common_typeIJT_T0_EE4typeES3_S4_
FNDA:3,_ZN4xlnt6detail3minIdiEENSt11common_typeIJT_T0_EE4typeES3_S4_
FNDA:4,_ZN4xlnt6detail12float_equalsIdddEEbRKT0_RKT1_i
FNDA:8,_ZN4xlnt6detail3maxIffEENSt11common_typeIJT_T0_EE4typeES3_S4_
FNDA:3,_ZN4xlnt6detail3maxIidEENSt11common_typeIJT_T0_EE4typeES3_S4_
FNDA:12571,_ZN4xlnt6detail3absIdEET_S2_
FNF:16
FNH:16
DA:41,12582
DA:43,12582
DA:50,12588
DA:52,12588
DA:59,12
DA:61,12
DA:75,6288
DA:87,6288
DA:89,0
DA:94,6288
DA:99,6288
DA:102,6288
LF:12
LH:11
end_of_record
TN:
SF:/root/project/include/xlnt/utils/optional.hpp
FN:58,_ZNK4xlnt8optionalIbE13compare_equalIbLPv0EEEbRKT_S6_
FN:58,_ZNK4xlnt8optionalINS_6detail13workbook_impl14file_version_tEE13compare_equalIS3_LPv0EEEbRKT_S9_
FN:58,_ZNK4xlnt8optionalINS_15range_referenceEE13compare_equalIS1_LPv0EEEbRKT_S7_
FN:58,_ZNK4xlnt8optionalINS_10paper_sizeEE13compare_equalIS1_LPv0EEEbRKT_S7_
FN:58,_ZNK4xlnt8optionalIiE13compare_equalIiLPv0EEEbRKT_S6_
FN:58,_ZNK4xlnt8optionalINS_10page_setupEE13compare_equalIS1_LPv0EEEbRKT_S7_
FN:58,_ZNK4xlnt8optionalINS_12page_marginsEE13compare_equalIS1_LPv0EEEbRKT_S7_
FN:58,_ZNK4xlnt8optionalINS_6detail14hyperlink_implEE13compare_equalIS2_LPv0EEEbRKT_S8_
FN:58,_ZNK4xlnt8optionalINS_22calculation_propertiesEE13compare_equalIS1_LPv0EEEbRKT_S7_
FN:58,_ZNK4xlnt8optionalINS_13header_footerEE13compare_equalIS1_LPv0EEEbRKT_S7_
FN:58,_ZNK4xlnt8optionalINS_11phonetic_pr13phonetic_typeEE13compare_equalIS2_LPv0EEEbRKT_S8_
FN:58,_ZNK4xlnt8optionalINS_14cell_referenceEE13compare_equalIS1_LPv0EEEbRKT_S7_
FN:58,_ZNK4xlnt8optionalINS_5themeEE13compare_equalIS1_LPv0EEEbRKT_S7_
FN:58,_ZNK4xlnt8optionalINS_4paneEE13compare_equalIS1_LPv0EEEbRKT_S7_
FN:58,_ZNK4xlnt8optionalINS_8ext_listEE13compare_equalIS1_LPv0EEEbRKT_S7_
FN:58,_ZNK4xlnt8optionalINS_11phonetic_pr5alignEE13compare_equalIS2_LPv0EEEbRKT_S8_
FN:58,_ZNK4xlnt8optionalISt4pairINS_8column_tES2_EE13compare_equalIS3_LPv0EEEbRKT_S9_
FN:58,_ZNK4xlnt8optionalINSt7__cxx1112basic_stringIcSt11char_traitsIcESaIcEEEE13compare_equalIS6_LPv0EEEbRKT_SC_
FN:58,_ZNK4xlnt8optionalISt4pairIjjEE13compare_equalIS2_LPv0EEEbRKT_S8_
FN:58,_ZNK4xlnt8optionalINS_13print_optionsEE13compare_equalIS1_LPv0EEEbRKT_S7_
FN:58,_ZNK4xlnt8optionalINS_4fontEE13compare_equalIS1_LPv0EEEbRKT_S7_
FN:58,_ZNK4xlnt8optionalImE13compare_equalImLPv0EEEbRKT_S6_
FN:58,_ZNK4xlnt8optionalINS_8sheet_prEE13compare_equalIS1_LPv0EEEbRKT_S7_
FN:58,_ZNK4xlnt8optionalINS_6detail10stylesheetEE13compare_equalIS2_LPv0EEEbRKT_S8_
FN:58,_ZNK4xlnt8optionalINS_13workbook_viewEE13compare_equalIS1_LPv0EEEbRKT_S7_
FN:58,_ZNK4xlnt8optionalINS_11phonetic_prEE13compare_equalIS1_LPv0EEEbRKT_S7_
FN:67,_ZNK4xlnt8optionalIdE13compare_equalIdLPv0EEEbRKT_S6_
FN:76,_ZN4xlnt8optionalISt5arrayINS0_INS_9rich_textEEELm3EEEC2Ev
FN:76,_ZN4xlnt8optionalINS_6detail10stylesheetEEC2Ev
FN:76,_ZN4xlnt8optionalINS_5themeEEC2Ev
FN:76,_ZN4xlnt8optionalINS_12border_styleEEC2Ev
FN:76,_ZN4xlnt8optionalINS_20horizontal_alignmentEEC2Ev
FN:76,_ZN4xlnt8optionalINS_8ext_listEEC2Ev
FN:76,_ZN4xlnt8optionalIPNS_6detail11format_implEEC2Ev
FN:76,_ZN4xlnt8optionalIdEC2Ev
FN:76,_ZN4xlnt8optionalINS_7drawing19spreadsheet_drawingEEC2Ev
FN:76,_ZN4xlnt8optionalINS_4paneEEC2Ev
FN:76,_ZN4xlnt8optionalINS_4fontEEC2Ev
FN:76,_ZN4xlnt8optionalINS_10page_setupEEC2Ev
FN:76,_ZN4xlnt8optionalINS_10paper_sizeEEC2Ev
FN:76,_ZN4xlnt8optionalINS_12page_marginsEEC2Ev
FN:76,_ZN4xlnt8optionalIiEC2Ev
FN:76,_ZN4xlnt8optionalINS_15range_referenceEEC2Ev
FN:76,_ZN4xlnt8optionalINS_18diagonal_directionEEC2Ev
FN:76,_ZN4xlnt8optionalINS_5colorEEC2Ev
FN:76,_ZN4xlnt8optionalINS_11phonetic_pr5alignEEC2Ev
FN:76,_ZN4xlnt8optionalINS_18vertical_alignmentEEC2Ev
FN:76,_ZN4xlnt8optionalINS_13header_footerEEC2Ev
FN:76,_ZN4xlnt8optionalIbEC2Ev
FN:76,_ZN4xlnt8optionalINS_13print_optionsEEC2Ev
FN:76,_ZN4xlnt8optionalIPNS_7commentEEC2Ev
FN:76,_ZN4xlnt8optionalINS_6detail13workbook_impl14file_version_tEEC2Ev
FN:76,_ZN4xlnt8optionalISt4pairINS_8column_tES2_EEC2Ev
FN:76,_ZN4xlnt8optionalIN12_GLOBAL__N_110no_defaultEEC2Ev
FN:76,_ZN4xlnt8optionalIN12_GLOBAL__N_111alive_countEEC2Ev
FN:76,_ZN4xlnt8optionalINS_13workbook_viewEEC2Ev
FN:76,_ZN4xlnt8optionalINS_9rich_textEEC2Ev
FN:76,_ZN4xlnt8optionalINSt7__cxx1112basic_stringIcSt11char_traitsIcESaIcEEEEC2Ev
FN:76,_ZN4xlnt8optionalINS_22calculation_propertiesEEC2Ev
FN:76,_ZN4xlnt8optionalINS_8sheet_prEEC2Ev
FN:76,_ZN4xlnt8optionalI2tmEC2Ev
FN:76,_ZN4xlnt8optionalINS_11phonetic_prEEC2Ev
FN:76,_ZN4xlnt8optionalINS_6border15border_propertyEEC2Ev
FN:76,_ZN4xlnt8optionalINS_11phonetic_pr13phonetic_typeEEC2Ev
FN:76,_ZN4xlnt8optionalISt4pairIjjEEC2Ev
FN:76,_ZN4xlnt8optionalINS_14cell_referenceEEC2Ev
FN:76,_ZN4xlnt8optionalINS_6detail14hyperlink_implEEC2Ev
FN:76,_ZN4xlnt8optionalINS_11orientationEEC2Ev
FN:76,_ZN4xlnt8optionalImEC2Ev
FN:85,_ZN4xlnt8optionalINS_4fontEEC2ERKS1_
FN:85,_ZN4xlnt8optionalIiEC2ERKi
FN:85,_ZN4xlnt8optionalINS_14cell_referenceEEC2ERKS1_
FN:95,_ZN4xlnt8optionalIdEC2EOd
FN:95,_ZN4xlnt8optionalIN12_GLOBAL__N_111convertibleEEC2EOS2_
FN:95,_ZN4xlnt8optionalIbEC2EOb
FN:95,_ZN4xlnt8optionalImEC2EOm
FN:95,_ZN4xlnt8optionalIN12_GLOBAL__N_111alive_countEEC2EOS2_
FN:105,_ZN4xlnt8optionalINS_12border_styleEEC2ERKS2_
FN:105,_ZN4xlnt8optionalINS_6detail14hyperlink_implEEC2ERKS3_
FN:105,_ZN4xlnt8optionalINS_4fontEEC2ERKS2_
FN:105,_ZN4xlnt8optionalIPNS_7commentEEC2ERKS3_
FN:105,_ZN4xlnt8optionalINS_11phonetic_pr13phonetic_typeEEC2ERKS3_
FN:105,_ZN4xlnt8optionalINS_10paper_sizeEEC2ERKS2_
FN:105,_ZN4xlnt8optionalINS_11orientationEEC2ERKS2_
FN:105,_ZN4xlnt8optionalIPNS_6detail11format_implEEC2ERKS4_
FN:105,_ZN4xlnt8optionalINSt7__cxx1112basic_stringIcSt11char_traitsIcESaIcEEEEC2ERKS7_
FN:105,_ZN4xlnt8optionalINS_14cell_referenceEEC2ERKS2_
FN:105,_ZN4xlnt8optionalINS_11phonetic_pr5alignEEC2ERKS3_
FN:105,_ZN4xlnt8optionalIbEC2ERKS1_
FN:105,_ZN4xlnt8optionalIdEC2ERKS1_
FN:105,_ZN4xlnt8optionalINS_6border15border_propertyEEC2ERKS3_
FN:105,_ZN4xlnt8optionalISt4pairIjjEEC2ERKS3_
FN:105,_ZN4xlnt8optionalINS_20horizontal_alignmentEEC2ERKS2_
FN:105,_ZN4xlnt8optionalINS_4paneEEC2ERKS2_
FN:105,_ZN4xlnt8optionalINS_5colorEEC2ERKS2_
FN:105,_ZN4xlnt8optionalImEC2ERKS1_
FN:105,_ZN4xlnt8optionalINS_18diagonal_directionEEC2ERKS2_
FN:105,_ZN4xlnt8optionalISt4pairINS_8column_tES2_EEC2ERKS4_
FN:105,_ZN4xlnt8optionalINS_18vertical_alignmentEEC2ERKS2_
FN:105,_ZN4xlnt8optionalIN12_GLOBAL__N_111alive_countEEC2ERKS3_
FN:105,_ZN4xlnt8optionalIiEC2ERKS1_
FN:118,_ZN4xlnt8optionalINS_4fontEEC2EOS2_
FN:118,_ZN4xlnt8optionalIN12_GLOBAL__N_111alive_countEEC2EOS3_
FN:118,_ZN4xlnt8optionalIbEC2EOS1_
FN:118,_ZN4xlnt8optionalINS_9rich_textEEC2EOS2_
FN:118,_ZN4xlnt8optionalINS_14cell_referenceEEC2EOS2_
FN:118,_ZN4xlnt8optionalINS_6detail14hyperlink_implEEC2EOS3_
FN:118,_ZN4xlnt8optionalINS_18diagonal_directionEEC2EOS2_
FN:118,_ZN4xlnt8optionalIiEC2EOS1_
FN:118,_ZN4xlnt8optionalIPNS_7commentEEC2EOS3_
FN:118,_ZN4xlnt8optionalINS_12border_styleEEC2EOS2_
FN:118,_ZN4xlnt8optionalIdEC2EOS1_
FN:118,_ZN4xlnt8optionalImEC2EOS1_
FN:118,_ZN4xlnt8optionalINS_5colorEEC2EOS2_
FN:118,_ZN4xlnt8optionalINS_4paneEEC2EOS2_
FN:118,_ZN4xlnt8optionalIPNS_6detail11format_implEEC2EOS4_
FN:118,_ZN4xlnt8optionalINS_18vertical_alignmentEEC2EOS2_
FN:118,_ZN4xlnt8optionalINSt7__cxx1112basic_stringIcSt11char_traitsIcESaIcEEEEC2EOS7_
FN:118,_ZN4xlnt8optionalINS_20horizontal_alignmentEEC2EOS2_
FN:118,_ZN4xlnt8optionalINS_6border15border_propertyEEC2EOS3_
FN:132,_ZN4xlnt8optionalINS_6detail13workbook_impl14file_version_tEEaSERKS4_
FN:132,_ZN4xlnt8optionalINS_15range_referenceEEaSERKS2_
FN:132,_ZN4xlnt8optionalISt4pairIjjEEaSERKS3_
FN:132,_ZN4xlnt8optionalINS_5themeEEaSERKS2_
FN:132,_ZN4xlnt8optionalINSt7__cxx1112basic_stringIcSt11char_traitsIcESaIcEEEEaSERKS7_
FN:132,_ZN4xlnt8optionalIPNS_6detail11format_implEEaSERKS4_
FN:132,_ZN4xlnt8optionalINS_11orientationEEaSERKS2_
FN:132,_ZN4xlnt8optionalINS_10page_setupEEaSERKS2_
FN:132,_ZN4xlnt8optionalINS_4fontEEaSERKS2_
FN:132,_ZN4xlnt8optionalINS_5colorEEaSERKS2_
FN:132,_ZN4xlnt8optionalINS_13print_optionsEEaSERKS2_
FN:132,_ZN4xlnt8optionalINS_10paper_sizeEEaSERKS2_
FN:132,_ZN4xlnt8optionalINS_4paneEEaSERKS2_
FN:132,_ZN4xlnt8optionalIPNS_7commentEEaSERKS3_
FN:132,_ZN4xlnt8optionalIN12_GLOBAL__N_111alive_countEEaSERKS3_
FN:132,_ZN4xlnt8optionalINS_8sheet_prEEaSERKS2_
FN:132,_ZN4xlnt8optionalINS_13workbook_viewEEaSERKS2_
FN:132,_ZN4xlnt8optionalImEaSERKS1_
FN:132,_ZN4xlnt8optionalISt4pairINS_8column_tES2_EEaSERKS4_
FN:132,_ZN4xlnt8optionalINS_11phonetic_pr13phonetic_typeEEaSERKS3_
FN:132,_ZN4xlnt8optionalINS_13header_footerEEaSERKS2_
FN:132,_ZN4xlnt8optionalINS_11phonetic_pr5alignEEaSERKS3_
FN:132,_ZN4xlnt8optionalINS_11phonetic_prEEaSERKS2_
FN:132,_ZN4xlnt8optionalINS_14cell_referenceEEaSERKS2_
FN:132,_ZN4xlnt8optionalINS_12page_marginsEEaSERKS2_
FN:132,_ZN4xlnt8optionalIbEaSERKS1_
FN:132,_ZN4xlnt8optionalINS_12border_styleEEaSERKS2_
FN:132,_ZN4xlnt8optionalIiEaSERKS1_
FN:132,_ZN4xlnt8optionalINS_8ext_listEEaSERKS2_
FN:132,_ZN4xlnt8optionalIdEaSERKS1_
FN:132,_ZN4xlnt8optionalINS_6detail14hyperlink_implEEaSERKS3_
FN:149,_ZN4xlnt8optionalImEaSEOS1_
FN:149,_ZN4xlnt8optionalINS_4fontEEaSEOS2_
FN:149,_ZN4xlnt8optionalINS_20horizontal_alignmentEEaSEOS2_
FN:149,_ZN4xlnt8optionalINSt7__cxx1112basic_stringIcSt11char_traitsIcESaIcEEEEaSEOS7_
FN:149,_ZN4xlnt8optionalINS_9rich_textEEaSEOS2_
FN:149,_ZN4xlnt8optionalINS_18vertical_alignmentEEaSEOS2_
FN:149,_ZN4xlnt8optionalINS_5colorEEaSEOS2_
FN:149,_ZN4xlnt8optionalINS_12border_styleEEaSEOS2_
FN:149,_ZN4xlnt8optionalIN12_GLOBAL__N_111alive_countEEaSEOS3_
FN:149,_ZN4xlnt8optionalINS_6border15border_propertyEEaSEOS3_
FN:149,_ZN4xlnt8optionalIdEaSEOS1_
FN:149,_ZN4xlnt8optionalINS_18diagonal_directionEEaSEOS2_
FN:149,_ZN4xlnt8optionalIbEaSEOS1_
FN:149,_ZN4xlnt8optionalIiEaSEOS1_
FN:166,_ZN4xlnt8optionalINS_13workbook_viewEED2Ev
FN:166,_ZN4xlnt8optionalINS_22calculation_propertiesEED2Ev
FN:166,_ZN4xlnt8optionalINS_12page_marginsEED2Ev
FN:166,_ZN4xlnt8optionalIN12_GLOBAL__N_110no_defaultEED2Ev
FN:166,_ZN4xlnt8optionalINSt7__cxx1112basic_stringIcSt11char_traitsIcESaIcEEEED2Ev
FN:166,_ZN4xlnt8optionalINS_12border_styleEED2Ev
FN:166,_ZN4xlnt8optionalImED2Ev
FN:166,_ZN4xlnt8optionalINS_15range_referenceEED2Ev
FN:166,_ZN4xlnt8optionalINS_10paper_sizeEED2Ev
FN:166,_ZN4xlnt8optionalINS_18vertical_alignmentEED2Ev
FN:166,_ZN4xlnt8optionalISt5arrayINS0_INS_9rich_textEEELm3EEED2Ev
FN:166,_ZN4xlnt8optionalINS_4paneEED2Ev
FN:166,_ZN4xlnt8optionalINS_6detail10stylesheetEED2Ev
FN:166,_ZN4xlnt8optionalINS_8ext_listEED2Ev
FN:166,_ZN4xlnt8optionalIN12_GLOBAL__N_111alive_countEED2Ev
FN:166,_ZN4xlnt8optionalINS_4fontEED2Ev
FN:166,_ZN4xlnt8optionalISt4pairINS_8column_tES2_EED2Ev
FN:166,_ZN4xlnt8optionalI2tmED2Ev
FN:166,_ZN4xlnt8optionalINS_11phonetic_prEED2Ev
FN:166,_ZN4xlnt8optionalINS_13header_footerEED2Ev
FN:166,_ZN4xlnt8optionalIbED2Ev
FN:166,_ZN4xlnt8optionalINS_20horizontal_alignmentEED2Ev
FN:166,_ZN4xlnt8optionalINS_13print_optionsEED2Ev
FN:166,_ZN4xlnt8optionalINS_8sheet_prEED2Ev
FN:166,_ZN4xlnt8optionalIPNS_6detail11format_implEED2Ev
FN:166,_ZN4xlnt8optionalINS_5themeEED2Ev
FN:166,_ZN4xlnt8optionalINS_7drawing19spreadsheet_drawingEED2Ev
FN:166,_ZN4xlnt8optionalINS_6detail14hyperlink_implEED2Ev
FN:166,_ZN4xlnt8optionalIiED2Ev
FN:166,_ZN4xlnt8optionalINS_14cell_referenceEED2Ev
FN:166,_ZN4xlnt8optionalINS_5colorEED2Ev
FN:166,_ZN4xlnt8optionalINS_10page_setupEED2Ev
FN:166,_ZN4xlnt8optionalIPNS_7commentEED2Ev
FN:166,_ZN4xlnt8optionalINS_11phonetic_pr5alignEED2Ev
FN:166,_ZN4xlnt8optionalINS_6detail13workbook_impl14file_version_tEED2Ev
FN:166,_ZN4xlnt8optionalINS_11orientationEED2Ev
FN:166,_ZN4xlnt8optionalISt4pairIjjEED2Ev
FN:166,_ZN4xlnt8optionalINS_9rich_textEED2Ev
FN:166,_ZN4xlnt8optionalIN12_GLOBAL__N_111convertibleEED2Ev
FN:166,_ZN4xlnt8optionalIdED2Ev
FN:166,_ZN4xlnt8optionalINS_6border15border_propertyEED2Ev
FN:166,_ZN4xlnt8optionalINS_18diagonal_directionEED2Ev
FN:166,_ZN4xlnt8optionalINS_11phonetic_pr13phonetic_typeEED2Ev
FN:175,_ZNK4xlnt8optionalIdE6is_setEv
FN:175,_ZNK4xlnt8optionalINS_4fontEE6is_setEv
FN:175,_ZNK4xlnt8optionalISt4pairIjjEE6is_setEv
FN:175,_ZNK4xlnt8optionalINS_5themeEE6is_setEv
FN:175,_ZNK4xlnt8optionalINS_4paneEE6is_setEv
FN:175,_ZNK4xlnt8optionalINS_6detail14hyperlink_implEE6is_setEv
FN:175,_ZNK4xlnt8optionalI2tmE6is_setEv
FN:175,_ZNK4xlnt8optionalINS_6border15border_propertyEE6is_setEv
FN:175,_ZNK4xlnt8optionalINS_20horizontal_alignmentEE6is_setEv
FN:175,_ZNK4xlnt8optionalINS_6detail13workbook_impl14file_version_tEE6is_setEv
FN:175,_ZNK4xlnt8optionalIbE6is_setEv
FN:175,_ZNK4xlnt8optionalINS_7drawing19spreadsheet_drawingEE6is_setEv
FN:175,_ZNK4xlnt8optionalINS_11phonetic_pr13phonetic_typeEE6is_setEv
FN:175,_ZNK4xlnt8optionalINS_6detail10stylesheetEE6is_setEv
FN:175,_ZNK4xlnt8optionalINS_10page_setupEE6is_setEv
FN:175,_ZNK4xlnt8optionalINS_12page_marginsEE6is_setEv
FN:175,_ZNK4xlnt8optionalISt5arrayINS0_INS_9rich_textEEELm3EEE6is_setEv
FN:175,_ZNK4xlnt8optionalINS_5colorEE6is_setEv
FN:175,_ZNK4xlnt8optionalINS_13print_optionsEE6is_setEv
FN:175,_ZNK4xlnt8optionalIPNS_6detail11format_implEE6is_setEv
FN:175,_ZNK4xlnt8optionalINS_11phonetic_prEE6is_setEv
FN:175,_ZNK4xlnt8optionalINS_8sheet_prEE6is_setEv
FN:175,_ZNK4xlnt8optionalINS_18vertical_alignmentEE6is_setEv
FN:175,_ZNK4xlnt8optionalINS_13workbook_viewEE6is_setEv
FN:175,_ZNK4xlnt8optionalINS_9rich_textEE6is_setEv
FN:175,_ZNK4xlnt8optionalImE6is_setEv
FN:175,_ZNK4xlnt8optionalINS_15range_referenceEE6is_setEv
FN:175,_ZNK4xlnt8optionalIPNS_7commentEE6is_setEv
FN:175,_ZNK4xlnt8optionalISt4pairINS_8column_tES2_EE6is_setEv
FN:175,_ZNK4xlnt8optionalINS_14cell_referenceEE6is_setEv
FN:175,_ZNK4xlnt8optionalINS_22calculation_propertiesEE6is_setEv
FN:175,_ZNK4xlnt8optionalINS_8ext_listEE6is_setEv
FN:175,_ZNK4xlnt8optionalINS_10paper_sizeEE6is_setEv
FN:175,_ZNK4xlnt8optionalIN12_GLOBAL__N_111convertibleEE6is_setEv
FN:175,_ZNK4xlnt8optionalINS_12border_styleEE6is_setEv
FN:175,_ZNK4xlnt8optionalINS_11orientationEE6is_setEv
FN:175,_ZNK4xlnt8optionalIiE6is_setEv
FN:175,_ZNK4xlnt8optionalINS_13header_footerEE6is_setEv
FN:175,_ZNK4xlnt8optionalINSt7__cxx1112basic_stringIcSt11char_traitsIcESaIcEEEE6is_setEv
FN:175,_ZNK4xlnt8optionalINS_18diagonal_directionEE6is_setEv
FN:175,_ZNK4xlnt8optionalINS_11phonetic_pr5alignEE6is_setEv
FN:183,_ZN4xlnt8optionalINS_9rich_textEE3setERKS1_
FN:183,_ZN4xlnt8optionalINS_15range_referenceEE3setERKS1_
FN:183,_ZN4xlnt8optionalINSt7__cxx1112basic_stringIcSt11char_traitsIcESaIcEEEE3setERKS6_
FN:183,_ZN4xlnt8optionalINS_18diagonal_directionEE3setERKS1_
FN:183,_ZN4xlnt8optionalINS_14cell_referenceEE3setERKS1_
FN:183,_ZN4xlnt8optionalINS_8ext_listEE3setERKS1_
FN:183,_ZN4xlnt8optionalINS_10paper_sizeEE3setERKS1_
FN:183,_ZN4xlnt8optionalINS_4paneEE3setERKS1_
FN:183,_ZN4xlnt8optionalINS_13workbook_viewEE3setERKS1_
FN:183,_ZN4xlnt8optionalImE3setERKm
FN:183,_ZN4xlnt8optionalINS_12page_marginsEE3setERKS1_
FN:183,_ZN4xlnt8optionalINS_20horizontal_alignmentEE3setERKS1_
FN:183,_ZN4xlnt8optionalINS_12border_styleEE3setERKS1_
FN:183,_ZN4xlnt8optionalISt4pairIjjEE3setERKS2_
FN:183,_ZN4xlnt8optionalINS_6border15border_propertyEE3setERKS2_
FN:183,_ZN4xlnt8optionalINS_5colorEE3setERKS1_
FN:183,_ZN4xlnt8optionalINS_22calculation_propertiesEE3setERKS1_
FN:183,_ZN4xlnt8optionalINS_8sheet_prEE3setERKS1_
FN:183,_ZN4xlnt8optionalINS_6detail14hyperlink_implEE3setERKS2_
FN:183,_ZN4xlnt8optionalIbE3setERKb
FN:183,_ZN4xlnt8optionalINS_11phonetic_pr5alignEE3setERKS2_
FN:183,_ZN4xlnt8optionalIPNS_7commentEE3setERKS2_
FN:183,_ZN4xlnt8optionalINS_6detail13workbook_impl14file_version_tEE3setERKS3_
FN:183,_ZN4xlnt8optionalINS_18vertical_alignmentEE3setERKS1_
FN:183,_ZN4xlnt8optionalINS_11phonetic_prEE3setERKS1_
FN:183,_ZN4xlnt8optionalIiE3setERKi
FN:183,_ZN4xlnt8optionalINS_11phonetic_pr13phonetic_typeEE3setERKS2_
FN:183,_ZN4xlnt8optionalINS_10page_setupEE3setERKS1_
FN:183,_ZN4xlnt8optionalIdE3setERKd
FN:183,_ZN4xlnt8optionalI2tmE3setERKS1_
FN:183,_ZN4xlnt8optionalINS_13print_optionsEE3setERKS1_
FN:183,_ZN4xlnt8optionalINS_4fontEE3setERKS1_
FN:183,_ZN4xlnt8optionalINS_7drawing19spreadsheet_drawingEE3setERKS2_
FN:183,_ZN4xlnt8optionalINS_11orientationEE3setERKS1_
FN:183,_ZN4xlnt8optionalINS_13header_footerEE3setERKS1_
FN:183,_ZN4xlnt8optionalIN12_GLOBAL__N_111alive_countEE3setERKS2_
FN:183,_ZN4xlnt8optionalISt4pairINS_8column_tES2_EE3setERKS3_
FN:183,_ZN4xlnt8optionalINS_5themeEE3setERKS1_
FN:183,_ZN4xlnt8optionalIPNS_6detail11format_implEE3setERKS3_
FN:206,_ZN4xlnt8optionalIPNS_7commentEE3setEOS2_
FN:206,_ZN4xlnt8optionalIPNS_6detail11format_implEE3setEOS3_
FN:206,_ZN4xlnt8optionalINS_20horizontal_alignmentEE3setEOS1_
FN:206,_ZN4xlnt8optionalINS_4fontEE3setEOS1_
FN:206,_ZN4xlnt8optionalINS_6border15border_propertyEE3setEOS2_
FN:206,_ZN4xlnt8optionalINS_6detail14hyperlink_implEE3setEOS2_
FN:206,_ZN4xlnt8optionalINS_18vertical_alignmentEE3setEOS1_
FN:206,_ZN4xlnt8optionalImE3setEOm
FN:206,_ZN4xlnt8optionalISt5arrayINS0_INS_9rich_textEEELm3EEE3setEOS4_
FN:206,_ZN4xlnt8optionalIiE3setEOi
FN:206,_ZN4xlnt8optionalISt4pairINS_8column_tES2_EE3setEOS3_
FN:206,_ZN4xlnt8optionalIbE3setEOb
FN:206,_ZN4xlnt8optionalINS_15range_referenceEE3setEOS1_
FN:206,_ZN4xlnt8optionalINS_18diagonal_directionEE3setEOS1_
FN:206,_ZN4xlnt8optionalIdE3setEOd
FN:206,_ZN4xlnt8optionalINS_12border_styleEE3setEOS1_
FN:206,_ZN4xlnt8optionalINS_5colorEE3setEOS1_
FN:206,_ZN4xlnt8optionalINS_14cell_referenceEE3setEOS1_
FN:206,_ZN4xlnt8optionalINS_6detail10stylesheetEE3setEOS2_
FN:206,_ZN4xlnt8optionalINS_11orientationEE3setEOS1_
FN:206,_ZN4xlnt8optionalINS_9rich_textEE3setEOS1_
FN:206,_ZN4xlnt8optionalIN12_GLOBAL__N_111alive_countEE3setEOS2_
FN:206,_ZN4xlnt8optionalISt4pairIjjEE3setEOS2_
FN:206,_ZN4xlnt8optionalINSt7__cxx1112basic_stringIcSt11char_traitsIcESaIcEEEE3setEOS6_
FN:233,_ZN4xlnt8optionalINS_10paper_sizeEEaSERKS1_
FN:233,_ZN4xlnt8optionalINS_14cell_referenceEEaSERKS1_
FN:233,_ZN4xlnt8optionalINS_18diagonal_directionEEaSERKS1_
FN:233,_ZN4xlnt8optionalINSt7__cxx1112basic_stringIcSt11char_traitsIcESaIcEEEEaSERKS6_
FN:233,_ZN4xlnt8optionalINS_5themeEEaSERKS1_
FN:233,_ZN4xlnt8optionalINS_10page_setupEEaSERKS1_
FN:233,_ZN4xlnt8optionalINS_4paneEEaSERKS1_
FN:233,_ZN4xlnt8optionalINS_12page_marginsEEaSERKS1_
FN:233,_ZN4xlnt8optionalINS_20horizontal_alignmentEEaSERKS1_
FN:233,_ZN4xlnt8optionalINS_6border15border_propertyEEaSERKS2_
FN:233,_ZN4xlnt8optionalIPNS_6detail11format_implEEaSERKS3_
FN:233,_ZN4xlnt8optionalINS_7drawing19spreadsheet_drawingEEaSERKS2_
FN:233,_ZN4xlnt8optionalIdEaSERKd
FN:233,_ZN4xlnt8optionalINS_22calculation_propertiesEEaSERKS1_
FN:233,_ZN4xlnt8optionalINS_9rich_textEEaSERKS1_
FN:233,_ZN4xlnt8optionalINS_6detail13workbook_impl14file_version_tEEaSERKS3_
FN:233,_ZN4xlnt8optionalINS_6detail14hyperlink_implEEaSERKS2_
FN:233,_ZN4xlnt8optionalI2tmEaSERKS1_
FN:233,_ZN4xlnt8optionalIiEaSERKi
FN:233,_ZN4xlnt8optionalINS_12border_styleEEaSERKS1_
FN:233,_ZN4xlnt8optionalINS_13header_footerEEaSERKS1_
FN:233,_ZN4xlnt8optionalINS_5colorEEaSERKS1_
FN:233,_ZN4xlnt8optionalINS_4fontEEaSERKS1_
FN:233,_ZN4xlnt8optionalINS_15range_referenceEEaSERKS1_
FN:233,_ZN4xlnt8optionalImEaSERKm
FN:233,_ZN4xlnt8optionalINS_13workbook_viewEEaSERKS1_
FN:233,_ZN4xlnt8optionalINS_18vertical_alignmentEEaSERKS1_
FN:242,_ZN4xlnt8optionalIiEaSEOi
FN:242,_ZN4xlnt8optionalIPNS_6detail11format_implEEaSEOS3_
FN:242,_ZN4xlnt8optionalINS_6detail14hyperlink_implEEaSEOS2_
FN:242,_ZN4xlnt8optionalIbEaSEOb
FN:242,_ZN4xlnt8optionalISt4pairIjjEEaSEOS2_
FN:242,_ZN4xlnt8optionalINS_4fontEEaSEOS1_
FN:242,_ZN4xlnt8optionalImEaSEOm
FN:242,_ZN4xlnt8optionalINS_14cell_referenceEEaSEOS1_
FN:242,_ZN4xlnt8optionalINS_6detail10stylesheetEEaSEOS2_
FN:242,_ZN4xlnt8optionalINSt7__cxx1112basic_stringIcSt11char_traitsIcESaIcEEEEaSEOS6_
FN:242,_ZN4xlnt8optionalINS_15range_referenceEEaSEOS1_
FN:242,_ZN4xlnt8optionalIdEaSEOd
FN:242,_ZN4xlnt8optionalISt4pairINS_8column_tES2_EEaSEOS3_
FN:242,_ZN4xlnt8optionalISt5arrayINS0_INS_9rich_textEEELm3EEEaSEOS4_
FN:251,_ZN4xlnt8optionalINS_22calculation_propertiesEE5clearEv
FN:251,_ZN4xlnt8optionalISt4pairINS_8column_tES2_EE5clearEv
FN:251,_ZN4xlnt8optionalINS_6border15border_propertyEE5clearEv
FN:251,_ZN4xlnt8optionalINS_15range_referenceEE5clearEv
FN:251,_ZN4xlnt8optionalINS_11phonetic_pr13phonetic_typeEE5clearEv
FN:251,_ZN4xlnt8optionalINS_12border_styleEE5clearEv
FN:251,_ZN4xlnt8optionalINS_6detail14hyperlink_implEE5clearEv
FN:251,_ZN4xlnt8optionalIiE5clearEv
FN:251,_ZN4xlnt8optionalINS_8ext_listEE5clearEv
FN:251,_ZN4xlnt8optionalIdE5clearEv
FN:251,_ZN4xlnt8optionalINS_12page_marginsEE5clearEv
FN:251,_ZN4xlnt8optionalINS_18diagonal_directionEE5clearEv
FN:251,_ZN4xlnt8optionalIPNS_7commentEE5clearEv
FN:251,_ZN4xlnt8optionalI2tmE5clearEv
FN:251,_ZN4xlnt8optionalINS_11phonetic_prEE5clearEv
FN:251,_ZN4xlnt8optionalINS_5themeEE5clearEv
FN:251,_ZN4xlnt8optionalISt5arrayINS0_INS_9rich_textEEELm3EEE5clearEv
FN:251,_ZN4xlnt8optionalINS_7drawing19spreadsheet_drawingEE5clearEv
FN:251,_ZN4xlnt8optionalINSt7__cxx1112basic_stringIcSt11char_traitsIcESaIcEEEE5clearEv
FN:251,_ZN4xlnt8optionalINS_10paper_sizeEE5clearEv
FN:251,_ZN4xlnt8optionalINS_14cell_referenceEE5clearEv
FN:251,_ZN4xlnt8optionalIbE5clearEv
FN:251,_ZN4xlnt8optionalINS_18vertical_alignmentEE5clearEv
FN:251,_ZN4xlnt8optionalIPNS_6detail11format_implEE5clearEv
FN:251,_ZN4xlnt8optionalINS_5colorEE5clearEv
FN:251,_ZN4xlnt8optionalIN12_GLOBAL__N_111convertibleEE5clearEv
FN:251,_ZN4xlnt8optionalINS_20horizontal_alignmentEE5clearEv
FN:251,_ZN4xlnt8optionalINS_13header_footerEE5clearEv
FN:251,_ZN4xlnt8optionalISt4pairIjjEE5clearEv
FN:251,_ZN4xlnt8optionalINS_13print_optionsEE5clearEv
FN:251,_ZN4xlnt8optionalImE5clearEv
FN:251,_ZN4xlnt8optionalINS_4fontEE5clearEv
FN:251,_ZN4xlnt8optionalINS_13workbook_viewEE5clearEv
FN:251,_ZN4xlnt8optionalIN12_GLOBAL__N_110no_defaultEE5clearEv
FN:251,_ZN4xlnt8optionalINS_8sheet_prEE5clearEv
FN:251,_ZN4xlnt8optionalINS_11phonetic_pr5alignEE5clearEv
FN:251,_ZN4xlnt8optionalIN12_GLOBAL__N_111alive_countEE5clearEv
FN:251,_ZN4xlnt8optionalINS_11orientationEE5clearEv
FN:251,_ZN4xlnt8optionalINS_6detail13workbook_impl14file_version_tEE5clearEv
FN:251,_ZN4xlnt8optionalINS_10page_setupEE5clearEv
FN:251,_ZN4xlnt8optionalINS_4paneEE5clearEv
FN:251,_ZN4xlnt8optionalINS_9rich_textEE5clearEv
FN:251,_ZN4xlnt8optionalINS_6detail10stylesheetEE5clearEv
FN:264,_ZN4xlnt8optionalINS_15range_referenceEE3getEv
FN:264,_ZN4xlnt8optionalINS_10page_setupEE3getEv
FN:264,_ZN4xlnt8optionalIPNS_7commentEE3getEv
FN:264,_ZN4xlnt8optionalINS_4paneEE3getEv
FN:264,_ZN4xlnt8optionalISt5arrayINS0_INS_9rich_textEEELm3EEE3getEv
FN:264,_ZN4xlnt8optionalISt4pairIjjEE3getEv
FN:264,_ZN4xlnt8optionalISt4pairINS_8column_tES2_EE3getEv
FN:264,_ZN4xlnt8optionalINS_9rich_textEE3getEv
FN:264,_ZN4xlnt8optionalINS_13workbook_viewEE3getEv
FN:264,_ZN4xlnt8optionalINSt7__cxx1112basic_stringIcSt11char_traitsIcESaIcEEEE3getEv
FN:264,_ZN4xlnt8optionalIdE3getEv
FN:264,_ZN4xlnt8optionalINS_18vertical_alignmentEE3getEv
FN:264,_ZN4xlnt8optionalImE3getEv
FN:264,_ZN4xlnt8optionalIPNS_6detail11format_implEE3getEv
FN:264,_ZN4xlnt8optionalINS_7drawing19spreadsheet_drawingEE3getEv
FN:264,_ZN4xlnt8optionalINS_20horizontal_alignmentEE3getEv
FN:264,_ZN4xlnt8optionalINS_14cell_referenceEE3getEv
FN:264,_ZN4xlnt8optionalINS_8sheet_prEE3getEv
FN:264,_ZN4xlnt8optionalINS_8ext_listEE3getEv
FN:264,_ZN4xlnt8optionalINS_5themeEE3getEv
FN:264,_ZN4xlnt8optionalINS_11phonetic_prEE3getEv
FN:264,_ZN4xlnt8optionalI2tmE3getEv
FN:264,_ZN4xlnt8optionalINS_13header_footerEE3getEv
FN:264,_ZN4xlnt8optionalINS_6detail10stylesheetEE3getEv
FN:264,_ZN4xlnt8optionalINS_6detail13workbook_impl14file_version_tEE3getEv
FN:264,_ZN4xlnt8optionalINS_18diagonal_directionEE3getEv
FN:264,_ZN4xlnt8optionalINS_6detail14hyperlink_implEE3getEv
FN:264,_ZN4xlnt8optionalINS_12border_styleEE3getEv
FN:264,_ZN4xlnt8optionalINS_13print_optionsEE3getEv
FN:264,_ZN4xlnt8optionalIN12_GLOBAL__N_111convertibleEE3getEv
FN:264,_ZN4xlnt8optionalINS_11orientationEE3getEv
FN:264,_ZN4xlnt8optionalINS_4fontEE3getEv
FN:264,_ZN4xlnt8optionalIiE3getEv
FN:264,_ZN4xlnt8optionalINS_12page_marginsEE3getEv
FN:264,_ZN4xlnt8optionalIbE3getEv
FN:264,_ZN4xlnt8optionalINS_6border15border_propertyEE3getEv
FN:264,_ZN4xlnt8optionalINS_5colorEE3getEv
FN:264,_ZN4xlnt8optionalINS_22calculation_propertiesEE3getEv
FN:278,_ZNK4xlnt8optionalINS_10paper_sizeEE3getEv
FN:278,_ZNK4xlnt8optionalImE3getEv
FN:278,_ZNK4xlnt8optionalIiE3getEv
FN:278,_ZNK4xlnt8optionalINS_5colorEE3getEv
FN:278,_ZNK4xlnt8optionalINS_11phonetic_prEE3getEv
FN:278,_ZNK4xlnt8optionalIbE3getEv
FN:278,_ZNK4xlnt8optionalIdE3getEv
FN:278,_ZNK4xlnt8optionalINS_11phonetic_pr5alignEE3getEv
FN:278,_ZNK4xlnt8optionalINS_14cell_referenceEE3getEv
FN:278,_ZNK4xlnt8optionalINSt7__cxx1112basic_stringIcSt11char_traitsIcESaIcEEEE3getEv
FN:278,_ZNK4xlnt8optionalIPNS_6detail11format_implEE3getEv
FN:278,_ZNK4xlnt8optionalINS_6detail10stylesheetEE3getEv
FN:278,_ZNK4xlnt8optionalINS_4fontEE3getEv
FN:278,_ZNK4xlnt8optionalINS_4paneEE3getEv
FN:278,_ZNK4xlnt8optionalINS_11phonetic_pr13phonetic_typeEE3getEv
FN:278,_ZNK4xlnt8optionalIPNS_7commentEE3getEv
FN:293,_ZNK4xlnt8optionalISt4pairINS_8column_tES2_EEeqERKS4_
FN:293,_ZNK4xlnt8optionalINS_11phonetic_prEEeqERKS2_
FN:293,_ZNK4xlnt8optionalIiEeqERKS1_
FN:293,_ZNK4xlnt8optionalINS_4fontEEeqERKS2_
FN:293,_ZNK4xlnt8optionalIbEeqERKS1_
FN:293,_ZNK4xlnt8optionalINS_22calculation_propertiesEEeqERKS2_
FN:293,_ZNK4xlnt8optionalINSt7__cxx1112basic_stringIcSt11char_traitsIcESaIcEEEEeqERKS7_
FN:293,_ZNK4xlnt8optionalINS_11phonetic_pr5alignEEeqERKS3_
FN:293,_ZNK4xlnt8optionalINS_13print_optionsEEeqERKS2_
FN:293,_ZNK4xlnt8optionalIdEeqERKS1_
FN:293,_ZNK4xlnt8optionalINS_6detail10stylesheetEEeqERKS3_
FN:293,_ZNK4xlnt8optionalINS_14cell_referenceEEeqERKS2_
FN:293,_ZNK4xlnt8optionalINS_8sheet_prEEeqERKS2_
FN:293,_ZNK4xlnt8optionalINS_12page_marginsEEeqERKS2_
FN:293,_ZNK4xlnt8optionalINS_11phonetic_pr13phonetic_typeEEeqERKS3_
FN:293,_ZNK4xlnt8optionalINS_5themeEEeqERKS2_
FN:293,_ZNK4xlnt8optionalINS_6detail14hyperlink_implEEeqERKS3_
FN:293,_ZNK4xlnt8optionalINS_10paper_sizeEEeqERKS2_
FN:293,_ZNK4xlnt8optionalINS_13header_footerEEeqERKS2_
FN:293,_ZNK4xlnt8optionalImEeqERKS1_
FN:293,_ZNK4xlnt8optionalINS_4paneEEeqERKS2_
FN:293,_ZNK4xlnt8optionalISt4pairIjjEEeqERKS3_
FN:293,_ZNK4xlnt8optionalINS_10page_setupEEeqERKS2_
FN:293,_ZNK4xlnt8optionalINS_15range_referenceEEeqERKS2_
FN:293,_ZNK4xlnt8optionalINS_8ext_listEEeqERKS2_
FN:293,_ZNK4xlnt8optionalINS_13workbook_viewEEeqERKS2_
FN:293,_ZNK4xlnt8optionalINS_6detail13workbook_impl14file_version_tEEeqERKS4_
FN:312,_ZNK4xlnt8optionalImEneERKS1_
FN:312,_ZNK4xlnt8optionalIiEneERKS1_
FN:312,_ZNK4xlnt8optionalINS_11phonetic_prEEneERKS2_
FN:319,_ZN4xlnt8optionalINS_10page_setupEE9value_refEv
FN:319,_ZN4xlnt8optionalINSt7__cxx1112basic_stringIcSt11char_traitsIcESaIcEEEE9value_refEv
FN:319,_ZN4xlnt8optionalI2tmE9value_refEv
FN:319,_ZN4xlnt8optionalINS_9rich_textEE9value_refEv
FN:319,_ZN4xlnt8optionalINS_13print_optionsEE9value_refEv
FN:319,_ZN4xlnt8optionalIPNS_7commentEE9value_refEv
FN:319,_ZN4xlnt8optionalINS_18vertical_alignmentEE9value_refEv
FN:319,_ZN4xlnt8optionalINS_13header_footerEE9value_refEv
FN:319,_ZN4xlnt8optionalINS_4fontEE9value_refEv
FN:319,_ZN4xlnt8optionalISt4pairIjjEE9value_refEv
FN:319,_ZN4xlnt8optionalINS_14cell_referenceEE9value_refEv
FN:319,_ZN4xlnt8optionalINS_6detail14hyperlink_implEE9value_refEv
FN:319,_ZN4xlnt8optionalIN12_GLOBAL__N_111alive_countEE9value_refEv
FN:319,_ZN4xlnt8optionalImE9value_refEv
FN:319,_ZN4xlnt8optionalINS_8sheet_prEE9value_refEv
FN:319,_ZN4xlnt8optionalINS_6detail10stylesheetEE9value_refEv
FN:319,_ZN4xlnt8optionalINS_7drawing19spreadsheet_drawingEE9value_refEv
FN:319,_ZN4xlnt8optionalINS_10paper_sizeEE9value_refEv
FN:319,_ZN4xlnt8optionalINS_5colorEE9value_refEv
FN:319,_ZN4xlnt8optionalINS_20horizontal_alignmentEE9value_refEv
FN:319,_ZN4xlnt8optionalIN12_GLOBAL__N_111convertibleEE9value_refEv
FN:319,_ZN4xlnt8optionalINS_22calculation_propertiesEE9value_refEv
FN:319,_ZN4xlnt8optionalIbE9value_refEv
FN:319,_ZN4xlnt8optionalINS_18diagonal_directionEE9value_refEv
FN:319,_ZN4xlnt8optionalINS_12border_styleEE9value_refEv
FN:319,_ZN4xlnt8optionalINS_11orientationEE9value_refEv
FN:319,_ZN4xlnt8optionalINS_11phonetic_pr13phonetic_typeEE9value_refEv
FN:319,_ZN4xlnt8optionalISt4pairINS_8column_tES2_EE9value_refEv
FN:319,_ZN4xlnt8optionalINS_13workbook_viewEE9value_refEv
FN:319,_ZN4xlnt8optionalINS_6border15border_propertyEE9value_refEv
FN:319,_ZN4xlnt8optionalIiE9value_refEv
FN:319,_ZN4xlnt8optionalISt5arrayINS0_INS_9rich_textEEELm3EEE9value_refEv
FN:319,_ZN4xlnt8optionalINS_15range_referenceEE9value_refEv
FN:319,_ZN4xlnt8optionalINS_11phonetic_pr5alignEE9value_refEv
FN:319,_ZN4xlnt8optionalINS_8ext_listEE9value_refEv
FN:319,_ZN4xlnt8optionalINS_4paneEE9value_refEv
FN:319,_ZN4xlnt8optionalIdE9value_refEv
FN:319,_ZN4xlnt8optionalINS_6detail13workbook_impl14file_version_tEE9value_refEv
FN:319,_ZN4xlnt8optionalINS_12page_marginsEE9value_refEv
FN:319,_ZN4xlnt8optionalINS_11phonetic_prEE9value_refEv
FN:319,_ZN4xlnt8optionalINS_5themeEE9value_refEv
FN:319,_ZN4xlnt8optionalIPNS_6detail11format_implEE9value_refEv
FN:324,_ZNK4xlnt8optionalINS_15range_referenceEE9value_refEv
FN:324,_ZNK4xlnt8optionalINS_10paper_sizeEE9value_refEv
FN:324,_ZNK4xlnt8optionalINS_11phonetic_prEE9value_refEv
FN:324,_ZNK4xlnt8optionalISt4pairINS_8column_tES2_EE9value_refEv
FN:324,_ZNK4xlnt8optionalINS_18diagonal_directionEE9value_refEv
FN:324,_ZNK4xlnt8optionalINS_12page_marginsEE9value_refEv
FN:324,_ZNK4xlnt8optionalIN12_GLOBAL__N_111alive_countEE9value_refEv
FN:324,_ZNK4xlnt8optionalINS_5colorEE9value_refEv
FN:324,_ZNK4xlnt8optionalINS_12border_styleEE9value_refEv
FN:324,_ZNK4xlnt8optionalINS_18vertical_alignmentEE9value_refEv
FN:324,_ZNK4xlnt8optionalINS_6detail10stylesheetEE9value_refEv
FN:324,_ZNK4xlnt8optionalIPNS_6detail11format_implEE9value_refEv
FN:324,_ZNK4xlnt8optionalINS_11phonetic_pr5alignEE9value_refEv
FN:324,_ZNK4xlnt8optionalIPNS_7commentEE9value_refEv
FN:324,_ZNK4xlnt8optionalIiE9value_refEv
FN:324,_ZNK4xlnt8optionalINS_20horizontal_alignmentEE9value_refEv
FN:324,_ZNK4xlnt8optionalINS_13workbook_viewEE9value_refEv
FN:324,_ZNK4xlnt8optionalIdE9value_refEv
FN:324,_ZNK4xlnt8optionalINS_22calculation_propertiesEE9value_refEv
FN:324,_ZNK4xlnt8optionalINS_14cell_referenceEE9value_refEv
FN:324,_ZNK4xlnt8optionalINS_10page_setupEE9value_refEv
FN:324,_ZNK4xlnt8optionalINS_4paneEE9value_refEv
FN:324,_ZNK4xlnt8optionalINS_6detail13workbook_impl14file_version_tEE9value_refEv
FN:324,_ZNK4xlnt8optionalIbE9value_refEv
FN:324,_ZNK4xlnt8optionalINS_4fontEE9value_refEv
FN:324,_ZNK4xlnt8optionalINS_5themeEE9value_refEv
FN:324,_ZNK4xlnt8optionalINS_6border15border_propertyEE9value_refEv
FN:324,_ZNK4xlnt8optionalINS_6detail14hyperlink_implEE9value_refEv
FN:324,_ZNK4xlnt8optionalImE9value_refEv
FN:324,_ZNK4xlnt8optionalINS_8ext_listEE9value_refEv
FN:324,_ZNK4xlnt8optionalINS_13header_footerEE9value_refEv
FN:324,_ZNK4xlnt8optionalISt4pairIjjEE9value_refEv
FN:324,_ZNK4xlnt8optionalINS_11phonetic_pr13phonetic_typeEE9value_refEv
FN:324,_ZNK4xlnt8optionalINS_11orientationEE9value_refEv
FN:324,_ZNK4xlnt8optionalINS_13print_optionsEE9value_refEv
FN:324,_ZNK4xlnt8optionalINS_8sheet_prEE9value_refEv
FN:324,_ZNK4xlnt8optionalINSt7__cxx1112basic_stringIcSt11char_traitsIcESaIcEEEE9value_refEv
FNDA:11,_ZNK4xlnt8optionalINS_11phonetic_prEE3getEv
FNDA:10,_ZN4xlnt8optionalINS_4paneEE3setERKS1_
FNDA:14,_ZNK4xlnt8optionalIiE13compare_equalIiLPv0EEEbRKT_S6_
FNDA:594,_ZNK4xlnt8optionalIbE3getEv
FNDA:476,_ZN4xlnt8optionalINS_20horizontal_alignmentEEC2Ev
FNDA:11502,_ZN4xlnt8optionalIPNS_7commentEEC2ERKS3_
FNDA:38,_ZN4xlnt8optionalINSt7__cxx1112basic_stringIcSt11char_traitsIcESaIcEEEEaSEOS7_
FNDA:0,_ZN4xlnt8optionalINS_20horizontal_alignmentEE3setEOS1_
FNDA:2,_ZN4xlnt8optionalINS_13print_optionsEE9value_refEv
FNDA:0,_ZN4xlnt8optionalINS_4fontEEaSERKS2_
FNDA:123,_ZN4xlnt8optionalINS_10paper_sizeEED2Ev
FNDA:88,_ZN4xlnt8optionalIPNS_7commentEE9value_refEv
FNDA:18,_ZN4xlnt8optionalINS_10paper_sizeEE3setERKS1_
FNDA:0,_ZN4xlnt8optionalINS_20horizontal_alignmentEEaSEOS2_
FNDA:138366,_ZN4xlnt8optionalImE3setERKm
FNDA:3430,_ZN4xlnt8optionalINSt7__cxx1112basic_stringIcSt11char_traitsIcESaIcEEEEaSERKS6_
FNDA:50,_ZN4xlnt8optionalINS_4paneEE3getEv
FNDA:4940,_ZNK4xlnt8optionalIdE3getEv
FNDA:5,_ZN4xlnt8optionalINS_5colorEEaSERKS2_
FNDA:644,_ZN4xlnt8optionalINS_18vertical_alignmentEE9value_refEv
FNDA:7,_ZN4xlnt8optionalIiEC2ERKi
FNDA:1,_ZN4xlnt8optionalINS_18diagonal_directionEEaSERKS1_
FNDA:334,_ZN4xlnt8optionalINS_13workbook_viewEE3setERKS1_
FNDA:155,_ZN4xlnt8optionalINS_11phonetic_pr13phonetic_typeEEC2ERKS3_
FNDA:20,_ZNK4xlnt8optionalINS_12page_marginsEE9value_refEv
FNDA:23667,_ZNK4xlnt8optionalIbEeqERKS1_
FNDA:11673,_ZN4xlnt8optionalIPNS_6detail11format_implEEC2Ev
FNDA:8,_ZN4xlnt8optionalISt4pairINS_8column_tES2_EE3getEv
FNDA:11229,_ZNK4xlnt8optionalINS_6detail14hyperlink_implEE6is_setEv
FNDA:12,_ZN4xlnt8optionalINS_14cell_referenceEEC2EOS2_
FNDA:2046,_ZN4xlnt8optionalINS_6detail14hyperlink_implEEC2EOS3_
FNDA:108,_ZN4xlnt8optionalISt5arrayINS0_INS_9rich_textEEELm3EEED2Ev
FNDA:322,_ZN4xlnt8optionalINS_5themeEEaSERKS1_
FNDA:6,_ZNK4xlnt8optionalINS_10page_setupEE13compare_equalIS1_LPv0EEEbRKT_S7_
FNDA:0,_ZNK4xlnt8optionalINS_11phonetic_pr5alignEE3getEv
FNDA:25261,_ZN4xlnt8optionalINS_6detail14hyperlink_implEE5clearEv
FNDA:14,_ZNK4xlnt8optionalINS_22calculation_propertiesEEeqERKS2_
FNDA:21,_ZN4xlnt8optionalINS_13header_footerEE9value_refEv
FNDA:152,_ZN4xlnt8optionalISt5arrayINS0_INS_9rich_textEEELm3EEE3getEv
FNDA:91,_ZN4xlnt8optionalINS_4fontEE3setEOS1_
FNDA:357,_ZN4xlnt8optionalINS_12page_marginsEE3setERKS1_
FNDA:850,_ZN4xlnt8optionalIPNS_6detail11format_implEEaSEOS3_
FNDA:0,_ZN4xlnt8optionalINS_6border15border_propertyEE3setEOS2_
FNDA:1374,_ZN4xlnt8optionalINS_18vertical_alignmentEED2Ev
FNDA:1151,_ZN4xlnt8optionalINS_8ext_listEEC2Ev
FNDA:2,_ZNK4xlnt8optionalIN12_GLOBAL__N_111alive_countEE9value_refEv
FNDA:8,_ZN4xlnt8optionalISt4pairIjjEE3getEv
FNDA:40735,_ZN4xlnt8optionalINS_12border_styleEE5clearEv
FNDA:64,_ZNK4xlnt8optionalINS_4paneEE6is_setEv
FNDA:296,_ZN4xlnt8optionalINS_13print_optionsEEaSERKS2_
FNDA:184,_ZN4xlnt8optionalINS_18diagonal_directionEEC2EOS2_
FNDA:44,_ZN4xlnt8optionalINS_6detail14hyperlink_implEE3setEOS2_
FNDA:50,_ZN4xlnt8optionalINS_9rich_textEE3getEv
FNDA:361,_ZN4xlnt8optionalINS_4paneEEC2Ev
FNDA:18,_ZN4xlnt8optionalINS_14cell_referenceEEC2ERKS1_
FNDA:97232,_ZN4xlnt8optionalIdEC2Ev
FNDA:10,_ZN4xlnt8optionalINS_4paneEEaSERKS1_
FNDA:114,_ZN4xlnt8optionalINS_20horizontal_alignmentEE3setERKS1_
FNDA:44,_ZN4xlnt8optionalINS_6detail14hyperlink_implEEaSEOS2_
FNDA:25,_ZN4xlnt8optionalINS_10page_setupEEaSERKS1_
FNDA:706,_ZN4xlnt8optionalINS_7drawing19spreadsheet_drawingEEC2Ev
FNDA:96,_ZN4xlnt8optionalINS_10paper_sizeEEC2ERKS2_
FNDA:3,_ZNK4xlnt8optionalI2tmE6is_setEv
FNDA:8,_ZNK4xlnt8optionalINS_12page_marginsEE13compare_equalIS1_LPv0EEEbRKT_S7_
FNDA:114,_ZN4xlnt8optionalINS_20horizontal_alignmentEEaSERKS1_
FNDA:353,_ZN4xlnt8optionalINS_12page_marginsEEaSERKS1_
FNDA:4200,_ZN4xlnt8optionalIiE5clearEv
FNDA:15356,_ZNK4xlnt8optionalINS_5colorEE9value_refEv
FNDA:16811,_ZNK4xlnt8optionalINS_6border15border_propertyEE6is_setEv
FNDA:0,_ZNK4xlnt8optionalINS_6detail14hyperlink_implEE13compare_equalIS2_LPv0EEEbRKT_S8_
FNDA:248,_ZNK4xlnt8optionalIbE13compare_equalIbLPv0EEEbRKT_S6_
FNDA:42,_ZN4xlnt8optionalINS_4fontEEC2EOS2_
FNDA:589,_ZNK4xlnt8optionalINS_4fontEE6is_setEv
FNDA:296,_ZN4xlnt8optionalISt4pairIjjEEaSERKS3_
FNDA:4990,_ZN4xlnt8optionalImEaSEOS1_
FNDA:50,_ZN4xlnt8optionalINS_9rich_textEE3setERKS1_
FNDA:445,_ZN4xlnt8optionalINS_22calculation_propertiesEED2Ev
FNDA:4,_ZNK4xlnt8optionalINS_10paper_sizeEE3getEv
FNDA:1,_ZN4xlnt8optionalIN12_GLOBAL__N_111alive_countEEC2EOS3_
FNDA:100,_ZN4xlnt8optionalINS_9rich_textEE9value_refEv
FNDA:9957,_ZNK4xlnt8optionalINS_11phonetic_prEEeqERKS2_
FNDA:15,_ZNK4xlnt8optionalISt4pairINS_8column_tES2_EEeqERKS4_
FNDA:445,_ZN4xlnt8optionalINS_6detail10stylesheetEEC2Ev
FNDA:705,_ZN4xlnt8optionalINS_12page_marginsEED2Ev
FNDA:196,_ZN4xlnt8optionalINS_5themeEEaSERKS2_
FNDA:1011,_ZN4xlnt8optionalISt4pairINS_8column_tES2_EE5clearEv
FNDA:0,_ZNK4xlnt8optionalINS_15range_referenceEE9value_refEv
FNDA:7,_ZN4xlnt8optionalINS_15range_referenceEE3getEv
FNDA:592,_ZN4xlnt8optionalINS_15range_referenceEEaSERKS2_
FNDA:196,_ZN4xlnt8optionalINS_6detail13workbook_impl14file_version_tEEaSERKS4_
FNDA:108,_ZN4xlnt8optionalISt5arrayINS0_INS_9rich_textEEELm3EEEC2Ev
FNDA:71,_ZN4xlnt8optionalINS_10page_setupEE9value_refEv
FNDA:445,_ZN4xlnt8optionalINS_13workbook_viewEED2Ev
FNDA:2510,_ZN4xlnt8optionalINSt7__cxx1112basic_stringIcSt11char_traitsIcESaIcEEEE9value_refEv
FNDA:540,_ZN4xlnt8optionalINS_22calculation_propertiesEE5clearEv
FNDA:59333,_ZNK4xlnt8optionalIdE6is_setEv
FNDA:9,_ZN4xlnt8optionalI2tmE9value_refEv
FNDA:658,_ZN4xlnt8optionalIiEaSEOi
FNDA:4,_ZN4xlnt8optionalINS_4fontEEC2ERKS1_
FNDA:2002,_ZN4xlnt8optionalINS_15range_referenceEE5clearEv
FNDA:123,_ZNK4xlnt8optionalINS_11phonetic_prEE9value_refEv
FNDA:34,_ZN4xlnt8optionalIPNS_7commentEE3setEOS2_
FNDA:26,_ZNK4xlnt8optionalIiEeqERKS1_
FNDA:2,_ZN4xlnt8optionalINS_15range_referenceEE3setERKS1_
FNDA:71,_ZN4xlnt8optionalINS_10page_setupEE3getEv
FNDA:7428,_ZNK4xlnt8optionalImE3getEv
FNDA:445,_ZN4xlnt8optionalINS_5themeEEC2Ev
FNDA:3443,_ZN4xlnt8optionalINSt7__cxx1112basic_stringIcSt11char_traitsIcESaIcEEEE3setERKS6_
FNDA:12,_ZN4xlnt8optionalINS_4fontEEaSEOS2_
FNDA:18,_ZN4xlnt8optionalINS_10paper_sizeEEaSERKS1_
FNDA:17920,_ZN4xlnt8optionalIbEC2EOS1_
FNDA:34634,_ZN4xlnt8optionalINS_6border15border_propertyEE5clearEv
FNDA:72,_ZNK4xlnt8optionalINS_10paper_sizeEE9value_refEv
FNDA:8,_ZNK4xlnt8optionalINS_6detail13workbook_impl14file_version_tEE13compare_equalIS3_LPv0EEEbRKT_S9_
FNDA:567,_ZN4xlnt8optionalINSt7__cxx1112basic_stringIcSt11char_traitsIcESaIcEEEEaSERKS7_
FNDA:89,_ZNK4xlnt8optionalIiE3getEv
FNDA:0,_ZN4xlnt8optionalINS_11orientationEEaSERKS2_
FNDA:50426,_ZN4xlnt8optionalINSt7__cxx1112basic_stringIcSt11char_traitsIcESaIcEEEED2Ev
FNDA:8,_ZNK4xlnt8optionalISt4pairINS_8column_tES2_EE9value_refEv
FNDA:0,_ZNK4xlnt8optionalINS_15range_referenceEE13compare_equalIS1_LPv0EEEbRKT_S7_
FNDA:106,_ZN4xlnt8optionalIdEC2EOd
FNDA:1,_ZN4xlnt8optionalIN12_GLOBAL__N_110no_defaultEED2Ev
FNDA:9950,_ZNK4xlnt8optionalINS_4fontEEeqERKS2_
FNDA:68,_ZN4xlnt8optionalINS_14cell_referenceEEaSERKS1_
FNDA:2151,_ZN4xlnt8optionalINS_12border_styleEEC2Ev
FNDA:61,_ZNK4xlnt8optionalISt4pairIjjEE6is_setEv
FNDA:38574,_ZN4xlnt8optionalINS_12border_styleEEC2ERKS2_
FNDA:1,_ZN4xlnt8optionalINS_18diagonal_directionEE3setERKS1_
FNDA:41,_ZN4xlnt8optionalIPNS_6detail11format_implEEaSERKS4_
FNDA:102,_ZN4xlnt8optionalINS_9rich_textEEC2EOS2_
FNDA:1,_ZNK4xlnt8optionalINS_5themeEE6is_setEv
FNDA:12,_ZNK4xlnt8optionalINS_10paper_sizeEE13compare_equalIS1_LPv0EEEbRKT_S7_
FNDA:1410,_ZN4xlnt8optionalINS_15range_referenceEED2Ev
FNDA:40061,_ZN4xlnt8optionalINS_4fontEEC2ERKS2_
FNDA:88,_ZN4xlnt8optionalIPNS_7commentEE3getEv
FNDA:177526,_ZN4xlnt8optionalImED2Ev
FNDA:850,_ZN4xlnt8optionalIPNS_6detail11format_implEE3setEOS3_
FNDA:4,_ZN4xlnt8optionalINS_8ext_listEE3setERKS1_
FNDA:83,_ZN4xlnt8optionalINS_14cell_referenceEE3setERKS1_
FNDA:202,_ZN4xlnt8optionalINS_11phonetic_pr13phonetic_typeEE5clearEv
FNDA:11502,_ZN4xlnt8optionalINS_6detail14hyperlink_implEEC2ERKS3_
FNDA:296,_ZN4xlnt8optionalINS_10page_setupEEaSERKS2_
FNDA:40735,_ZN4xlnt8optionalINS_12border_styleEED2Ev
FNDA:3,_ZNK4xlnt8optionalINS_18diagonal_directionEE9value_refEv
FNDA:1969,_ZNK4xlnt8optionalINS_5colorEE3getEv
FNDA:3279,_ZN4xlnt8optionalINS_5colorEE9value_refEv
FNDA:52653,_ZN4xlnt8optionalImEaSERKS1_
FNDA:717,_ZN4xlnt8optionalINS_14cell_referenceEEC2ERKS2_
FNDA:7,_ZN4xlnt8optionalINS_6detail14hyperlink_implEE3setERKS2_
FNDA:57,_ZNK4xlnt8optionalINS_12page_marginsEE6is_setEv
FNDA:6,_ZNK4xlnt8optionalINS_13header_footerEE13compare_equalIS1_LPv0EEEbRKT_S7_
FNDA:2,_ZN4xlnt8optionalINS_7drawing19spreadsheet_drawingEE3getEv
FNDA:2,_ZNK4xlnt8optionalINS_11phonetic_pr13phonetic_typeEE13compare_equalIS2_LPv0EEEbRKT_S8_
FNDA:705,_ZN4xlnt8optionalINS_13header_footerEED2Ev
FNDA:6036,_ZN4xlnt8optionalINS_5colorEEC2Ev
FNDA:2,_ZN4xlnt8optionalINS_7drawing19spreadsheet_drawingEE9value_refEv
FNDA:8,_ZNK4xlnt8optionalINS_11phonetic_pr13phonetic_typeEE6is_setEv
FNDA:244,_ZNK4xlnt8optionalINS_10page_setupEE6is_setEv
FNDA:41446,_ZN4xlnt8optionalINS_11phonetic_prEED2Ev
FNDA:56,_ZNK4xlnt8optionalINS_6detail10stylesheetEE6is_setEv
FNDA:331,_ZN4xlnt8optionalINS_22calculation_propertiesEE3setERKS1_
FNDA:12,_ZNK4xlnt8optionalINS_10page_setupEE9value_refEv
FNDA:50,_ZN4xlnt8optionalINS_9rich_textEEaSERKS1_
FNDA:640,_ZN4xlnt8optionalINS_5themeEE5clearEv
FNDA:0,_ZN4xlnt8optionalINS_10paper_sizeEE9value_refEv
FNDA:12,_ZNK4xlnt8optionalINS_4paneEE9value_refEv
FNDA:24,_ZN4xlnt8optionalINS_8sheet_prEE3setERKS1_
FNDA:2225,_ZN4xlnt8optionalIbE3setERKb
FNDA:60,_ZN4xlnt8optionalIbEC2EOb
FNDA:1,_ZN4xlnt8optionalINS_11phonetic_pr5alignEE3setERKS2_
FNDA:108,_ZNK4xlnt8optionalISt5arrayINS0_INS_9rich_textEEELm3EEE6is_setEv
FNDA:20,_ZNK4xlnt8optionalINS_14cell_referenceEEeqERKS2_
FNDA:27217,_ZN4xlnt8optionalIbEC2ERKS1_
FNDA:54771,_ZN4xlnt8optionalIbED2Ev
FNDA:14,_ZNK4xlnt8optionalINS_6detail10stylesheetEEeqERKS3_
FNDA:155,_ZN4xlnt8optionalINS_11phonetic_pr5alignEEC2ERKS3_
FNDA:327,_ZN4xlnt8optionalINS_6detail13workbook_impl14file_version_tEEaSERKS3_
FNDA:476,_ZN4xlnt8optionalINS_18vertical_alignmentEEC2Ev
FNDA:705,_ZN4xlnt8optionalINS_7drawing19spreadsheet_drawingEE5clearEv
FNDA:0,_ZN4xlnt8optionalINS_18vertical_alignmentEEaSEOS2_
FNDA:22995,_ZNK4xlnt8optionalINS_5colorEE6is_setEv
FNDA:0,_ZN4xlnt8optionalIPNS_7commentEE3setERKS2_
FNDA:108,_ZN4xlnt8optionalISt5arrayINS0_INS_9rich_textEEELm3EEE5clearEv
FNDA:19091,_ZN4xlnt8optionalIdEC2ERKS1_
FNDA:47,_ZN4xlnt8optionalINS_11phonetic_pr5alignEEC2Ev
FNDA:17,_ZNK4xlnt8optionalINS_6detail13workbook_impl14file_version_tEE9value_refEv
FNDA:48,_ZN4xlnt8optionalINS_20horizontal_alignmentEE3getEv
FNDA:30298,_ZN4xlnt8optionalINS_6border15border_propertyEEC2ERKS3_
FNDA:13799,_ZNK4xlnt8optionalIPNS_6detail11format_implEE6is_setEv
FNDA:399,_ZN4xlnt8optionalINS_18vertical_alignmentEE3setERKS1_
FNDA:328,_ZN4xlnt8optionalINS_6detail13workbook_impl14file_version_tEE3setERKS3_
FNDA:1920,_ZN4xlnt8optionalINS_18vertical_alignmentEE5clearEv
FNDA:1220,_ZN4xlnt8optionalINS_14cell_referenceEE5clearEv
FNDA:60777,_ZN4xlnt8optionalIbE5clearEv
FNDA:5,_ZN4xlnt8optionalINS_14cell_referenceEE3getEv
FNDA:155,_ZN4xlnt8optionalINS_11phonetic_prEE3setERKS1_
FNDA:1,_ZN4xlnt8optionalIN12_GLOBAL__N_111convertibleEE9value_refEv
FNDA:47,_ZNK4xlnt8optionalINS_14cell_referenceEE3getEv
FNDA:81,_ZN4xlnt8optionalIiE3setERKi
FNDA:184,_ZN4xlnt8optionalINS_20horizontal_alignmentEE9value_refEv
FNDA:706,_ZN4xlnt8optionalINS_13header_footerEEC2Ev
FNDA:3241,_ZN4xlnt8optionalIbE3setEOb
FNDA:2,_ZN4xlnt8optionalISt4pairINS_8column_tES2_EE3setEOS3_
FNDA:296,_ZN4xlnt8optionalISt4pairINS_8column_tES2_EEaSERKS4_
FNDA:56,_ZNK4xlnt8optionalINS_13print_optionsEE6is_setEv
FNDA:15,_ZNK4xlnt8optionalINS_8sheet_prEEeqERKS2_
FNDA:53480,_ZN4xlnt8optionalINSt7__cxx1112basic_stringIcSt11char_traitsIcESaIcEEEE5clearEv
FNDA:2,_ZN4xlnt8optionalISt4pairIjjEEaSEOS2_
FNDA:91,_ZN4xlnt8optionalINS_4fontEEaSEOS1_
FNDA:9669,_ZN4xlnt8optionalImEaSEOm
FNDA:123,_ZN4xlnt8optionalINS_10paper_sizeEE5clearEv
FNDA:891,_ZNK4xlnt8optionalINSt7__cxx1112basic_stringIcSt11char_traitsIcESaIcEEEEeqERKS7_
FNDA:3174,_ZN4xlnt8optionalIbEaSEOb
FNDA:143,_ZNK4xlnt8optionalINS_20horizontal_alignmentEE6is_setEv
FNDA:1446,_ZN4xlnt8optionalINS_8ext_listEE5clearEv
FNDA:0,_ZN4xlnt8optionalINS_18vertical_alignmentEE3setEOS1_
FNDA:2151,_ZN4xlnt8optionalINS_6border15border_propertyEEaSERKS2_
FNDA:96,_ZN4xlnt8optionalINS_11orientationEEC2ERKS2_
FNDA:130527,_ZN4xlnt8optionalIdE5clearEv
FNDA:0,_ZN4xlnt8optionalINS_10paper_sizeEEaSERKS2_
FNDA:2,_ZNK4xlnt8optionalINS_11phonetic_pr5alignEEeqERKS3_
FNDA:376,_ZN4xlnt8optionalINS_4fontEE9value_refEv
FNDA:208,_ZNK4xlnt8optionalINS_18vertical_alignmentEE9value_refEv
FNDA:174,_ZN4xlnt8optionalINS_13workbook_viewEE3getEv
FNDA:782,_ZN4xlnt8optionalINS_4paneEED2Ev
FNDA:11219,_ZN4xlnt8optionalINS_4fontEEC2Ev
FNDA:445,_ZN4xlnt8optionalINS_6detail10stylesheetEED2Ev
FNDA:706,_ZN4xlnt8optionalINS_12page_marginsEEC2Ev
FNDA:839,_ZNK4xlnt8optionalINS_12border_styleEE9value_refEv
FNDA:43613,_ZN4xlnt8optionalIdE3getEv
FNDA:70,_ZN4xlnt8optionalINSt7__cxx1112basic_stringIcSt11char_traitsIcESaIcEEEE3getEv
FNDA:27,_ZN4xlnt8optionalINS_10paper_sizeEEC2Ev
FNDA:1150,_ZN4xlnt8optionalINS_8ext_listEED2Ev
FNDA:706,_ZN4xlnt8optionalINS_10page_setupEEC2Ev
FNDA:1,_ZNK4xlnt8optionalINS_11phonetic_pr5alignEE9value_refEv
FNDA:12,_ZNK4xlnt8optionalIPNS_6detail11format_implEE9value_refEv
FNDA:14644,_ZN4xlnt8optionalImE3setEOm
FNDA:147406,_ZN4xlnt8optionalImE3getEv
FNDA:98,_ZN4xlnt8optionalINS_18vertical_alignmentEE3getEv
FNDA:8,_ZN4xlnt8optionalISt4pairIjjEE9value_refEv
FNDA:47,_ZNK4xlnt8optionalINS_6detail13workbook_impl14file_version_tEE6is_setEv
FNDA:15,_ZNK4xlnt8optionalINS_13print_optionsEEeqERKS2_
FNDA:115,_ZNK4xlnt8optionalINS_6detail10stylesheetEE9value_refEv
FNDA:8,_ZNK4xlnt8optionalINS_22calculation_propertiesEE13compare_equalIS1_LPv0EEEbRKT_S7_
FNDA:6232,_ZNK4xlnt8optionalIdEeqERKS1_
FNDA:1,_ZN4xlnt8optionalIN12_GLOBAL__N_111convertibleEEC2EOS2_
FNDA:17,_ZN4xlnt8optionalINS_14cell_referenceEE9value_refEv
FNDA:40,_ZN4xlnt8optionalIPNS_7commentEEaSERKS3_
FNDA:997,_ZN4xlnt8optionalINS_12page_marginsEE5clearEv
FNDA:715,_ZN4xlnt8optionalISt4pairINS_8column_tES2_EED2Ev
FNDA:0,_ZN4xlnt8optionalISt4pairIjjEE3setERKS2_
FNDA:1123,_ZNK4xlnt8optionalIiE9value_refEv
FNDA:11502,_ZN4xlnt8optionalIPNS_6detail11format_implEEC2ERKS4_
FNDA:1472,_ZN4xlnt8optionalINS_18diagonal_directionEE5clearEv
FNDA:1,_ZN4xlnt8optionalIN12_GLOBAL__N_111alive_countEEaSERKS3_
FNDA:34,_ZN4xlnt8optionalISt5arrayINS0_INS_9rich_textEEELm3EEE3setEOS4_
FNDA:3,_ZN4xlnt8optionalINS_7drawing19spreadsheet_drawingEEaSERKS2_
FNDA:1633,_ZN4xlnt8optionalIiEC2Ev
FNDA:2046,_ZN4xlnt8optionalIPNS_7commentEEC2EOS3_
FNDA:19582,_ZN4xlnt8optionalINSt7__cxx1112basic_stringIcSt11char_traitsIcESaIcEEEEC2ERKS7_
FNDA:659,_ZN4xlnt8optionalIiE3setEOi
FNDA:108,_ZNK4xlnt8optionalINS_20horizontal_alignmentEE9value_refEv
FNDA:44803,_ZN4xlnt8optionalIdEaSERKd
FNDA:200520,_ZN4xlnt8optionalImE9value_refEv
FNDA:1412,_ZN4xlnt8optionalINS_15range_referenceEEC2Ev
FNDA:25261,_ZN4xlnt8optionalIPNS_7commentEE5clearEv
FNDA:1312,_ZN4xlnt8optionalIiEC2EOS1_
FNDA:0,_ZN4xlnt8optionalINS_4paneEEaSERKS2_
FNDA:259,_ZN4xlnt8optionalINS_12border_styleEE3setERKS1_
FNDA:158,_ZN4xlnt8optionalINS_6detail14hyperlink_implEE9value_refEv
FNDA:665,_ZN4xlnt8optionalIPNS_6detail11format_implEE3getEv
FNDA:9,_ZN4xlnt8optionalIN12_GLOBAL__N_111alive_countEED2Ev
FNDA:3450,_ZNK4xlnt8optionalIbE6is_setEv
FNDA:0,_ZNK4xlnt8optionalIPNS_7commentEE9value_refEv
FNDA:349,_ZN4xlnt8optionalIPNS_6detail11format_implEEaSERKS3_
FNDA:51326,_ZN4xlnt8optionalINS_4fontEED2Ev
FNDA:3,_ZN4xlnt8optionalIN12_GLOBAL__N_111alive_countEE9value_refEv
FNDA:63480,_ZNK4xlnt8optionalIdE9value_refEv
FNDA:2863,_ZN4xlnt8optionalINS_6detail10stylesheetEE9value_refEv
FNDA:5,_ZN4xlnt8optionalINS_8sheet_prEE9value_refEv
FNDA:0,_ZN4xlnt8optionalINS_9rich_textEEaSEOS2_
FNDA:79144,_ZN4xlnt8optionalINS_11phonetic_prEE5clearEv
FNDA:342,_ZNK4xlnt8optionalINS_14cell_referenceEE9value_refEv
FNDA:196,_ZN4xlnt8optionalINS_13workbook_viewEEaSERKS2_
FNDA:16,_ZNK4xlnt8optionalINS_22calculation_propertiesEE9value_refEv
FNDA:331,_ZN4xlnt8optionalINS_22calculation_propertiesEEaSERKS1_
FNDA:17,_ZNK4xlnt8optionalINS_13workbook_viewEE9value_refEv
FNDA:3,_ZN4xlnt8optionalI2tmE5clearEv
FNDA:3,_ZN4xlnt8optionalI2tmED2Ev
FNDA:5,_ZNK4xlnt8optionalINS_7drawing19spreadsheet_drawingEE6is_setEv
FNDA:2151,_ZN4xlnt8optionalINS_6border15border_propertyEE3setERKS2_
FNDA:296,_ZN4xlnt8optionalINS_8sheet_prEEaSERKS2_
FNDA:434,_ZN4xlnt8optionalINS_18diagonal_directionEEC2Ev
FNDA:1716,_ZN4xlnt8optionalINS_5colorEE3setERKS1_
FNDA:705,_ZN4xlnt8optionalINS_8sheet_prEED2Ev
FNDA:1091,_ZNK4xlnt8optionalINS_4fontEE9value_refEv
FNDA:0,_ZNK4xlnt8optionalINS_11phonetic_pr5alignEE13compare_equalIS2_LPv0EEEbRKT_S8_
FNDA:172,_ZN4xlnt8optionalINS_6detail13workbook_impl14file_version_tEE3getEv
FNDA:8,_ZN4xlnt8optionalISt4pairINS_8column_tES2_EE9value_refEv
FNDA:150,_ZN4xlnt8optionalINS_6detail14hyperlink_implEE3getEv
FNDA:175,_ZN4xlnt8optionalINS_13workbook_viewEE9value_refEv
FNDA:0,_ZN4xlnt8optionalINS_18diagonal_directionEE3getEv
FNDA:3,_ZN4xlnt8optionalINS_14cell_referenceEEaSEOS1_
FNDA:5,_ZNK4xlnt8optionalINS_5themeEE9value_refEv
FNDA:445,_ZN4xlnt8optionalINS_13workbook_viewEEC2Ev
FNDA:226,_ZNK4xlnt8optionalINS_4fontEE3getEv
FNDA:72,_ZN4xlnt8optionalIiEaSERKi
FNDA:1,_ZN4xlnt8optionalIN12_GLOBAL__N_111alive_countEEaSEOS3_
FNDA:2862,_ZN4xlnt8optionalINS_6detail10stylesheetEE3getEv
FNDA:2137,_ZN4xlnt8optionalIdE3setEOd
FNDA:12,_ZNK4xlnt8optionalINS_10paper_sizeEEeqERKS2_
FNDA:0,_ZN4xlnt8optionalINS_6border15border_propertyEEaSEOS3_
FNDA:186216,_ZN4xlnt8optionalImE5clearEv
FNDA:2,_ZN4xlnt8optionalINS_13print_optionsEE3getEv
FNDA:102,_ZN4xlnt8optionalINS_9rich_textEEC2Ev
FNDA:1001,_ZN4xlnt8optionalINS_13print_optionsEE5clearEv
FNDA:3,_ZNK4xlnt8optionalINS_4paneEE3getEv
FNDA:445,_ZN4xlnt8optionalINS_5themeEED2Ev
FNDA:23902,_ZNK4xlnt8optionalINS_6border15border_propertyEE9value_refEv
FNDA:51379,_ZN4xlnt8optionalINS_4fontEE5clearEv
FNDA:0,_ZN4xlnt8optionalINS_12border_styleEE3setEOS1_
FNDA:1011,_ZN4xlnt8optionalISt4pairIjjEE5clearEv
FNDA:296,_ZN4xlnt8optionalINS_12page_marginsEEaSERKS2_
FNDA:116,_ZN4xlnt8optionalINS_12border_styleEE3getEv
FNDA:3,_ZN4xlnt8optionalINS_14cell_referenceEE3setEOS1_
FNDA:7,_ZNK4xlnt8optionalINS_6detail14hyperlink_implEEeqERKS3_
FNDA:25220,_ZN4xlnt8optionalIPNS_6detail11format_implEED2Ev
FNDA:876,_ZN4xlnt8optionalINS_5colorEE3setEOS1_
FNDA:57,_ZN4xlnt8optionalINSt7__cxx1112basic_stringIcSt11char_traitsIcESaIcEEEEaSEOS6_
FNDA:335,_ZN4xlnt8optionalINS_6detail10stylesheetEEaSEOS2_
FNDA:193,_ZN4xlnt8optionalINS_20horizontal_alignmentEEC2ERKS2_
FNDA:226488,_ZNK4xlnt8optionalImE6is_setEv
FNDA:4164,_ZN4xlnt8optionalIiED2Ev
FNDA:10,_ZN4xlnt8optionalINS_12border_styleEEC2EOS2_
FNDA:174,_ZNK4xlnt8optionalINS_15range_referenceEE6is_setEv
FNDA:60802,_ZN4xlnt8optionalINS_5colorEEC2ERKS2_
FNDA:421,_ZN4xlnt8optionalINS_4paneEEC2ERKS2_
FNDA:19441,_ZN4xlnt8optionalINSt7__cxx1112basic_stringIcSt11char_traitsIcESaIcEEEEC2Ev
FNDA:8135,_ZN4xlnt8optionalINS_6border15border_propertyEE9value_refEv
FNDA:705,_ZN4xlnt8optionalINS_7drawing19spreadsheet_drawingEED2Ev
FNDA:259,_ZN4xlnt8optionalINS_12border_styleEEaSERKS1_
FNDA:6186,_ZNK4xlnt8optionalIdE13compare_equalIdLPv0EEEbRKT_S6_
FNDA:25220,_ZN4xlnt8optionalINS_6detail14hyperlink_implEED2Ev
FNDA:15,_ZNK4xlnt8optionalINS_13header_footerEEeqERKS2_
FNDA:38045,_ZNK4xlnt8optionalImEeqERKS1_
FNDA:108,_ZN4xlnt8optionalIiE9value_refEv
FNDA:8,_ZNK4xlnt8optionalINS_4paneEEeqERKS2_
FNDA:6,_ZN4xlnt8optionalINS_4fontEEaSERKS1_
FNDA:3,_ZN4xlnt8optionalINS_7drawing19spreadsheet_drawingEE3setERKS2_
FNDA:1345,_ZN4xlnt8optionalIdEaSEOS1_
FNDA:1208,_ZN4xlnt8optionalINS_14cell_referenceEED2Ev
FNDA:8,_ZN4xlnt8optionalINS_15range_referenceEE9value_refEv
FNDA:18,_ZN4xlnt8optionalINS_13header_footerEEaSERKS1_
FNDA:152,_ZN4xlnt8optionalISt5arrayINS0_INS_9rich_textEEELm3EEE9value_refEv
FNDA:2,_ZN4xlnt8optionalINS_15range_referenceEEaSEOS1_
FNDA:0,_ZNK4xlnt8optionalISt4pairINS_8column_tES2_EE13compare_equalIS3_LPv0EEEbRKT_S9_
FNDA:0,_ZN4xlnt8optionalINS_11phonetic_pr5alignEE9value_refEv
FNDA:268,_ZNK4xlnt8optionalINSt7__cxx1112basic_stringIcSt11char_traitsIcESaIcEEEE13compare_equalIS6_LPv0EEEbRKT_SC_
FNDA:1715,_ZN4xlnt8optionalINS_5colorEEaSERKS1_
FNDA:11329,_ZNK4xlnt8optionalIPNS_7commentEE6is_setEv
FNDA:4340,_ZNK4xlnt8optionalINSt7__cxx1112basic_stringIcSt11char_traitsIcESaIcEEEE3getEv
FNDA:3443,_ZNK4xlnt8optionalIbE9value_refEv
FNDA:2,_ZN4xlnt8optionalINS_8ext_listEE3getEv
FNDA:7,_ZN4xlnt8optionalINS_6detail14hyperlink_implEEaSERKS2_
FNDA:15,_ZNK4xlnt8optionalINS_12page_marginsEEeqERKS2_
FNDA:5,_ZN4xlnt8optionalINS_8sheet_prEE3getEv
FNDA:25263,_ZN4xlnt8optionalIPNS_6detail11format_implEE5clearEv
FNDA:12,_ZNK4xlnt8optionalINS_14cell_referenceEE13compare_equalIS1_LPv0EEEbRKT_S7_
FNDA:509,_ZNK4xlnt8optionalINS_11phonetic_prEE6is_setEv
FNDA:0,_ZN4xlnt8optionalINS_11phonetic_pr13phonetic_typeEEaSERKS3_
FNDA:56,_ZNK4xlnt8optionalINS_8sheet_prEE6is_setEv
FNDA:296,_ZN4xlnt8optionalINS_13header_footerEEaSERKS2_
FNDA:88,_ZN4xlnt8optionalINS_22calculation_propertiesEE9value_refEv
FNDA:143,_ZNK4xlnt8optionalINS_18vertical_alignmentEE6is_setEv
FNDA:706,_ZN4xlnt8optionalINS_13print_optionsEEC2Ev
FNDA:10,_ZN4xlnt8optionalISt4pairIjjEEC2ERKS3_
FNDA:143,_ZN4xlnt8optionalIbE9value_refEv
FNDA:1,_ZN4xlnt8optionalIN12_GLOBAL__N_111convertibleEE5clearEv
FNDA:1460,_ZN4xlnt8optionalINS_20horizontal_alignmentEE5clearEv
FNDA:4871,_ZN4xlnt8optionalImEC2EOm
FNDA:0,_ZN4xlnt8optionalINS_18diagonal_directionEE9value_refEv
FNDA:921,_ZN4xlnt8optionalINS_5colorEEaSEOS2_
FNDA:47520,_ZN4xlnt8optionalINS_5colorEE5clearEv
FNDA:0,_ZN4xlnt8optionalINS_5themeEE3getEv
FNDA:43,_ZN4xlnt8optionalINS_11phonetic_pr13phonetic_typeEE3setERKS2_
FNDA:2,_ZNK4xlnt8optionalINS_11phonetic_pr13phonetic_typeEEeqERKS3_
FNDA:24618,_ZN4xlnt8optionalIbEC2Ev
FNDA:11673,_ZN4xlnt8optionalIPNS_7commentEEC2Ev
FNDA:0,_ZNK4xlnt8optionalINS_4paneEE13compare_equalIS1_LPv0EEEbRKT_S7_
FNDA:706,_ZN4xlnt8optionalISt4pairINS_8column_tES2_EEC2Ev
FNDA:1324,_ZN4xlnt8optionalINS_20horizontal_alignmentEED2Ev
FNDA:445,_ZN4xlnt8optionalINS_6detail13workbook_impl14file_version_tEEC2Ev
FNDA:3,_ZN4xlnt8optionalI2tmE3setERKS1_
FNDA:12,_ZNK4xlnt8optionalIPNS_6detail11format_implEE3getEv
FNDA:4,_ZN4xlnt8optionalINS_11phonetic_prEE3getEv
FNDA:19,_ZNK4xlnt8optionalImEneERKS1_
FNDA:25,_ZN4xlnt8optionalINS_10page_setupEE3setERKS1_
FNDA:0,_ZN4xlnt8optionalINS_18diagonal_directionEE3setEOS1_
FNDA:2,_ZN4xlnt8optionalINS_15range_referenceEE3setEOS1_
FNDA:2,_ZNK4xlnt8optionalINS_5themeEE13compare_equalIS1_LPv0EEEbRKT_S7_
FNDA:0,_ZN4xlnt8optionalINS_11phonetic_pr5alignEEaSERKS3_
FNDA:116,_ZN4xlnt8optionalINS_12border_styleEE9value_refEv
FNDA:88447,_ZN4xlnt8optionalIdE3setERKd
FNDA:3,_ZN4xlnt8optionalI2tmEaSERKS1_
FNDA:0,_ZN4xlnt8optionalINS_12border_styleEEaSEOS2_
FNDA:196,_ZNK4xlnt8optionalINS_13workbook_viewEE6is_setEv
FNDA:9,_ZN4xlnt8optionalINS_11orientationEE9value_refEv
FNDA:21,_ZN4xlnt8optionalINS_13header_footerEE3getEv
FNDA:14,_ZNK4xlnt8optionalINS_5themeEEeqERKS2_
FNDA:0,_ZNK4xlnt8optionalINS_8ext_listEE13compare_equalIS1_LPv0EEEbRKT_S7_
FNDA:0,_ZN4xlnt8optionalINS_11phonetic_pr13phonetic_typeEE9value_refEv
FNDA:18278,_ZN4xlnt8optionalINS_11phonetic_prEEaSERKS2_
FNDA:705,_ZN4xlnt8optionalINS_13print_optionsEED2Ev
FNDA:99,_ZNK4xlnt8optionalINS_6detail10stylesheetEE3getEv
FNDA:0,_ZN4xlnt8optionalINS_14cell_referenceEEaSERKS2_
FNDA:3,_ZN4xlnt8optionalIN12_GLOBAL__N_111alive_countEEC2Ev
FNDA:1,_ZN4xlnt8optionalIN12_GLOBAL__N_110no_defaultEEC2Ev
FNDA:9,_ZN4xlnt8optionalI2tmE3getEv
FNDA:12,_ZN4xlnt8optionalINS_13print_optionsEE3setERKS1_
FNDA:102,_ZNK4xlnt8optionalINS_9rich_textEE6is_setEv
FNDA:1001,_ZN4xlnt8optionalINS_13header_footerEE5clearEv
FNDA:6,_ZN4xlnt8optionalINS_4fontEE3setERKS1_
FNDA:9,_ZNK4xlnt8optionalINS_11orientationEE6is_setEv
FNDA:243,_ZN4xlnt8optionalINS_18vertical_alignmentEEC2ERKS2_
FNDA:11404,_ZN4xlnt8optionalINSt7__cxx1112basic_stringIcSt11char_traitsIcESaIcEEEEC2EOS7_
FNDA:3,_ZN4xlnt8optionalI2tmEC2Ev
FNDA:73,_ZN4xlnt8optionalIiE3getEv
FNDA:706,_ZN4xlnt8optionalINS_8sheet_prEEC2Ev
FNDA:1001,_ZN4xlnt8optionalINS_10page_setupEE5clearEv
FNDA:29,_ZNK4xlnt8optionalINS_8ext_listEEeqERKS2_
FNDA:9,_ZNK4xlnt8optionalINS_10paper_sizeEE6is_setEv
FNDA:655,_ZN4xlnt8optionalINS_18vertical_alignmentEEC2EOS2_
FNDA:11970,_ZNK4xlnt8optionalINS_12border_styleEE6is_setEv
FNDA:1,_ZNK4xlnt8optionalIN12_GLOBAL__N_111convertibleEE6is_setEv
FNDA:15,_ZN4xlnt8optionalIbE3getEv
FNDA:1472,_ZN4xlnt8optionalINS_18diagonal_directionEED2Ev
FNDA:302,_ZN4xlnt8optionalINS_12page_marginsEE9value_refEv
FNDA:47,_ZN4xlnt8optionalINS_11phonetic_pr13phonetic_typeEEC2Ev
FNDA:3038,_ZN4xlnt8optionalINS_6border15border_propertyEEC2Ev
FNDA:399,_ZN4xlnt8optionalINS_18vertical_alignmentEEaSERKS1_
FNDA:41,_ZN4xlnt8optionalINS_6detail14hyperlink_implEEaSERKS3_
FNDA:0,_ZN4xlnt8optionalINS_9rich_textEE3setEOS1_
FNDA:14,_ZNK4xlnt8optionalINS_13workbook_viewEEeqERKS2_
FNDA:41448,_ZN4xlnt8optionalINS_11phonetic_prEEC2Ev
FNDA:301,_ZN4xlnt8optionalINS_12page_marginsEE3getEv
FNDA:784,_ZN4xlnt8optionalINS_4paneEE5clearEv
FNDA:3,_ZN4xlnt8optionalIN12_GLOBAL__N_111alive_countEE3setEOS2_
FNDA:34624,_ZN4xlnt8optionalINS_6border15border_propertyEED2Ev
FNDA:1,_ZN4xlnt8optionalIN12_GLOBAL__N_111alive_countEE3setERKS2_
FNDA:382,_ZNK4xlnt8optionalIiE6is_setEv
FNDA:18,_ZN4xlnt8optionalINS_13header_footerEE3setERKS1_
FNDA:706,_ZN4xlnt8optionalISt4pairIjjEEC2Ev
FNDA:2,_ZNK4xlnt8optionalINS_11phonetic_prEE13compare_equalIS1_LPv0EEEbRKT_S7_
FNDA:0,_ZN4xlnt8optionalIbEaSEOS1_
FNDA:2428,_ZN4xlnt8optionalINS_5colorEE3getEv
FNDA:8125,_ZN4xlnt8optionalINS_6border15border_propertyEE3getEv
FNDA:22581,_ZNK4xlnt8optionalINSt7__cxx1112basic_stringIcSt11char_traitsIcESaIcEEEE6is_setEv
FNDA:1,_ZN4xlnt8optionalINS_5themeEE9value_refEv
FNDA:2,_ZN4xlnt8optionalIiEaSEOS1_
FNDA:323,_ZN4xlnt8optionalINS_5themeEE3setERKS1_
FNDA:34,_ZN4xlnt8optionalISt5arrayINS0_INS_9rich_textEEELm3EEEaSEOS4_
FNDA:202,_ZN4xlnt8optionalINS_11phonetic_pr13phonetic_typeEED2Ev
FNDA:1,_ZN4xlnt8optionalIN12_GLOBAL__N_111alive_countEEC2ERKS3_
FNDA:254,_ZN4xlnt8optionalINS_9rich_textEE5clearEv
FNDA:349,_ZN4xlnt8optionalIPNS_6detail11format_implEE3setERKS3_
FNDA:1288,_ZN4xlnt8optionalINS_6border15border_propertyEEC2EOS3_
FNDA:4,_ZN4xlnt8optionalIN12_GLOBAL__N_111alive_countEEC2EOS2_
FNDA:14,_ZNK4xlnt8optionalINS_6detail13workbook_impl14file_version_tEEeqERKS4_
FNDA:4,_ZN4xlnt8optionalINS_11phonetic_prEE9value_refEv
FNDA:8,_ZNK4xlnt8optionalINS_13workbook_viewEE13compare_equalIS1_LPv0EEEbRKT_S7_
FNDA:2,_ZN4xlnt8optionalISt4pairIjjEE3setEOS2_
FNDA:57,_ZNK4xlnt8optionalINS_13header_footerEE6is_setEv
FNDA:0,_ZN4xlnt8optionalISt4pairINS_8column_tES2_EE3setERKS3_
FNDA:655,_ZN4xlnt8optionalINS_20horizontal_alignmentEEC2EOS2_
FNDA:8,_ZNK4xlnt8optionalINS_11phonetic_pr5alignEE6is_setEv
FNDA:11673,_ZN4xlnt8optionalINS_6detail14hyperlink_implEEC2Ev
FNDA:88,_ZN4xlnt8optionalINS_22calculation_propertiesEE3getEv
FNDA:119954,_ZN4xlnt8optionalImEC2Ev
FNDA:27,_ZN4xlnt8optionalINS_11orientationEEC2Ev
FNDA:8108,_ZNK4xlnt8optionalINSt7__cxx1112basic_stringIcSt11char_traitsIcESaIcEEEE9value_refEv
FNDA:12,_ZNK4xlnt8optionalINS_8sheet_prEE9value_refEv
FNDA:673,_ZN4xlnt8optionalIPNS_6detail11format_implEE9value_refEv
FNDA:640,_ZN4xlnt8optionalINS_6detail10stylesheetEE5clearEv
FNDA:93,_ZN4xlnt8optionalINSt7__cxx1112basic_stringIcSt11char_traitsIcESaIcEEEE3setEOS6_
FNDA:461,_ZN4xlnt8optionalINS_14cell_referenceEEC2Ev
FNDA:1212,_ZN4xlnt8optionalIiEC2ERKS1_
FNDA:88,_ZNK4xlnt8optionalINS_18diagonal_directionEE6is_setEv
FNDA:21047,_ZN4xlnt8optionalImEC2EOS1_
FNDA:705,_ZN4xlnt8optionalINS_10page_setupEED2Ev
FNDA:2,_ZN4xlnt8optionalINS_15range_referenceEEaSERKS1_
FNDA:10687,_ZN4xlnt8optionalIbEaSERKS1_
FNDA:2137,_ZN4xlnt8optionalIdEaSEOd
FNDA:335,_ZN4xlnt8optionalINS_6detail10stylesheetEE3setEOS2_
FNDA:202,_ZN4xlnt8optionalINS_11phonetic_pr5alignEED2Ev
FNDA:1,_ZN4xlnt8optionalIN12_GLOBAL__N_110no_defaultEE5clearEv
FNDA:25220,_ZN4xlnt8optionalIPNS_7commentEED2Ev
FNDA:10,_ZNK4xlnt8optionalIiEneERKS1_
FNDA:0,_ZNK4xlnt8optionalISt4pairIjjEE13compare_equalIS2_LPv0EEEbRKT_S8_
FNDA:640,_ZN4xlnt8optionalINS_13workbook_viewEE5clearEv
FNDA:6,_ZNK4xlnt8optionalINS_13print_optionsEE13compare_equalIS1_LPv0EEEbRKT_S7_
FNDA:46558,_ZN4xlnt8optionalINS_5colorEED2Ev
FNDA:15019,_ZN4xlnt8optionalIdEC2EOS1_
FNDA:65,_ZNK4xlnt8optionalISt4pairINS_8column_tES2_EE6is_setEv
FNDA:0,_ZN4xlnt8optionalINS_11orientationEE3setERKS1_
FNDA:93,_ZNK4xlnt8optionalINS_14cell_referenceEE6is_setEv
FNDA:47,_ZNK4xlnt8optionalINS_22calculation_propertiesEE6is_setEv
FNDA:202,_ZN4xlnt8optionalINS_11phonetic_pr5alignEE5clearEv
FNDA:2609,_ZN4xlnt8optionalINS_5colorEEC2EOS2_
FNDA:0,_ZNK4xlnt8optionalINS_8ext_listEE9value_refEv
FNDA:1,_ZN4xlnt8optionalIN12_GLOBAL__N_111convertibleEE3getEv
FNDA:0,_ZN4xlnt8optionalINS_12border_styleEEaSERKS2_
FNDA:123,_ZN4xlnt8optionalINS_11orientationEED2Ev
FNDA:5,_ZNK4xlnt8optionalINS_11phonetic_pr13phonetic_typeEE3getEv
FNDA:445,_ZN4xlnt8optionalINS_6detail13workbook_impl14file_version_tEED2Ev
FNDA:32546,_ZN4xlnt8optionalImEC2ERKS1_
FNDA:2,_ZN4xlnt8optionalINS_8ext_listEE9value_refEv
FNDA:2,_ZN4xlnt8optionalISt4pairINS_8column_tES2_EEaSEOS3_
FNDA:0,_ZNK4xlnt8optionalINS_6detail14hyperlink_implEE9value_refEv
FNDA:50,_ZN4xlnt8optionalINS_4paneEE9value_refEv
FNDA:1001,_ZN4xlnt8optionalINS_8sheet_prEE5clearEv
FNDA:116414,_ZNK4xlnt8optionalImE9value_refEv
FNDA:12,_ZN4xlnt8optionalIN12_GLOBAL__N_111alive_countEE5clearEv
FNDA:123,_ZN4xlnt8optionalINS_11orientationEE5clearEv
FNDA:330,_ZN4xlnt8optionalINS_4fontEE3getEv
FNDA:4,_ZN4xlnt8optionalIiEaSERKS1_
FNDA:0,_ZN4xlnt8optionalINS_4paneEEC2EOS2_
FNDA:640,_ZN4xlnt8optionalINS_6detail13workbook_impl14file_version_tEE5clearEv
FNDA:23263,_ZNK4xlnt8optionalImE13compare_equalImLPv0EEEbRKT_S6_
FNDA:1,_ZN4xlnt8optionalIN12_GLOBAL__N_111convertibleEED2Ev
FNDA:715,_ZN4xlnt8optionalISt4pairIjjEED2Ev
FNDA:204,_ZN4xlnt8optionalINS_9rich_textEED2Ev
FNDA:17,_ZNK4xlnt8optionalINS_4fontEE13compare_equalIS1_LPv0EEEbRKT_S7_
FNDA:0,_ZNK4xlnt8optionalIPNS_7commentEE3getEv
FNDA:9,_ZN4xlnt8optionalINS_11orientationEE3getEv
FNDA:89318,_ZN4xlnt8optionalImEaSERKm
FNDA:854,_ZN4xlnt8optionalINS_18diagonal_directionEEC2ERKS2_
FNDA:44771,_ZN4xlnt8optionalIdEaSERKS1_
FNDA:9942,_ZNK4xlnt8optionalINS_11phonetic_prEEneERKS2_
FNDA:296,_ZN4xlnt8optionalINS_8ext_listEEaSERKS2_
FNDA:445,_ZN4xlnt8optionalINS_22calculation_propertiesEEC2Ev
FNDA:56,_ZNK4xlnt8optionalINS_8ext_listEE6is_setEv
FNDA:8,_ZNK4xlnt8optionalISt4pairIjjEE9value_refEv
FNDA:2046,_ZN4xlnt8optionalIPNS_6detail11format_implEEC2EOS4_
FNDA:8,_ZNK4xlnt8optionalINS_6detail10stylesheetEE13compare_equalIS2_LPv0EEEbRKT_S8_
FNDA:30,_ZNK4xlnt8optionalINS_15range_referenceEEeqERKS2_
FNDA:26,_ZN4xlnt8optionalINS_11orientationEE3setEOS1_
FNDA:10,_ZN4xlnt8optionalISt4pairINS_8column_tES2_EEC2ERKS4_
FNDA:154,_ZNK4xlnt8optionalINS_11phonetic_pr13phonetic_typeEE9value_refEv
FNDA:96,_ZNK4xlnt8optionalINS_11orientationEE9value_refEv
FNDA:12,_ZNK4xlnt8optionalINS_13print_optionsEE9value_refEv
FNDA:15,_ZNK4xlnt8optionalINS_10page_setupEEeqERKS2_
FNDA:50654,_ZN4xlnt8optionalIdE9value_refEv
FNDA:15,_ZNK4xlnt8optionalISt4pairIjjEEeqERKS3_
FNDA:0,_ZN4xlnt8optionalINS_18diagonal_directionEEaSEOS2_
FNDA:12,_ZNK4xlnt8optionalINS_13header_footerEE9value_refEv
FNDA:333,_ZN4xlnt8optionalINS_13workbook_viewEEaSERKS1_
FNDA:173,_ZN4xlnt8optionalINS_6detail13workbook_impl14file_version_tEE9value_refEv
FNDA:121035,_ZN4xlnt8optionalIdED2Ev
FNDA:6,_ZNK4xlnt8optionalINS_8sheet_prEE13compare_equalIS1_LPv0EEEbRKT_S7_
FNF:559
FNH:514
DA:58,23904
DA:60,23904
DA:67,6186
DA:69,6186
DA:76,374798
DA:77,374798
DA:79,374798
DA:85,29
DA:86,29
DA:88,29
DA:89,29
DA:95,5042
DA:96,5042
DA:98,5042
DA:99,5042
DA:105,306840
DA:106,306840
DA:108,306840
DA:110,60174
DA:112,306840
DA:118,78398
DA:119,78398
DA:121,78398
DA:123,10612
DA:124,10612
DA:126,78398
DA:132,130636
DA:134,130636
DA:136,95022
DA:140,35614
DA:142,130636
DA:149,7309
DA:151,7309
DA:153,5511
DA:154,5511
DA:158,1798
DA:160,7309
DA:166,715852
DA:168,715852
DA:169,715852
DA:175,403422
DA:177,403422
DA:183,239689
DA:189,239689
DA:191,47016
DA:195,192673
DA:196,192673
DA:201,239689
DA:206,23076
DA:216,23076
DA:218,1298
DA:222,21778
DA:223,21778
DA:228,23076
DA:233,144487
DA:235,144487
DA:236,144487
DA:242,17058
DA:244,17058
DA:245,17058
DA:251,786558
DA:253,786558
DA:255,280036
DA:257,786558
DA:258,786558
DA:264,207228
DA:266,207228
DA:268,3
DA:271,207225
DA:278,19767
DA:280,19767
DA:282,0
DA:285,19767
DA:293,89053
DA:295,89053
DA:297,4110
DA:299,84943
DA:301,54853
DA:304,30090
DA:312,9971
DA:314,9971
DA:319,271662
DA:321,271662
DA:324,235143
DA:326,235143
LF:85
LH:84
end_of_record
TN:
SF:/root/project/include/xlnt/utils/path.hpp
FN:239,_ZNKSt4hashIN4xlnt4pathEEclERKS1_
FNDA:57470,_ZNKSt4hashIN4xlnt4pathEEclERKS1_
FNF:1
FNH:1
DA:239,57470
DA:242,57470
LF:2
LH:2
end_of_record
TN:
SF:/root/project/include/xlnt/utils/scoped_enum_hash.hpp
FN:41,_ZNK4xlnt16scoped_enum_hashINS_13header_footer8locationEEclES2_
FN:41,_ZNK4xlnt16scoped_enum_hashINS_7variant4typeEEclES2_
FNDA:145,_ZNK4xlnt16scoped_enum_hashINS_7variant4typeEEclES2_
FNDA:198,_ZNK4xlnt16scoped_enum_hashINS_13header_footer8locationEEclES2_
FNF:2
FNH:2
DA:41,343
DA:44,343
LF:2
LH:2
end_of_record
TN:
SF:/root/project/include/xlnt/workbook/calculation_properties.hpp
FN:52,_ZN4xlnteqERKNS_22calculation_propertiesES2_
FNDA:8,_ZN4xlnteqERKNS_22calculation_propertiesES2_
FNF:1
FNH:1
DA:52,8
DA:54,8
DA:55,8
LF:3
LH:3
end_of_record
TN:
SF:/root/project/include/xlnt/workbook/theme.hpp
FN:38,_ZNK4xlnt5themeeqERKS0_
FNDA:2,_ZNK4xlnt5themeeqERKS0_
FNF:1
FNH:1
DA:38,2
DA:40,2
LF:2
LH:2
end_of_record
TN:
SF:/root/project/include/xlnt/workbook/workbook.hpp
FN:185,_ZN4xlnt8workbookC2EOS0_
FN:191,_ZN4xlnt8workbookC2ERKS0_
FN:198,_ZN4xlnt8workbookD2Ev
FN:954,_ZN4xlnt8workbookaSERKS0_
FN:960,_ZN4xlnt8workbookaSEOS0_
FNDA:2,_ZN4xlnt8workbookaSERKS0_
FNDA:2,_ZN4xlnt8workbookC2ERKS0_
FNDA:1,_ZN4xlnt8workbookC2EOS0_
FNDA:1328,_ZN4xlnt8workbookD2Ev
FNDA:9,_ZN4xlnt8workbookaSEOS0_
FNF:5
FNH:5
DA:185,1
DA:191,2
DA:198,1328
DA:954,2
DA:960,9
LF:5
LH:5
end_of_record
TN:
SF:/root/project/include/xlnt/workbook/workbook_view.hpp
FN:106,_ZN4xlnteqERKNS_13workbook_viewES2_
FNDA:8,_ZN4xlnteqERKNS_13workbook_viewES2_
FNF:1
FNH:1
DA:106,8
DA:108,8
DA:109,8
DA:110,8
DA:111,8
DA:112,8
DA:113,8
DA:114,8
DA:115,8
DA:116,16
LF:10
LH:10
end_of_record
TN:
SF:/root/project/include/xlnt/workbook/worksheet_iterator.hpp
FN:59,_ZN4xlnt18worksheet_iteratorC2Ev
FN:169,_ZN4xlnt24const_worksheet_iteratorC2Ev
FNDA:2,_ZN4xlnt18worksheet_iteratorC2Ev
FNDA:2,_ZN4xlnt24const_worksheet_iteratorC2Ev
FNF:2
FNH:2
DA:59,2
DA:169,2
LF:2
LH:2
end_of_record
TN:
SF:/root/project/include/xlnt/worksheet/cell_iterator.hpp
FN:63,_ZN4xlnt13cell_iteratorC2Ev
FN:74,_ZN4xlnt13cell_iteratorC2ERKS0_
FN:89,_ZN4xlnt13cell_iteratoraSEOS0_
FN:202,_ZN4xlnt19const_cell_iteratorC2Ev
FN:213,_ZN4xlnt19const_cell_iteratorC2ERKS0_
FNDA:2,_ZN4xlnt13cell_iteratorC2Ev
FNDA:2,_ZN4xlnt13cell_iteratoraSEOS0_
FNDA:198,_ZN4xlnt13cell_iteratorC2ERKS0_
FNDA:517,_ZN4xlnt19const_cell_iteratorC2ERKS0_
FNDA:2,_ZN4xlnt19const_cell_iteratorC2Ev
FNF:5
FNH:5
DA:63,2
DA:74,198
DA:89,2
DA:202,2
DA:213,517
LF:5
LH:5
end_of_record
TN:
SF:/root/project/include/xlnt/worksheet/column_properties.hpp
FN:70,_ZN4xlnteqERKNS_17column_propertiesES2_
FNDA:6150,_ZN4xlnteqERKNS_17column_propertiesES2_
FNF:1
FNH:1
DA:70,6150
DA:72,6150
DA:73,6150
DA:74,6150
DA:75,6150
DA:76,12300
LF:6
LH:6
end_of_record
TN:
SF:/root/project/include/xlnt/worksheet/pane.hpp
FN:90,_ZNK4xlnt4paneeqERKS0_
FNDA:0,_ZNK4xlnt4paneeqERKS0_
FNF:1
FNH:0
DA:90,0
DA:92,0
DA:93,0
DA:94,0
DA:95,0
DA:96,0
LF:6
LH:0
end_of_record
TN:
SF:/root/project/include/xlnt/worksheet/print_options.hpp
FN:60,_ZN4xlnteqERKNS_13print_optionsES2_
FNDA:6,_ZN4xlnteqERKNS_13print_optionsES2_
FNF:1
FNH:1
DA:60,6
DA:62,6
DA:63,6
DA:64,6
DA:65,6
DA:66,12
LF:6
LH:6
end_of_record
TN:
SF:/root/project/include/xlnt/worksheet/range.hpp
FN:90,_ZN4xlnt5rangeC2ERKS0_
FNDA:6,_ZN4xlnt5rangeC2ERKS0_
FNF:1
FNH:1
DA:90,6
LF:1
LH:1
end_of_record
TN:
SF:/root/project/include/xlnt/worksheet/range_iterator.hpp
FN:58,_ZN4xlnt14range_iteratorC2Ev
FN:70,_ZN4xlnt14range_iteratorC2ERKS0_
FN:85,_ZN4xlnt14range_iteratoraSEOS0_
FN:178,_ZN4xlnt20const_range_iteratorC2Ev
FNDA:2,_ZN4xlnt20const_range_iteratorC2Ev
FNDA:22,_ZN4xlnt14range_iteratorC2ERKS0_
FNDA:2,_ZN4xlnt14range_iteratorC2Ev
FNDA:1,_ZN4xlnt14range_iteratoraSEOS0_
FNF:4
FNH:4
DA:58,2
DA:70,22
DA:85,1
DA:178,2
LF:4
LH:4
end_of_record
TN:
SF:/root/project/include/xlnt/worksheet/row_properties.hpp
FN:79,_ZN4xlnteqERKNS_14row_propertiesES2_
FNDA:6,_ZN4xlnteqERKNS_14row_propertiesES2_
FNF:1
FNH:1
DA:79,6
DA:81,6
DA:82,6
DA:83,6
DA:84,6
DA:85,6
DA:86,6
DA:87,12
LF:8
LH:8
end_of_record
TN:
SF:/root/project/include/xlnt/worksheet/selection.hpp
FN:47,_ZN4xlnt9selectionC2Ev
FN:53,_ZN4xlnt9selectionC2ENS_11pane_cornerENS_14cell_referenceE
FN:70,_ZNK4xlnt9selection15has_active_cellEv
FN:78,_ZNK4xlnt9selection11active_cellEv
FN:86,_ZN4xlnt9selection11active_cellERKNS_14cell_referenceE
FN:94,_ZNK4xlnt9selection9has_sqrefEv
FN:107,_ZNK4xlnt9selection5sqrefEv
FN:118,_ZNK4xlnt9selection6sqrefsEv
FN:149,_ZNK4xlnt9selection4paneEv
FN:157,_ZN4xlnt9selection4paneENS_11pane_cornerE
FN:166,_ZNK4xlnt9selectioneqERKS0_
FNDA:66,_ZN4xlnt9selectionC2Ev
FNDA:39,_ZNK4xlnt9selection9has_sqrefEv
FNDA:18,_ZN4xlnt9selectionC2ENS_11pane_cornerENS_14cell_referenceE
FNDA:6,_ZNK4xlnt9selectioneqERKS0_
FNDA:35,_ZNK4xlnt9selection11active_cellEv
FNDA:13,_ZN4xlnt9selection4paneENS_11pane_cornerE
FNDA:42,_ZNK4xlnt9selection4paneEv
FNDA:32,_ZNK4xlnt9selection15has_active_cellEv
FNDA:61,_ZN4xlnt9selection11active_cellERKNS_14cell_referenceE
FNDA:7,_ZNK4xlnt9selection5sqrefEv
FNDA:41,_ZNK4xlnt9selection6sqrefsEv
FNF:11
FNH:11
DA:47,66
DA:53,18
DA:54,36
DA:56,18
DA:70,32
DA:72,32
DA:78,35
DA:80,35
DA:86,61
DA:88,61
DA:89,61
DA:94,39
DA:96,39
DA:107,7
DA:109,7
DA:110,0
DA:112,7
DA:118,41
DA:120,41
DA:149,42
DA:151,42
DA:157,13
DA:159,13
DA:160,13
DA:166,6
DA:168,6
DA:169,6
DA:170,12
LF:28
LH:27
end_of_record
TN:
SF:/root/project/include/xlnt/worksheet/sheet_format_properties.hpp
FN:60,_ZN4xlnteqERKNS_23sheet_format_propertiesES2_
FNDA:16,_ZN4xlnteqERKNS_23sheet_format_propertiesES2_
FNF:1
FNH:1
DA:60,16
DA:62,16
DA:63,16
DA:64,16
DA:65,32
LF:5
LH:5
end_of_record
TN:
SF:/root/project/include/xlnt/worksheet/sheet_pr.hpp
FN:83,_ZN4xlnteqERKNS_8sheet_prES2_
FNDA:6,_ZN4xlnteqERKNS_8sheet_prES2_
FNF:1
FNH:1
DA:83,6
DA:85,6
DA:86,6
DA:87,6
DA:88,6
DA:89,6
DA:90,6
DA:91,6
DA:92,6
DA:93,12
LF:10
LH:10
end_of_record
TN:
SF:/root/project/include/xlnt/worksheet/sheet_view.hpp
FN:55,_ZN4xlnt10sheet_view2idEm
FN:63,_ZNK4xlnt10sheet_view2idEv
FN:71,_ZNK4xlnt10sheet_view8has_paneEv
FN:79,_ZN4xlnt10sheet_view4paneEv
FN:87,_ZNK4xlnt10sheet_view4paneEv
FN:95,_ZN4xlnt10sheet_view10clear_paneEv
FN:103,_ZN4xlnt10sheet_view4paneERKNS_4paneE
FN:111,_ZNK4xlnt10sheet_view14has_selectionsEv
FN:119,_ZN4xlnt10sheet_view13add_selectionERKNS_9selectionE
FN:127,_ZN4xlnt10sheet_view16clear_selectionsEv
FN:135,_ZNK4xlnt10sheet_view10selectionsEv
FN:143,_ZN4xlnt10sheet_view9selectionEm
FN:151,_ZN4xlnt10sheet_view15show_grid_linesEb
FN:159,_ZNK4xlnt10sheet_view15show_grid_linesEv
FN:167,_ZN4xlnt10sheet_view18default_grid_colorEb
FN:183,_ZN4xlnt10sheet_view4typeENS_15sheet_view_typeE
FN:191,_ZNK4xlnt10sheet_view4typeEv
FN:199,_ZNK4xlnt10sheet_view17has_top_left_cellEv
FN:207,_ZN4xlnt10sheet_view13top_left_cellERKNS_14cell_referenceE
FN:215,_ZNK4xlnt10sheet_view13top_left_cellEv
FN:224,_ZNK4xlnt10sheet_vieweqERKS0_
FNDA:53,_ZNK4xlnt10sheet_view17has_top_left_cellEv
FNDA:84,_ZN4xlnt10sheet_view13add_selectionERKNS_9selectionE
FNDA:3,_ZNK4xlnt10sheet_view4paneEv
FNDA:8,_ZNK4xlnt10sheet_vieweqERKS0_
FNDA:72,_ZNK4xlnt10sheet_view10selectionsEv
FNDA:2,_ZN4xlnt10sheet_view10clear_paneEv
FNDA:13,_ZN4xlnt10sheet_view18default_grid_colorEb
FNDA:64,_ZNK4xlnt10sheet_view8has_paneEv
FNDA:13,_ZN4xlnt10sheet_view15show_grid_linesEb
FNDA:50,_ZN4xlnt10sheet_view4paneEv
FNDA:10,_ZN4xlnt10sheet_view4paneERKNS_4paneE
FNDA:9,_ZN4xlnt10sheet_view16clear_selectionsEv
FNDA:55,_ZNK4xlnt10sheet_view4typeEv
FNDA:4,_ZN4xlnt10sheet_view4typeENS_15sheet_view_typeE
FNDA:3,_ZNK4xlnt10sheet_view13top_left_cellEv
FNDA:11,_ZN4xlnt10sheet_view9selectionEm
FNDA:53,_ZNK4xlnt10sheet_view2idEv
FNDA:15,_ZN4xlnt10sheet_view13top_left_cellERKNS_14cell_referenceE
FNDA:54,_ZNK4xlnt10sheet_view15show_grid_linesEv
FNDA:7,_ZNK4xlnt10sheet_view14has_selectionsEv
FNDA:110,_ZN4xlnt10sheet_view2idEm
FNF:21
FNH:21
DA:55,110
DA:57,110
DA:58,110
DA:63,53
DA:65,53
DA:71,64
DA:73,64
DA:79,50
DA:81,50
DA:87,3
DA:89,3
DA:95,2
DA:97,2
DA:98,2
DA:103,10
DA:105,10
DA:106,10
DA:111,7
DA:113,7
DA:119,84
DA:121,84
DA:122,84
DA:127,9
DA:129,9
DA:130,9
DA:135,72
DA:137,72
DA:143,11
DA:145,11
DA:151,13
DA:153,13
DA:154,13
DA:159,54
DA:161,54
DA:167,13
DA:169,13
DA:170,13
DA:183,4
DA:185,4
DA:186,4
DA:191,55
DA:193,55
DA:199,53
DA:201,53
DA:207,15
DA:209,15
DA:210,15
DA:215,3
DA:217,3
DA:224,8
DA:226,8
DA:227,8
DA:228,8
DA:229,8
DA:230,8
DA:231,16
LF:56
LH:56
end_of_record
TN:
SF:/root/project/source/cell/cell.cpp
FN:65,_ZN12_GLOBAL__N_112cast_numericERKNSt7__cxx1112basic_stringIcSt11char_traitsIcESaIcEEE
FN:74,_ZN12_GLOBAL__N_115cast_percentageERKNSt7__cxx1112basic_stringIcSt11char_traitsIcESaIcEEE
FN:89,_ZN12_GLOBAL__N_19cast_timeERKNSt7__cxx1112basic_stringIcSt11char_traitsIcESaIcEEE
FN:155,_ZN4xlnt4cell11error_codesB5cxx11Ev
FN:169,_ZN4xlnt4cell12check_stringERKNSt7__cxx1112basic_stringIcSt11char_traitsIcESaIcEEE
FN:194,_ZN4xlnt4cellC2EPNS_6detail9cell_implE
FN:199,_ZNK4xlnt4cell19garbage_collectibleEv
FN:204,_ZN4xlnt4cell5valueEDn
FN:209,_ZN4xlnt4cell5valueEb
FN:215,_ZN4xlnt4cell5valueEi
FN:221,_ZN4xlnt4cell5valueEj
FN:227,_ZN4xlnt4cell5valueEx
FN:233,_ZN4xlnt4cell5valueEy
FN:239,_ZN4xlnt4cell5valueEf
FN:245,_ZN4xlnt4cell5valueEd
FN:251,_ZN4xlnt4cell5valueERKNSt7__cxx1112basic_stringIcSt11char_traitsIcESaIcEEE
FN:256,_ZN4xlnt4cell5valueERKNS_9rich_textE
FN:264,_ZN4xlnt4cell5valueEPKc
FN:269,_ZN4xlnt4cell5valueES0_
FN:279,_ZN4xlnt4cell5valueERKNS_4dateE
FN:286,_ZN4xlnt4cell5valueERKNS_8datetimeE
FN:293,_ZN4xlnt4cell5valueERKNS_4timeE
FN:300,_ZN4xlnt4cell5valueERKNS_9timedeltaE
FN:307,_ZNK4xlnt4cell3rowEv
FN:312,_ZNK4xlnt4cell6columnEv
FN:317,_ZNK4xlnt4cell12column_indexEv
FN:322,_ZN4xlnt4cell6mergedEb
FN:327,_ZNK4xlnt4cell9is_mergedEv
FN:332,_ZNK4xlnt4cell17phonetics_visibleEv
FN:337,_ZN4xlnt4cell14show_phoneticsEb
FN:342,_ZNK4xlnt4cell7is_dateEv
FN:349,_ZNK4xlnt4cell9referenceEv
FN:354,_ZNK4xlnt4cell7compareERKS0_b
FN:366,_ZNK4xlnt4celleqERKS0_
FN:371,_ZNK4xlnt4cellneERKS0_
FN:376,_ZN4xlnt4cellaSERKS0_
FN:378,_ZNK4xlnt4cell9hyperlinkEv
FN:383,_ZN4xlnt4cell9hyperlinkERKNSt7__cxx1112basic_stringIcSt11char_traitsIcESaIcEEES8_
FN:398,_ZZN4xlnt4cell9hyperlinkERKNSt7__cxx1112basic_stringIcSt11char_traitsIcESaIcEEES8_ENKUlNS_12relationshipEE_clES9_
FN:425,_ZN4xlnt4cell9hyperlinkES0_RKNSt7__cxx1112basic_stringIcSt11char_traitsIcESaIcEEE
FN:445,_ZN4xlnt4cell9hyperlinkENS_5rangeERKNSt7__cxx1112basic_stringIcSt11char_traitsIcESaIcEEE
FN:466,_ZN4xlnt4cell7formulaERKNSt7__cxx1112basic_stringIcSt11char_traitsIcESaIcEEE
FN:485,_ZNK4xlnt4cell11has_formulaEv
FN:490,_ZNK4xlnt4cell7formulaB5cxx11Ev
FN:495,_ZN4xlnt4cell13clear_formulaEv
FN:504,_ZNK4xlnt4cell5errorB5cxx11Ev
FN:513,_ZN4xlnt4cell5errorERKNSt7__cxx1112basic_stringIcSt11char_traitsIcESaIcEEE
FN:524,_ZN4xlnt4cell6offsetEii
FN:529,_ZN4xlnt4cell9worksheetEv
FN:534,_ZNK4xlnt4cell9worksheetEv
FN:539,_ZN4xlnt4cell8workbookEv
FN:544,_ZNK4xlnt4cell8workbookEv
FN:549,_ZNK4xlnt4cell6anchorEv
FN:568,_ZNK4xlnt4cell9data_typeEv
FN:573,_ZN4xlnt4cell9data_typeENS_9cell_typeE
FN:578,_ZNK4xlnt4cell22computed_number_formatEv
FN:583,_ZNK4xlnt4cell13computed_fontEv
FN:588,_ZNK4xlnt4cell13computed_fillEv
FN:593,_ZNK4xlnt4cell15computed_borderEv
FN:598,_ZNK4xlnt4cell18computed_alignmentEv
FN:603,_ZNK4xlnt4cell19computed_protectionEv
FN:608,_ZN4xlnt4cell11clear_valueEv
FN:617,_ZNK4xlnt4cell5valueIbEET_v
FN:623,_ZNK4xlnt4cell5valueIiEET_v
FN:629,_ZNK4xlnt4cell5valueIxEET_v
FN:635,_ZNK4xlnt4cell5valueIjEET_v
FN:641,_ZNK4xlnt4cell5valueIyEET_v
FN:647,_ZNK4xlnt4cell5valueIfEET_v
FN:653,_ZNK4xlnt4cell5valueIdEET_v
FN:659,_ZNK4xlnt4cell5valueINS_4timeEEET_v
FN:665,_ZNK4xlnt4cell5valueINS_8datetimeEEET_v
FN:671,_ZNK4xlnt4cell5valueINS_4dateEEET_v
FN:677,_ZNK4xlnt4cell5valueINS_9timedeltaEEET_v
FN:682,_ZN4xlnt4cell9alignmentERKNS_9alignmentE
FN:688,_ZN4xlnt4cell6borderERKNS_6borderE
FN:694,_ZN4xlnt4cell4fillERKNS_4fillE
FN:700,_ZN4xlnt4cell4fontERKNS_4fontE
FN:706,_ZN4xlnt4cell13number_formatERKNS_13number_formatE
FN:712,_ZN4xlnt4cell10protectionERKNS_10protectionE
FN:719,_ZNK4xlnt4cell5valueINSt7__cxx1112basic_stringIcSt11char_traitsIcESaIcEEEEET_v
FN:725,_ZNK4xlnt4cell5valueINS_9rich_textEEET_v
FN:735,_ZNK4xlnt4cell9has_valueEv
FN:740,_ZNK4xlnt4cell9to_stringB5cxx11Ev
FN:763,_ZNK4xlnt4cell10has_formatEv
FN:768,_ZN4xlnt4cell6formatENS_6formatE
FN:779,_ZNK4xlnt4cell9base_dateEv
FN:784,_ZN4xlnteqEDnRKNS_4cellE
FN:789,_ZN4xlnteqERKNS_4cellEDn
FN:794,_ZN4xlntneEDnRKNS_4cellE
FN:799,_ZN4xlntneERKNS_4cellEDn
FN:804,_ZN4xlntlsERSoRKNS_4cellE
FN:809,_ZN4xlnt4cell5valueERKNSt7__cxx1112basic_stringIcSt11char_traitsIcESaIcEEEb
FN:861,_ZN4xlnt4cell12clear_formatEv
FN:870,_ZN4xlnt4cell11clear_styleEv
FN:878,_ZN4xlnt4cell5styleERKNS_5styleE
FN:890,_ZN4xlnt4cell5styleERKNSt7__cxx1112basic_stringIcSt11char_traitsIcESaIcEEE
FN:895,_ZN4xlnt4cell5styleEv
FN:907,_ZNK4xlnt4cell5styleEv
FN:917,_ZNK4xlnt4cell9has_styleEv
FN:922,_ZN4xlnt4cell17modifiable_formatEv
FN:932,_ZNK4xlnt4cell6formatEv
FN:942,_ZNK4xlnt4cell9alignmentEv
FN:947,_ZNK4xlnt4cell6borderEv
FN:952,_ZNK4xlnt4cell4fillEv
FN:957,_ZNK4xlnt4cell4fontEv
FN:962,_ZNK4xlnt4cell13number_formatEv
FN:967,_ZNK4xlnt4cell10protectionEv
FN:972,_ZNK4xlnt4cell13has_hyperlinkEv
FN:979,_ZN4xlnt4cell11has_commentEv
FN:984,_ZN4xlnt4cell13clear_commentEv
FN:993,_ZN4xlnt4cell7commentEv
FN:1003,_ZN4xlnt4cell7commentERKNSt7__cxx1112basic_stringIcSt11char_traitsIcESaIcEEES8_
FN:1008,_ZN4xlnt4cell7commentERKNSt7__cxx1112basic_stringIcSt11char_traitsIcESaIcEEERKNS_4fontES8_
FN:1013,_ZN4xlnt4cell7commentERKNS_7commentE
FN:1035,_ZNK4xlnt4cell5widthEv
FN:1040,_ZNK4xlnt4cell6heightEv
FNDA:1,_ZNK4xlnt4cell9alignmentEv
FNDA:60,_ZNK4xlnt4cell9to_stringB5cxx11Ev
FNDA:0,_ZNK4xlnt4cell5styleEv
FNDA:10966,_ZN4xlnt4cell9worksheetEv
FNDA:258,_ZN4xlnt4cell5styleERKNSt7__cxx1112basic_stringIcSt11char_traitsIcESaIcEEE
FNDA:0,_ZNK4xlnt4cell6heightEv
FNDA:0,_ZNK4xlnt4cell13computed_fontEv
FNDA:7,_ZNK4xlnt4cell4fontEv
FNDA:1,_ZN4xlnt4cell5valueEDn
FNDA:14,_ZNK4xlnt4cell9base_dateEv
FNDA:69,_ZNK4xlnt4cell5valueIdEET_v
FNDA:2,_ZN4xlnteqERKNS_4cellEDn
FNDA:1,_ZN4xlnt4cell10protectionERKNS_10protectionE
FNDA:1,_ZN4xlnt4cell13clear_commentEv
FNDA:19,_ZNK4xlnt4cell7formulaB5cxx11Ev
FNDA:1,_ZN4xlnt4cell6borderERKNS_6borderE
FNDA:10293,_ZN4xlnt4cell5valueERKNS_9rich_textE
FNDA:17,_ZNK4xlnt4cell13number_formatEv
FNDA:23504,_ZNK4xlnt4cell9data_typeEv
FNDA:260,_ZN4xlnt4cell5styleERKNS_5styleE
FNDA:112,_ZNK4xlnt4cell9has_valueEv
FNDA:7,_ZN4xlnt4cell17modifiable_formatEv
FNDA:20615,_ZN4xlnt4cell12check_stringERKNSt7__cxx1112basic_stringIcSt11char_traitsIcESaIcEEE
FNDA:0,_ZNK4xlnt4cell5valueINS_4dateEEET_v
FNDA:0,_ZN4xlntneEDnRKNS_4cellE
FNDA:23,_ZN4xlnt4cell5valueERKNSt7__cxx1112basic_stringIcSt11char_traitsIcESaIcEEEb
FNDA:3,_ZN4xlnt4cell4fillERKNS_4fillE
FNDA:1,_ZNK4xlnt4cell6borderEv
FNDA:658,_ZNK4xlnt4cell6formatEv
FNDA:17,_ZNK4xlnt4cell7compareERKS0_b
FNDA:57,_ZZN4xlnt4cell9hyperlinkERKNSt7__cxx1112basic_stringIcSt11char_traitsIcESaIcEEES8_ENKUlNS_12relationshipEE_clES9_
FNDA:39,_ZNK4xlnt4cell6columnEv
FNDA:7,_ZNK4xlnt4cell3rowEv
FNDA:17,_ZN4xlnt4cell5errorERKNSt7__cxx1112basic_stringIcSt11char_traitsIcESaIcEEE
FNDA:38,_ZN4xlnt4cell9hyperlinkERKNSt7__cxx1112basic_stringIcSt11char_traitsIcESaIcEEES8_
FNDA:11223,_ZNK4xlnt4cell17phonetics_visibleEv
FNDA:10855,_ZN4xlnt4cell8workbookEv
FNDA:349,_ZN4xlnt4cell6formatENS_6formatE
FNDA:34,_ZNK4xlnt4cell5widthEv
FNDA:0,_ZNK4xlnt4cell18computed_alignmentEv
FNDA:11,_ZN12_GLOBAL__N_112cast_numericERKNSt7__cxx1112basic_stringIcSt11char_traitsIcESaIcEEE
FNDA:1,_ZNK4xlnt4cell5valueIyEET_v
FNDA:1,_ZNK4xlnt4cell10protectionEv
FNDA:2,_ZN4xlnt4cell5valueERKNS_9timedeltaE
FNDA:2,_ZN4xlnt4cell5valueEy
FNDA:1,_ZNK4xlnt4cell5valueIxEET_v
FNDA:121,_ZN4xlnt4cell5valueEPKc
FNDA:2,_ZNK4xlnt4cellneERKS0_
FNDA:11226,_ZNK4xlnt4cell13has_hyperlinkEv
FNDA:1,_ZNK4xlnt4cell12column_indexEv
FNDA:12467,_ZNK4xlnt4cell11has_formulaEv
FNDA:62,_ZNK4xlnt4cell9hyperlinkEv
FNDA:11216,_ZNK4xlnt4cell19garbage_collectibleEv
FNDA:15,_ZN4xlnt4cell5valueEi
FNDA:0,_ZN4xlnt4cell7commentERKNSt7__cxx1112basic_stringIcSt11char_traitsIcESaIcEEES8_
FNDA:3,_ZN4xlnt4cell9hyperlinkENS_5rangeERKNSt7__cxx1112basic_stringIcSt11char_traitsIcESaIcEEE
FNDA:60,_ZNK4xlnt4cell22computed_number_formatEv
FNDA:11904,_ZNK4xlnt4cell10has_formatEv
FNDA:0,_ZNK4xlnt4cell5valueINS_8datetimeEEET_v
FNDA:5,_ZNK4xlnt4cell9has_styleEv
FNDA:2,_ZN4xlnt4cell12clear_formatEv
FNDA:3,_ZNK4xlnt4cell5valueINS_4timeEEET_v
FNDA:0,_ZNK4xlnt4cell13computed_fillEv
FNDA:215,_ZNK4xlnt4cell8workbookEv
FNDA:1,_ZN4xlnt4cell9alignmentERKNS_9alignmentE
FNDA:13,_ZN12_GLOBAL__N_19cast_timeERKNSt7__cxx1112basic_stringIcSt11char_traitsIcESaIcEEE
FNDA:4,_ZN4xlnteqEDnRKNS_4cellE
FNDA:2,_ZN4xlnt4cell11clear_styleEv
FNDA:776,_ZN4xlnt4cell6mergedEb
FNDA:226,_ZNK4xlnt4cell5valueINS_9rich_textEEET_v
FNDA:14,_ZN12_GLOBAL__N_115cast_percentageERKNSt7__cxx1112basic_stringIcSt11char_traitsIcESaIcEEE
FNDA:768,_ZN4xlnt4cell11clear_valueEv
FNDA:11383,_ZNK4xlnt4cell9referenceEv
FNDA:0,_ZNK4xlnt4cell5valueINS_9timedeltaEEET_v
FNDA:56,_ZN4xlnt4cell7commentEv
FNDA:3,_ZNK4xlnt4cell4fillEv
FNDA:22,_ZN4xlnt4cell13number_formatERKNS_13number_formatE
FNDA:0,_ZN4xlntneERKNS_4cellEDn
FNDA:1,_ZN4xlnt4cellaSERKS0_
FNDA:2,_ZN4xlnt4cell5valueERKNS_4timeE
FNDA:10,_ZN4xlnt4cell5valueEb
FNDA:2,_ZN4xlnt4cell5valueEx
FNDA:5,_ZN4xlnt4cell5valueERKNS_8datetimeE
FNDA:2,_ZN4xlnt4cell5valueEj
FNDA:0,_ZNK4xlnt4cell9is_mergedEv
FNDA:7,_ZNK4xlnt4cell5valueIbEET_v
FNDA:7,_ZNK4xlnt4cell7is_dateEv
FNDA:7,_ZN4xlnt4cell5styleEv
FNDA:7,_ZN4xlnt4cell5valueEd
FNDA:265,_ZNK4xlnt4cell9worksheetEv
FNDA:23778,_ZN4xlnt4cellC2EPNS_6detail9cell_implE
FNDA:11308,_ZN4xlnt4cell11has_commentEv
FNDA:21,_ZNK4xlnt4cell5errorB5cxx11Ev
FNDA:24,_ZNK4xlnt4cell5valueIiEET_v
FNDA:4,_ZN4xlnt4cell9hyperlinkES0_RKNSt7__cxx1112basic_stringIcSt11char_traitsIcESaIcEEE
FNDA:1,_ZNK4xlnt4cell5valueIjEET_v
FNDA:0,_ZNK4xlnt4cell15computed_borderEv
FNDA:34,_ZN4xlnt4cell7commentERKNS_7commentE
FNDA:795,_ZN4xlnt4cell13clear_formulaEv
FNDA:18,_ZN4xlnt4cell7formulaERKNSt7__cxx1112basic_stringIcSt11char_traitsIcESaIcEEE
FNDA:2,_ZN4xlnt4cell14show_phoneticsEb
FNDA:17,_ZNK4xlnt4celleqERKS0_
FNDA:2,_ZN4xlnt4cell5valueEf
FNDA:1,_ZN4xlnt4cell5valueES0_
FNDA:10322,_ZN4xlnt4cell5valueERKNSt7__cxx1112basic_stringIcSt11char_traitsIcESaIcEEE
FNDA:35,_ZNK4xlnt4cell6anchorEv
FNDA:3,_ZN4xlnt4cell5valueERKNS_4dateE
FNDA:6,_ZN4xlntlsERSoRKNS_4cellE
FNDA:1,_ZNK4xlnt4cell5valueIfEET_v
FNDA:1,_ZN4xlnt4cell11error_codesB5cxx11Ev
FNDA:4,_ZN4xlnt4cell7commentERKNSt7__cxx1112basic_stringIcSt11char_traitsIcESaIcEEERKNS_4fontES8_
FNDA:23,_ZN4xlnt4cell4fontERKNS_4fontE
FNDA:0,_ZNK4xlnt4cell19computed_protectionEv
FNDA:1,_ZN4xlnt4cell6offsetEii
FNDA:151,_ZN4xlnt4cell9data_typeENS_9cell_typeE
FNDA:223,_ZNK4xlnt4cell5valueINSt7__cxx1112basic_stringIcSt11char_traitsIcESaIcEEEEET_v
FNF:116
FNH:102
DA:65,11
DA:67,11
DA:68,11
DA:69,11
DA:70,11
DA:71,11
DA:74,14
DA:76,14
DA:78,1
DA:80,1
DA:82,1
DA:86,13
DA:89,13
DA:91,13
DA:93,13
DA:94,13
DA:95,13
DA:97,18
DA:99,5
DA:100,5
DA:101,5
DA:104,13
DA:106,13
DA:108,9
DA:111,4
DA:113,12
DA:115,9
DA:117,1
DA:120,34
DA:122,26
DA:124,0
DA:127,8
DA:129,8
DA:132,3
DA:133,3
DA:135,3
DA:137,1
DA:138,1
DA:139,1
DA:140,1
DA:142,2
DA:144,1
DA:145,1
DA:148,3
DA:149,13
DA:155,1
DA:158,0
DA:159,0
DA:160,0
DA:161,0
DA:162,0
DA:163,0
DA:164,10
DA:166,1
DA:167,1
DA:169,20615
DA:172,20615
DA:174,20615
DA:176,2
DA:178,20613
DA:180,1
DA:183,126777
DA:185,106193
DA:187,29
DA:191,20584
DA:192,29
DA:194,23778
DA:195,23778
DA:197,23778
DA:199,11216
DA:201,11216
DA:204,1
DA:206,1
DA:207,1
DA:209,10
DA:211,10
DA:212,10
DA:213,10
DA:215,15
DA:217,15
DA:218,15
DA:219,15
DA:221,2
DA:223,2
DA:224,2
DA:225,2
DA:227,2
DA:229,2
DA:230,2
DA:231,2
DA:233,2
DA:235,2
DA:236,2
DA:237,2
DA:239,2
DA:241,2
DA:242,2
DA:243,2
DA:245,7
DA:247,7
DA:248,7
DA:249,7
DA:251,10322
DA:253,10322
DA:254,10293
DA:256,10293
DA:258,10293
DA:260,10293
DA:261,10293
DA:262,10293
DA:264,121
DA:266,121
DA:267,121
DA:269,1
DA:271,1
DA:272,1
DA:273,1
DA:274,1
DA:275,1
DA:276,1
DA:277,1
DA:279,3
DA:281,3
DA:282,3
DA:283,3
DA:284,3
DA:286,5
DA:288,5
DA:289,5
DA:290,5
DA:291,5
DA:293,2
DA:295,2
DA:296,2
DA:297,2
DA:298,2
DA:300,2
DA:302,2
DA:303,2
DA:304,2
DA:305,2
DA:307,7
DA:309,7
DA:312,39
DA:314,39
DA:317,1
DA:319,1
DA:322,776
DA:324,776
DA:325,776
DA:327,0
DA:329,0
DA:332,11223
DA:334,11223
DA:337,2
DA:339,2
DA:340,2
DA:342,7
DA:344,7
DA:345,4
DA:346,11
DA:349,11383
DA:351,11383
DA:354,17
DA:356,17
DA:358,17
DA:362,0
DA:366,17
DA:368,17
DA:371,2
DA:373,2
DA:376,1
DA:378,62
DA:380,62
DA:383,38
DA:385,38
DA:387,1
DA:390,37
DA:391,37
DA:393,37
DA:396,37
DA:397,37
DA:398,57
DA:399,37
DA:401,30
DA:406,14
DA:408,14
DA:409,7
DA:411,7
DA:412,7
DA:414,37
DA:416,31
DA:420,6
DA:421,6
DA:423,37
DA:425,4
DA:428,4
DA:430,4
DA:431,8
DA:432,28
DA:434,4
DA:436,1
DA:440,3
DA:441,3
DA:443,4
DA:445,3
DA:448,3
DA:450,3
DA:451,6
DA:452,21
DA:455,3
DA:457,1
DA:461,2
DA:462,2
DA:464,3
DA:466,18
DA:468,18
DA:470,1
DA:473,17
DA:475,8
DA:479,9
DA:482,17
DA:485,12467
DA:487,12467
DA:490,19
DA:492,19
DA:495,795
DA:497,795
DA:499,18
DA:500,18
DA:502,795
DA:504,21
DA:506,21
DA:508,21
DA:510,14
DA:513,17
DA:515,17
DA:517,2
DA:520,15
DA:521,15
DA:522,15
DA:524,1
DA:526,1
DA:529,10966
DA:531,10966
DA:534,265
DA:536,265
DA:539,10855
DA:541,10855
DA:544,215
DA:546,215
DA:549,35
DA:551,35
DA:553,35
DA:555,0
DA:558,35
DA:560,51
DA:562,16
DA:565,35
DA:568,23504
DA:570,23504
DA:573,151
DA:575,151
DA:576,151
DA:578,60
DA:580,60
DA:583,0
DA:585,0
DA:588,0
DA:590,0
DA:593,0
DA:595,0
DA:598,0
DA:600,0
DA:603,0
DA:605,0
DA:608,768
DA:610,768
DA:611,768
DA:612,768
DA:613,768
DA:614,768
DA:617,7
DA:619,7
DA:623,24
DA:625,24
DA:629,1
DA:631,1
DA:635,1
DA:637,1
DA:641,1
DA:643,1
DA:647,1
DA:649,1
DA:653,69
DA:655,69
DA:659,3
DA:661,3
DA:665,0
DA:667,0
DA:671,0
DA:673,0
DA:677,0
DA:679,0
DA:682,1
DA:684,1
DA:685,1
DA:686,1
DA:688,1
DA:690,1
DA:691,1
DA:692,1
DA:694,3
DA:696,3
DA:697,3
DA:698,3
DA:700,23
DA:702,23
DA:703,23
DA:704,23
DA:706,22
DA:708,22
DA:709,22
DA:710,22
DA:712,1
DA:714,1
DA:715,1
DA:716,1
DA:719,223
DA:721,223
DA:725,226
DA:727,226
DA:729,201
DA:732,25
DA:735,112
DA:737,112
DA:740,60
DA:742,60
DA:744,60
DA:746,2
DA:747,4
DA:748,6
DA:750,6
DA:751,48
DA:755,48
DA:756,4
DA:757,8
DA:760,0
DA:761,60
DA:763,11904
DA:765,11904
DA:768,349
DA:770,349
DA:772,8
DA:775,349
DA:776,349
DA:777,349
DA:779,14
DA:781,14
DA:784,4
DA:786,4
DA:789,2
DA:791,2
DA:794,0
DA:796,0
DA:799,0
DA:801,0
DA:804,6
DA:806,6
DA:809,23
DA:811,23
DA:813,23
DA:815,9
DA:818,23
DA:820,2
DA:821,2
DA:824,21
DA:826,7
DA:827,7
DA:830,14
DA:832,14
DA:834,1
DA:835,1
DA:836,1
DA:840,13
DA:842,13
DA:844,3
DA:845,3
DA:846,3
DA:850,10
DA:852,10
DA:854,8
DA:855,8
DA:861,2
DA:863,2
DA:865,2
DA:866,2
DA:868,2
DA:870,2
DA:872,2
DA:874,2
DA:876,2
DA:878,260
DA:880,260
DA:882,260
DA:883,260
DA:884,260
DA:885,260
DA:887,260
DA:888,260
DA:890,258
DA:892,259
DA:893,257
DA:895,7
DA:897,7
DA:899,1
DA:902,6
DA:904,12
DA:907,0
DA:909,0
DA:911,0
DA:914,0
DA:917,5
DA:919,5
DA:922,7
DA:924,7
DA:926,0
DA:929,7
DA:932,658
DA:934,658
DA:936,0
DA:939,658
DA:942,1
DA:944,1
DA:947,1
DA:949,1
DA:952,3
DA:954,3
DA:957,7
DA:959,7
DA:962,17
DA:964,17
DA:967,1
DA:969,1
DA:972,11226
DA:974,11226
DA:979,11308
DA:981,11308
DA:984,1
DA:986,1
DA:988,1
DA:989,1
DA:991,1
DA:993,56
DA:995,56
DA:997,6
DA:1000,54
DA:1003,0
DA:1005,0
DA:1006,0
DA:1008,4
DA:1010,4
DA:1011,4
DA:1013,34
DA:1015,34
DA:1017,0
DA:1021,34
DA:1022,34
DA:1026,34
DA:1027,34
DA:1028,34
DA:1030,34
DA:1032,34
DA:1033,34
DA:1035,34
DA:1037,34
DA:1040,0
DA:1042,0
LF:478
LH:434
end_of_record
TN:
SF:/root/project/source/cell/cell_reference.cpp
FN:37,_ZNK4xlnt19cell_reference_hashclERKNS_14cell_referenceE
FN:42,_ZN4xlnt14cell_reference13make_absoluteEbb
FN:50,_ZN4xlnt14cell_referenceC2Ev
FN:55,_ZN4xlnt14cell_referenceC2ERKNSt7__cxx1112basic_stringIcSt11char_traitsIcESaIcEEE
FN:63,_ZN4xlnt14cell_referenceC2EPKc
FN:68,_ZN4xlnt14cell_referenceC2ENS_8column_tEj
FN:80,_ZNK4xlnt14cell_referencecmERKS0_
FN:85,_ZNK4xlnt14cell_reference9to_stringB5cxx11Ev
FN:106,_ZNK4xlnt14cell_reference8to_rangeEv
FN:111,_ZN4xlnt14cell_reference15split_referenceERKNSt7__cxx1112basic_stringIcSt11char_traitsIcESaIcEEE
FN:117,_ZN4xlnt14cell_reference15split_referenceERKNSt7__cxx1112basic_stringIcSt11char_traitsIcESaIcEEERbS9_
FN:198,_ZNK4xlnt14cell_reference15column_absoluteEv
FN:203,_ZN4xlnt14cell_reference15column_absoluteEb
FN:208,_ZNK4xlnt14cell_reference12row_absoluteEv
FN:213,_ZN4xlnt14cell_reference12row_absoluteEb
FN:218,_ZNK4xlnt14cell_reference6columnEv
FN:223,_ZN4xlnt14cell_reference6columnERKNSt7__cxx1112basic_stringIcSt11char_traitsIcESaIcEEE
FN:228,_ZNK4xlnt14cell_reference12column_indexEv
FN:233,_ZN4xlnt14cell_reference12column_indexENS_8column_tE
FN:238,_ZNK4xlnt14cell_reference3rowEv
FN:243,_ZN4xlnt14cell_reference3rowEj
FN:248,_ZNK4xlnt14cell_referenceeqERKNSt7__cxx1112basic_stringIcSt11char_traitsIcESaIcEEE
FN:253,_ZNK4xlnt14cell_referenceeqEPKc
FN:258,_ZNK4xlnt14cell_referenceneERKS0_
FN:263,_ZNK4xlnt14cell_referenceneERKNSt7__cxx1112basic_stringIcSt11char_traitsIcESaIcEEE
FN:268,_ZNK4xlnt14cell_referenceneEPKc
FN:273,_ZNK4xlnt14cell_reference11make_offsetEii
FN:282,_ZNK4xlnt14cell_referenceeqERKS0_
FNDA:12,_ZN4xlnt14cell_reference15split_referenceERKNSt7__cxx1112basic_stringIcSt11char_traitsIcESaIcEEE
FNDA:74310,_ZN4xlnt14cell_referenceC2ENS_8column_tEj
FNDA:39,_ZNK4xlnt14cell_reference11make_offsetEii
FNDA:1,_ZNK4xlnt14cell_referenceneERKNSt7__cxx1112basic_stringIcSt11char_traitsIcESaIcEEE
FNDA:1,_ZNK4xlnt14cell_referenceneERKS0_
FNDA:1448,_ZN4xlnt14cell_reference6columnERKNSt7__cxx1112basic_stringIcSt11char_traitsIcESaIcEEE
FNDA:106242,_ZNK4xlnt14cell_reference6columnEv
FNDA:1,_ZNK4xlnt14cell_referencecmERKS0_
FNDA:735,_ZN4xlnt14cell_referenceC2EPKc
FNDA:59592,_ZNK4xlnt14cell_referenceeqERKS0_
FNDA:0,_ZNK4xlnt14cell_reference8to_rangeEv
FNDA:4,_ZNK4xlnt19cell_reference_hashclERKNS_14cell_referenceE
FNDA:10,_ZN4xlnt14cell_reference13make_absoluteEbb
FNDA:3,_ZNK4xlnt14cell_reference12row_absoluteEv
FNDA:3722,_ZN4xlnt14cell_reference3rowEj
FNDA:11679,_ZNK4xlnt14cell_reference9to_stringB5cxx11Ev
FNDA:36,_ZNK4xlnt14cell_referenceeqEPKc
FNDA:1462,_ZN4xlnt14cell_reference15split_referenceERKNSt7__cxx1112basic_stringIcSt11char_traitsIcESaIcEEERbS9_
FNDA:1,_ZNK4xlnt14cell_referenceneEPKc
FNDA:120303,_ZNK4xlnt14cell_reference12column_indexEv
FNDA:153997,_ZNK4xlnt14cell_reference3rowEv
FNDA:10,_ZN4xlnt14cell_reference15column_absoluteEb
FNDA:8,_ZN4xlnt14cell_referenceC2Ev
FNDA:10,_ZN4xlnt14cell_reference12row_absoluteEb
FNDA:38,_ZNK4xlnt14cell_referenceeqERKNSt7__cxx1112basic_stringIcSt11char_traitsIcESaIcEEE
FNDA:1450,_ZN4xlnt14cell_referenceC2ERKNSt7__cxx1112basic_stringIcSt11char_traitsIcESaIcEEE
FNDA:17630,_ZN4xlnt14cell_reference12column_indexENS_8column_tE
FNDA:3,_ZNK4xlnt14cell_reference15column_absoluteEv
FNF:28
FNH:27
DA:37,4
DA:39,4
DA:42,10
DA:44,10
DA:45,10
DA:47,10
DA:50,8
DA:51,8
DA:53,8
DA:55,1450
DA:57,1450
DA:59,1448
DA:60,1448
DA:61,1448
DA:63,735
DA:64,737
DA:66,733
DA:68,74310
DA:69,74310
DA:71,148620
DA:72,74309
DA:73,74309
DA:74,148619
DA:76,1
DA:78,74309
DA:80,1
DA:82,1
DA:85,11679
DA:87,11679
DA:89,11679
DA:91,8
DA:94,11679
DA:96,11679
DA:98,8
DA:101,11679
DA:103,11679
DA:104,0
DA:106,0
DA:108,0
DA:111,12
DA:114,16
DA:117,1462
DA:120,1462
DA:121,1462
DA:124,1462
DA:126,1462
DA:128,4651
DA:130,3197
DA:132,3197
DA:134,1506
DA:136,1499
DA:140,7
DA:143,1691
DA:145,16
DA:147,16
DA:149,8
DA:153,8
DA:159,1675
DA:161,1452
DA:163,223
DA:165,1
DA:170,1454
DA:172,1454
DA:174,2
DA:177,1452
DA:179,8
DA:180,8
DA:183,1452
DA:185,8
DA:186,8
DA:189,1452
DA:190,1452
DA:192,0
DA:195,2904
DA:196,1464
DA:198,3
DA:200,3
DA:203,10
DA:205,10
DA:206,10
DA:208,3
DA:210,3
DA:213,10
DA:215,10
DA:216,10
DA:218,106242
DA:220,106242
DA:223,1448
DA:225,1448
DA:226,1448
DA:228,120303
DA:230,120303
DA:233,17630
DA:235,17630
DA:236,17630
DA:238,153997
DA:240,153997
DA:243,3722
DA:245,3722
DA:246,3722
DA:248,38
DA:250,38
DA:253,36
DA:255,72
DA:258,1
DA:260,1
DA:263,1
DA:265,1
DA:268,1
DA:270,2
DA:273,39
DA:276,39
DA:277,39
DA:279,39
DA:282,59592
DA:284,59592
DA:285,58144
DA:286,57861
DA:287,117736
LF:119
LH:115
end_of_record
TN:
SF:/root/project/source/cell/comment.cpp
FN:29,_ZN4xlnt7commentC2Ev
FN:34,_ZN4xlnt7commentC2ERKNS_9rich_textERKNSt7__cxx1112basic_stringIcSt11char_traitsIcESaIcEEE
FN:39,_ZN4xlnt7commentC2ERKNSt7__cxx1112basic_stringIcSt11char_traitsIcESaIcEEES8_
FN:45,_ZNK4xlnt7comment4textEv
FN:50,_ZNK4xlnt7comment10plain_textB5cxx11Ev
FN:55,_ZNK4xlnt7comment6authorB5cxx11Ev
FN:60,_ZN4xlnt7comment4hideEv
FN:65,_ZN4xlnt7comment4showEv
FN:70,_ZN4xlnt7comment8positionEii
FN:76,_ZN4xlnt7comment4sizeEii
FN:82,_ZNK4xlnt7comment7visibleEv
FN:87,_ZNK4xlnt7comment4leftEv
FN:92,_ZNK4xlnt7comment3topEv
FN:97,_ZNK4xlnt7comment5widthEv
FN:102,_ZNK4xlnt7comment6heightEv
FN:107,_ZNK4xlnt7commenteqERKS0_
FN:116,_ZNK4xlnt7commentneERKS0_
FNDA:32,_ZN4xlnt7commentC2ERKNS_9rich_textERKNSt7__cxx1112basic_stringIcSt11char_traitsIcESaIcEEE
FNDA:34,_ZN4xlnt7commentC2Ev
FNDA:34,_ZN4xlnt7comment8positionEii
FNDA:16,_ZNK4xlnt7comment4textEv
FNDA:37,_ZN4xlnt7commentC2ERKNSt7__cxx1112basic_stringIcSt11char_traitsIcESaIcEEES8_
FNDA:1,_ZN4xlnt7comment4sizeEii
FNDA:34,_ZNK4xlnt7comment6authorB5cxx11Ev
FNDA:16,_ZNK4xlnt7comment6heightEv
FNDA:0,_ZNK4xlnt7commentneERKS0_
FNDA:16,_ZNK4xlnt7comment5widthEv
FNDA:16,_ZNK4xlnt7comment7visibleEv
FNDA:0,_ZN4xlnt7comment4hideEv
FNDA:2,_ZNK4xlnt7comment10plain_textB5cxx11Ev
FNDA:2,_ZNK4xlnt7commenteqERKS0_
FNDA:16,_ZNK4xlnt7comment4leftEv
FNDA:0,_ZN4xlnt7comment4showEv
FNDA:16,_ZNK4xlnt7comment3topEv
FNF:17
FNH:14
DA:29,34
DA:30,102
DA:32,34
DA:34,32
DA:35,32
DA:37,32
DA:39,37
DA:40,37
DA:42,37
DA:43,37
DA:45,16
DA:47,16
DA:50,2
DA:52,2
DA:55,34
DA:57,34
DA:60,0
DA:62,0
DA:63,0
DA:65,0
DA:67,0
DA:68,0
DA:70,34
DA:72,34
DA:73,34
DA:74,34
DA:76,1
DA:78,1
DA:79,1
DA:80,1
DA:82,16
DA:84,16
DA:87,16
DA:89,16
DA:92,16
DA:94,16
DA:97,16
DA:99,16
DA:102,16
DA:104,16
DA:107,2
DA:110,2
DA:111,2
DA:112,2
DA:113,4
DA:116,0
DA:118,0
LF:47
LH:39
end_of_record
TN:
SF:/root/project/source/cell/hyperlink.cpp
FN:32,_ZN4xlnt9hyperlinkC2EPNS_6detail14hyperlink_implE
FN:37,_ZNK4xlnt9hyperlink12relationshipEv
FN:47,_ZNK4xlnt9hyperlink3urlB5cxx11Ev
FN:57,_ZNK4xlnt9hyperlink12target_rangeB5cxx11Ev
FN:67,_ZNK4xlnt9hyperlink8externalEv
FN:72,_ZNK4xlnt9hyperlink11has_displayEv
FN:77,_ZN4xlnt9hyperlink7displayERKNSt7__cxx1112basic_stringIcSt11char_traitsIcESaIcEEE
FN:82,_ZNK4xlnt9hyperlink7displayB5cxx11Ev
FN:87,_ZNK4xlnt9hyperlink11has_tooltipEv
FN:92,_ZN4xlnt9hyperlink7tooltipERKNSt7__cxx1112basic_stringIcSt11char_traitsIcESaIcEEE
FN:97,_ZNK4xlnt9hyperlink7tooltipB5cxx11Ev
FN:102,_ZNK4xlnt9hyperlink12has_locationEv
FN:107,_ZN4xlnt9hyperlink8locationERKNSt7__cxx1112basic_stringIcSt11char_traitsIcESaIcEEE
FN:112,_ZNK4xlnt9hyperlink8locationB5cxx11Ev
FNDA:0,_ZN4xlnt9hyperlink8locationERKNSt7__cxx1112basic_stringIcSt11char_traitsIcESaIcEEE
FNDA:24,_ZNK4xlnt9hyperlink7displayB5cxx11Ev
FNDA:61,_ZNK4xlnt9hyperlink8externalEv
FNDA:0,_ZNK4xlnt9hyperlink8locationB5cxx11Ev
FNDA:6,_ZNK4xlnt9hyperlink3urlB5cxx11Ev
FNDA:0,_ZN4xlnt9hyperlink7tooltipERKNSt7__cxx1112basic_stringIcSt11char_traitsIcESaIcEEE
FNDA:19,_ZNK4xlnt9hyperlink12relationshipEv
FNDA:0,_ZNK4xlnt9hyperlink11has_displayEv
FNDA:9,_ZNK4xlnt9hyperlink12target_rangeB5cxx11Ev
FNDA:0,_ZN4xlnt9hyperlink7displayERKNSt7__cxx1112basic_stringIcSt11char_traitsIcESaIcEEE
FNDA:61,_ZN4xlnt9hyperlinkC2EPNS_6detail14hyperlink_implE
FNDA:0,_ZNK4xlnt9hyperlink7tooltipB5cxx11Ev
FNDA:0,_ZNK4xlnt9hyperlink11has_tooltipEv
FNDA:0,_ZNK4xlnt9hyperlink12has_locationEv
FNF:14
FNH:6
DA:32,61
DA:33,61
DA:35,61
DA:37,19
DA:39,19
DA:41,0
DA:44,19
DA:47,6
DA:49,6
DA:51,0
DA:54,6
DA:57,9
DA:59,9
DA:61,0
DA:64,9
DA:67,61
DA:69,61
DA:72,0
DA:74,0
DA:77,0
DA:79,0
DA:80,0
DA:82,24
DA:84,24
DA:87,0
DA:89,0
DA:92,0
DA:94,0
DA:95,0
DA:97,0
DA:99,0
DA:102,0
DA:104,0
DA:107,0
DA:109,0
DA:110,0
DA:112,0
DA:114,0
LF:38
LH:16
end_of_record
TN:
SF:/root/project/source/cell/index_types.cpp
FN:33,_ZN4xlnt8column_t24column_index_from_stringERKNSt7__cxx1112basic_stringIcSt11char_traitsIcESaIcEEE
FN:63,_ZN4xlnt8column_t24column_string_from_indexB5cxx11Ej
FN:93,_ZN4xlnt8column_tC2Ev
FN:98,_ZN4xlnt8column_tC2Ej
FN:103,_ZN4xlnt8column_tC2ERKNSt7__cxx1112basic_stringIcSt11char_traitsIcESaIcEEE
FN:108,_ZN4xlnt8column_tC2EPKc
FN:113,_ZNK4xlnt8column_t13column_stringB5cxx11Ev
FN:118,_ZN4xlnt8column_taSERKNSt7__cxx1112basic_stringIcSt11char_traitsIcESaIcEEE
FN:123,_ZN4xlnt8column_taSEPKc
FN:128,_ZNK4xlnt8column_teqERKS0_
FN:133,_ZNK4xlnt8column_tneERKS0_
FN:138,_ZNK4xlnt8column_teqEi
FN:143,_ZNK4xlnt8column_teqEj
FN:148,_ZNK4xlnt8column_teqERKNSt7__cxx1112basic_stringIcSt11char_traitsIcESaIcEEE
FN:153,_ZNK4xlnt8column_teqEPKc
FN:158,_ZNK4xlnt8column_tneEi
FN:163,_ZNK4xlnt8column_tneEj
FN:168,_ZNK4xlnt8column_tneERKNSt7__cxx1112basic_stringIcSt11char_traitsIcESaIcEEE
FN:173,_ZNK4xlnt8column_tneEPKc
FN:178,_ZNK4xlnt8column_tgtERKS0_
FN:183,_ZNK4xlnt8column_tgeERKS0_
FN:188,_ZNK4xlnt8column_tltERKS0_
FN:193,_ZNK4xlnt8column_tleERKS0_
FN:198,_ZNK4xlnt8column_tgtERKj
FN:203,_ZNK4xlnt8column_tgeERKj
FN:208,_ZNK4xlnt8column_tltERKj
FN:213,_ZNK4xlnt8column_tleERKj
FN:218,_ZN4xlnt8column_tppEv
FN:224,_ZN4xlnt8column_tmmEv
FN:230,_ZN4xlnt8column_tppEi
FN:237,_ZN4xlnt8column_tmmEi
FN:244,_ZN4xlntplENS_8column_tERKS0_
FN:250,_ZN4xlntmiENS_8column_tERKS0_
FN:256,_ZN4xlnt8column_tpLERKS0_
FN:262,_ZN4xlnt8column_tmIERKS0_
FN:268,_ZN4xlntgtERKjRKNS_8column_tE
FN:273,_ZN4xlntgeERKjRKNS_8column_tE
FN:278,_ZN4xlntltERKjRKNS_8column_tE
FN:283,_ZN4xlntleERKjRKNS_8column_tE
FN:288,_ZN4xlnt4swapERNS_8column_tES1_
FN:294,_ZNK4xlnt11column_hashclERKNS_8column_tE
FNDA:149,_ZN4xlntmiENS_8column_tERKS0_
FNDA:137172,_ZNK4xlnt8column_tleERKS0_
FNDA:11685,_ZN4xlntgtERKjRKNS_8column_tE
FNDA:1,_ZNK4xlnt8column_tgtERKj
FNDA:1,_ZNK4xlnt8column_tneEj
FNDA:1555,_ZN4xlnt8column_tppEi
FNDA:2,_ZNK4xlnt8column_teqEj
FNDA:3,_ZNK4xlnt8column_tgeERKS0_
FNDA:1,_ZN4xlnt8column_taSERKNSt7__cxx1112basic_stringIcSt11char_traitsIcESaIcEEE
FNDA:1520,_ZN4xlnt8column_tC2ERKNSt7__cxx1112basic_stringIcSt11char_traitsIcESaIcEEE
FNDA:0,_ZN4xlnt4swapERNS_8column_tES1_
FNDA:11684,_ZN4xlnt8column_t24column_string_from_indexB5cxx11Ej
FNDA:3,_ZN4xlntplENS_8column_tERKS0_
FNDA:1,_ZN4xlnt8column_tmmEi
FNDA:1,_ZNK4xlnt8column_tltERKj
FNDA:11725,_ZNK4xlnt8column_tgtERKS0_
FNDA:2,_ZN4xlntleERKjRKNS_8column_tE
FNDA:1452,_ZN4xlnt8column_tC2Ev
FNDA:3,_ZN4xlnt8column_tpLERKS0_
FNDA:1,_ZNK4xlnt8column_tneEi
FNDA:74316,_ZNK4xlnt8column_teqEi
FNDA:1,_ZNK4xlnt8column_tneERKNSt7__cxx1112basic_stringIcSt11char_traitsIcESaIcEEE
FNDA:40545,_ZN4xlnt8column_tppEv
FNDA:1,_ZNK4xlnt8column_tneERKS0_
FNDA:142775,_ZNK4xlnt8column_teqERKS0_
FNDA:11683,_ZNK4xlnt8column_t13column_stringB5cxx11Ev
FNDA:61,_ZN4xlnt8column_tC2EPKc
FNDA:1,_ZNK4xlnt8column_tleERKj
FNDA:1523,_ZN4xlnt8column_t24column_index_from_stringERKNSt7__cxx1112basic_stringIcSt11char_traitsIcESaIcEEE
FNDA:11684,_ZN4xlntltERKjRKNS_8column_tE
FNDA:149,_ZN4xlnt8column_tmIERKS0_
FNDA:2,_ZN4xlnt8column_tmmEv
FNDA:126857,_ZNK4xlnt8column_tltERKS0_
FNDA:2,_ZN4xlntgeERKjRKNS_8column_tE
FNDA:2,_ZNK4xlnt8column_teqERKNSt7__cxx1112basic_stringIcSt11char_traitsIcESaIcEEE
FNDA:294694,_ZN4xlnt8column_tC2Ej
FNDA:1,_ZNK4xlnt8column_tgeERKj
FNDA:1,_ZN4xlnt8column_taSEPKc
FNDA:16,_ZNK4xlnt8column_teqEPKc
FNDA:1,_ZNK4xlnt8column_tneEPKc
FNDA:46353,_ZNK4xlnt11column_hashclERKNS_8column_tE
FNF:41
FNH:40
DA:33,1523
DA:35,1523
DA:37,2
DA:40,1521
DA:41,1521
DA:43,3059
DA:45,1539
DA:47,1
DA:50,1538
DA:52,1538
DA:53,1538
DA:56,1520
DA:63,11684
DA:67,11684
DA:69,1
DA:72,11683
DA:73,11683
DA:75,30769
DA:77,19086
DA:80,19086
DA:82,300
DA:83,300
DA:86,19086
DA:87,19086
DA:90,11683
DA:91,0
DA:93,1452
DA:94,1452
DA:96,1452
DA:98,294694
DA:99,294694
DA:101,294694
DA:103,1520
DA:104,1520
DA:106,1520
DA:108,61
DA:109,61
DA:111,61
DA:113,11683
DA:115,11683
DA:118,1
DA:120,1
DA:123,1
DA:125,1
DA:128,142775
DA:130,142775
DA:133,1
DA:135,1
DA:138,74316
DA:140,74316
DA:143,2
DA:145,2
DA:148,2
DA:150,2
DA:153,16
DA:155,16
DA:158,1
DA:160,1
DA:163,1
DA:165,1
DA:168,1
DA:170,1
DA:173,1
DA:175,1
DA:178,11725
DA:180,11725
DA:183,3
DA:185,3
DA:188,126857
DA:190,126857
DA:193,137172
DA:195,137172
DA:198,1
DA:200,1
DA:203,1
DA:205,1
DA:208,1
DA:210,1
DA:213,1
DA:215,1
DA:218,40545
DA:220,40545
DA:221,40545
DA:224,2
DA:226,2
DA:227,2
DA:230,1555
DA:232,1555
DA:233,1555
DA:234,1555
DA:237,1
DA:239,1
DA:240,1
DA:241,1
DA:244,3
DA:246,3
DA:247,3
DA:250,149
DA:252,149
DA:253,149
DA:256,3
DA:258,3
DA:259,3
DA:262,149
DA:264,149
DA:265,149
DA:268,11685
DA:270,11685
DA:273,2
DA:275,2
DA:278,11684
DA:280,11684
DA:283,2
DA:285,2
DA:288,0
DA:291,0
DA:292,0
DA:294,46353
DA:297,46353
LF:119
LH:115
end_of_record
TN:
SF:/root/project/source/cell/phonetic_run.cpp
FN:30,_ZNK4xlnt12phonetic_runeqERKS0_
FN:35,_ZNK4xlnt12phonetic_runneERKS0_
FNDA:0,_ZNK4xlnt12phonetic_runneERKS0_
FNDA:0,_ZNK4xlnt12phonetic_runeqERKS0_
FNF:2
FNH:0
DA:30,0
DA:32,0
DA:35,0
DA:37,0
LF:4
LH:0
end_of_record
TN:
SF:/root/project/source/cell/rich_text.cpp
FN:31,_ZN12_GLOBAL__N_123has_trailing_whitespaceERKNSt7__cxx1112basic_stringIcSt11char_traitsIcESaIcEEE
FN:39,_ZN4xlnt9rich_textC2ERKNSt7__cxx1112basic_stringIcSt11char_traitsIcESaIcEEE
FN:44,_ZN4xlnt9rich_textC2ERKNSt7__cxx1112basic_stringIcSt11char_traitsIcESaIcEEERKNS_4fontE
FN:49,_ZN4xlnt9rich_textC2ERKS0_
FN:54,_ZN4xlnt9rich_textaSERKS0_
FN:63,_ZN4xlnt9rich_textC2ERKNS_13rich_text_runE
FN:68,_ZN4xlnt9rich_text5clearEv
FN:75,_ZN4xlnt9rich_text10plain_textERKNSt7__cxx1112basic_stringIcSt11char_traitsIcESaIcEEEb
FN:81,_ZNK4xlnt9rich_text10plain_textB5cxx11Ev
FN:89,_ZZNK4xlnt9rich_text10plain_textB5cxx11EvENKUlRKNSt7__cxx1112basic_stringIcSt11char_traitsIcESaIcEEERKNS_13rich_text_runEE_clES8_SB_
FN:92,_ZNK4xlnt9rich_text4runsEv
FN:97,_ZN4xlnt9rich_text4runsERKSt6vectorINS_13rich_text_runESaIS2_EE
FN:102,_ZN4xlnt9rich_text7add_runERKNS_13rich_text_runE
FN:107,_ZNK4xlnt9rich_text13phonetic_runsEv
FN:112,_ZN4xlnt9rich_text13phonetic_runsERKSt6vectorINS_12phonetic_runESaIS2_EE
FN:117,_ZN4xlnt9rich_text16add_phonetic_runERKNS_12phonetic_runE
FN:122,_ZNK4xlnt9rich_text23has_phonetic_propertiesEv
FN:127,_ZNK4xlnt9rich_text19phonetic_propertiesEv
FN:132,_ZN4xlnt9rich_text19phonetic_propertiesERKNS_11phonetic_prE
FN:137,_ZNK4xlnt9rich_texteqERKS0_
FN:158,_ZNK4xlnt9rich_texteqERKNSt7__cxx1112basic_stringIcSt11char_traitsIcESaIcEEE
FN:163,_ZNK4xlnt9rich_textneERKS0_
FN:168,_ZNK4xlnt9rich_textneERKNSt7__cxx1112basic_stringIcSt11char_traitsIcESaIcEEE
FNDA:778,_ZN4xlnt9rich_text10plain_textERKNSt7__cxx1112basic_stringIcSt11char_traitsIcESaIcEEEb
FNDA:19528,_ZN4xlnt9rich_text5clearEv
FNDA:11010,_ZNK4xlnt9rich_text10plain_textB5cxx11Ev
FNDA:1,_ZN4xlnt9rich_text4runsERKSt6vectorINS_13rich_text_runESaIS2_EE
FNDA:6,_ZNK4xlnt9rich_texteqERKNSt7__cxx1112basic_stringIcSt11char_traitsIcESaIcEEE
FNDA:0,_ZNK4xlnt9rich_textneERKNSt7__cxx1112basic_stringIcSt11char_traitsIcESaIcEEE
FNDA:453,_ZNK4xlnt9rich_text23has_phonetic_propertiesEv
FNDA:6,_ZNK4xlnt9rich_textneERKS0_
FNDA:9950,_ZNK4xlnt9rich_texteqERKS0_
FNDA:12752,_ZNK4xlnt9rich_text4runsEv
FNDA:0,_ZN4xlnt9rich_text13phonetic_runsERKSt6vectorINS_12phonetic_runESaIS2_EE
FNDA:11,_ZNK4xlnt9rich_text19phonetic_propertiesEv
FNDA:10327,_ZN4xlnt9rich_textC2ERKNS_13rich_text_runE
FNDA:36,_ZZNK4xlnt9rich_text10plain_textB5cxx11EvENKUlRKNSt7__cxx1112basic_stringIcSt11char_traitsIcESaIcEEERKNS_13rich_text_runEE_clES8_SB_
FNDA:35,_ZN4xlnt9rich_text19phonetic_propertiesERKNS_11phonetic_prE
FNDA:3,_ZN4xlnt9rich_text16add_phonetic_runERKNS_12phonetic_runE
FNDA:11227,_ZN4xlnt9rich_text7add_runERKNS_13rich_text_runE
FNDA:458,_ZNK4xlnt9rich_text13phonetic_runsEv
FNDA:17982,_ZN4xlnt9rich_textaSERKS0_
FNDA:4,_ZN4xlnt9rich_textC2ERKNSt7__cxx1112basic_stringIcSt11char_traitsIcESaIcEEERKNS_4fontE
FNDA:10327,_ZN12_GLOBAL__N_123has_trailing_whitespaceERKNSt7__cxx1112basic_stringIcSt11char_traitsIcESaIcEEE
FNDA:17833,_ZN4xlnt9rich_textC2ERKS0_
FNDA:10323,_ZN4xlnt9rich_textC2ERKNSt7__cxx1112basic_stringIcSt11char_traitsIcESaIcEEE
FNF:23
FNH:21
DA:31,10327
DA:33,10327
DA:39,10323
DA:40,10323
DA:42,10323
DA:44,4
DA:45,4
DA:47,4
DA:49,17833
DA:51,17833
DA:52,17833
DA:54,17982
DA:56,17982
DA:57,17982
DA:58,17982
DA:59,17982
DA:60,17982
DA:63,10327
DA:65,10327
DA:66,10327
DA:68,19528
DA:70,19528
DA:71,19528
DA:72,19528
DA:73,19528
DA:75,778
DA:77,778
DA:78,778
DA:79,778
DA:81,11010
DA:83,11010
DA:85,10997
DA:88,26
DA:89,49
DA:92,12752
DA:94,12752
DA:97,1
DA:99,1
DA:100,1
DA:102,11227
DA:104,11227
DA:105,11227
DA:107,458
DA:109,458
DA:112,0
DA:114,0
DA:115,0
DA:117,3
DA:119,3
DA:120,3
DA:122,453
DA:124,453
DA:127,11
DA:129,11
DA:132,35
DA:134,35
DA:135,35
DA:137,9950
DA:139,9950
DA:141,19890
DA:143,9946
DA:146,9944
DA:148,9942
DA:150,0
DA:153,9942
DA:155,9942
DA:158,6
DA:160,6
DA:163,6
DA:165,6
DA:168,0
DA:170,0
LF:72
LH:66
end_of_record
TN:
SF:/root/project/source/cell/rich_text_run.cpp
FN:29,_ZNK4xlnt13rich_text_runeqERKS0_
FN:34,_ZNK4xlnt13rich_text_runneERKS0_
FNDA:9946,_ZNK4xlnt13rich_text_runneERKS0_
FNDA:9950,_ZNK4xlnt13rich_text_runeqERKS0_
FNF:2
FNH:2
DA:29,9950
DA:31,9950
DA:34,9946
DA:36,9946
LF:4
LH:4
end_of_record
TN:
SF:/root/project/source/detail/binary.hpp
FN:45,_ZN4xlnt6detail13binary_readerIiEC2ERKSt6vectorIiSaIiEE
FN:45,_ZN4xlnt6detail13binary_readerIhEC2ERKSt6vectorIhSaIhEE
FN:70,_ZN4xlnt6detail13binary_readerIhED2Ev
FN:70,_ZN4xlnt6detail13binary_readerIiED2Ev
FN:74,_ZNK4xlnt6detail13binary_readerIhE4dataEv
FN:74,_ZNK4xlnt6detail13binary_readerIiE4dataEv
FN:79,_ZN4xlnt6detail13binary_readerIhE6offsetEm
FN:79,_ZN4xlnt6detail13binary_readerIiE6offsetEm
FN:84,_ZNK4xlnt6detail13binary_readerIiE6offsetEv
FN:84,_ZNK4xlnt6detail13binary_readerIhE6offsetEv
FN:89,_ZN4xlnt6detail13binary_readerIhE5resetEv
FN:134,_ZNK4xlnt6detail13binary_readerIhE5countEv
FN:134,_ZNK4xlnt6detail13binary_readerIiE5countEv
FN:139,_ZNK4xlnt6detail13binary_readerIiE5bytesEv
FN:139,_ZNK4xlnt6detail13binary_readerIhE5bytesEv
FN:155,_ZN4xlnt6detail13binary_writerIiEC2ERSt6vectorIiSaIiEE
FN:155,_ZN4xlnt6detail13binary_writerIhEC2ERSt6vectorIhSaIhEE
FN:165,_ZN4xlnt6detail13binary_writerIhED2Ev
FN:165,_ZN4xlnt6detail13binary_writerIiED2Ev
FN:194,_ZN4xlnt6detail13binary_writerIhE6assignIDsEEvRKNSt7__cxx1112basic_stringIT_St11char_traitsIS6_ESaIS6_EEE
FN:205,_ZNK4xlnt6detail13binary_writerIhE6offsetEv
FN:205,_ZNK4xlnt6detail13binary_writerIiE6offsetEv
FN:210,_ZN4xlnt6detail13binary_writerIhE5resetEv
FN:217,_ZN4xlnt6detail13binary_writerIhE5writeItEEvT_
FN:217,_ZN4xlnt6detail13binary_writerIhE5writeIjEEvT_
FN:217,_ZN4xlnt6detail13binary_writerIiE5writeIiEEvT_
FN:231,_ZNK4xlnt6detail13binary_writerIiE5countEv
FN:231,_ZNK4xlnt6detail13binary_writerIhE5countEv
FN:236,_ZNK4xlnt6detail13binary_writerIiE5bytesEv
FN:236,_ZNK4xlnt6detail13binary_writerIhE5bytesEv
FN:241,_ZN4xlnt6detail13binary_writerIhE6resizeEmh
FN:246,_ZN4xlnt6detail13binary_writerIiE6extendEmh
FN:246,_ZN4xlnt6detail13binary_writerIhE6extendEmh
FN:257,_ZN4xlnt6detail13binary_writerIiE6appendIhEEvRKSt6vectorIT_SaIS5_EE
FN:257,_ZN4xlnt6detail13binary_writerIhE6appendIhEEvRKSt6vectorIT_SaIS5_EE
FN:264,_ZN4xlnt6detail13binary_writerIiE6appendIhEEvRNS0_13binary_readerIT_EEm
FN:264,_ZN4xlnt6detail13binary_writerIhE6appendIhEEvRNS0_13binary_readerIT_EEm
FN:289,_ZN4xlnt6detail15string_to_bytesIDsEESt6vectorIhSaIhEERKNSt7__cxx1112basic_stringIT_St11char_traitsIS7_ESaIS7_EEE
FN:299,_ZN4xlnt6detail4readImEET_RSi
FN:299,_ZN4xlnt6detail4readItEET_RSi
FN:299,_ZN4xlnt6detail4readIjEET_RSi
FN:308,_ZN4xlnt6detail11read_vectorIhEESt6vectorIT_SaIS3_EERSim
FN:318,_ZN4xlnt6detail11read_stringIDsEENSt7__cxx1112basic_stringIT_St11char_traitsIS4_ESaIS4_EEERSim
FNDA:5095,_ZNK4xlnt6detail13binary_readerIhE5bytesEv
FNDA:17,_ZN4xlnt6detail4readImEET_RSi
FNDA:986,_ZN4xlnt6detail13binary_readerIhE5resetEv
FNDA:73,_ZN4xlnt6detail13binary_writerIiE6appendIhEEvRKSt6vectorIT_SaIS5_EE
FNDA:8547,_ZNK4xlnt6detail13binary_readerIiE5countEv
FNDA:4021,_ZN4xlnt6detail13binary_readerIhED2Ev
FNDA:17094,_ZNK4xlnt6detail13binary_readerIiE6offsetEv
FNDA:66,_ZN4xlnt6detail13binary_writerIiEC2ERSt6vectorIiSaIiEE
FNDA:26,_ZN4xlnt6detail15string_to_bytesIDsEESt6vectorIhSaIhEERKNSt7__cxx1112basic_stringIT_St11char_traitsIS7_ESaIS7_EEE
FNDA:2302,_ZN4xlnt6detail13binary_writerIhE5resetEv
FNDA:124,_ZNK4xlnt6detail13binary_writerIiE5bytesEv
FNDA:2107,_ZN4xlnt6detail13binary_readerIiEC2ERKSt6vectorIiSaIiEE
FNDA:124,_ZN4xlnt6detail13binary_writerIiE6extendEmh
FNDA:45,_ZN4xlnt6detail11read_vectorIhEESt6vectorIT_SaIS3_EERSim
FNDA:303,_ZN4xlnt6detail13binary_readerIhE6offsetEm
FNDA:5095,_ZNK4xlnt6detail13binary_readerIhE5countEv
FNDA:248,_ZNK4xlnt6detail13binary_writerIiE5countEv
FNDA:8547,_ZNK4xlnt6detail13binary_readerIiE5bytesEv
FNDA:73,_ZN4xlnt6detail13binary_writerIiE6appendIhEEvRNS0_13binary_readerIT_EEm
FNDA:51,_ZN4xlnt6detail13binary_writerIiE5writeIiEEvT_
FNDA:66,_ZN4xlnt6detail13binary_writerIiED2Ev
FNDA:26,_ZN4xlnt6detail13binary_writerIhE6assignIDsEEvRKNSt7__cxx1112basic_stringIT_St11char_traitsIS6_ESaIS6_EEE
FNDA:44,_ZN4xlnt6detail4readItEET_RSi
FNDA:265,_ZN4xlnt6detail13binary_writerIhEC2ERSt6vectorIhSaIhEE
FNDA:10298,_ZNK4xlnt6detail13binary_readerIhE6offsetEv
FNDA:175,_ZNK4xlnt6detail13binary_writerIiE6offsetEv
FNDA:2107,_ZN4xlnt6detail13binary_readerIiED2Ev
FNDA:2940,_ZNK4xlnt6detail13binary_writerIhE5bytesEv
FNDA:187,_ZN4xlnt6detail4readIjEET_RSi
FNDA:2914,_ZN4xlnt6detail13binary_writerIhE6appendIhEEvRNS0_13binary_readerIT_EEm
FNDA:2914,_ZN4xlnt6detail13binary_writerIhE6extendEmh
FNDA:26,_ZN4xlnt6detail13binary_writerIhE6resizeEmh
FNDA:5854,_ZNK4xlnt6detail13binary_writerIhE5countEv
FNDA:2914,_ZNK4xlnt6detail13binary_writerIhE6offsetEv
FNDA:2719,_ZN4xlnt6detail13binary_writerIhE6appendIhEEvRKSt6vectorIT_SaIS5_EE
FNDA:4021,_ZN4xlnt6detail13binary_readerIhEC2ERKSt6vectorIhSaIhEE
FNDA:5095,_ZNK4xlnt6detail13binary_readerIhE4dataEv
FNDA:15,_ZN4xlnt6detail13binary_readerIiE6offsetEm
FNDA:8547,_ZNK4xlnt6detail13binary_readerIiE4dataEv
FNDA:0,_ZN4xlnt6detail13binary_writerIhE5writeItEEvT_
FNDA:265,_ZN4xlnt6detail13binary_writerIhED2Ev
FNDA:0,_ZN4xlnt6detail13binary_writerIhE5writeIjEEvT_
FNDA:15,_ZN4xlnt6detail11read_stringIDsEENSt7__cxx1112basic_stringIT_St11char_traitsIS4_ESaIS4_EEERSim
FNF:43
FNH:41
DA:45,6128
DA:46,6128
DA:47,6128
DA:48,6128
DA:50,6128
DA:70,6128
DA:72,6128
DA:74,13642
DA:76,13642
DA:79,318
DA:81,318
DA:82,318
DA:84,27392
DA:86,27392
DA:89,986
DA:91,986
DA:92,986
DA:134,13642
DA:136,13642
DA:139,13642
DA:141,13642
DA:155,331
DA:156,331
DA:158,331
DA:165,331
DA:167,331
DA:194,26
DA:196,26
DA:197,26
DA:198,26
DA:205,3089
DA:207,3089
DA:210,2302
DA:212,2302
DA:213,2302
DA:214,2302
DA:217,51
DA:219,51
DA:220,51
DA:222,51
DA:224,51
DA:227,51
DA:228,51
DA:229,51
DA:231,6102
DA:233,6102
DA:236,3064
DA:238,3064
DA:241,26
DA:243,26
DA:244,26
DA:246,3038
DA:248,3038
DA:249,3038
DA:257,2792
DA:259,2792
DA:260,2792
DA:261,2792
DA:264,2987
DA:266,2987
DA:267,2987
DA:269,2987
DA:271,2987
DA:274,2987
DA:276,0
DA:279,2987
DA:280,2987
DA:281,2987
DA:289,26
DA:291,26
DA:292,26
DA:293,26
DA:295,26
DA:296,26
DA:299,248
DA:302,248
DA:304,248
DA:308,45
DA:310,45
DA:311,45
DA:314,45
DA:315,0
DA:318,15
DA:320,15
DA:321,15
DA:322,15
DA:324,15
DA:325,0
LF:88
LH:85
end_of_record
TN:
SF:/root/project/source/detail/constants.cpp
FN:33,_ZN4xlnt9constants7min_rowEv
FN:38,_ZN4xlnt9constants7max_rowEv
FN:43,_ZN4xlnt9constants10min_columnEv
FN:48,_ZN4xlnt9constants10max_columnEv
FN:53,_ZN4xlnt9constants24max_elements_for_reserveEv
FN:59,_ZN4xlnt9constants18package_propertiesEv
FN:64,_ZN4xlnt9constants10package_xlEv
FN:69,_ZN4xlnt9constants17package_root_relsEv
FN:74,_ZN4xlnt9constants13package_themeEv
FN:79,_ZN4xlnt9constants18package_worksheetsEv
FN:84,_ZN4xlnt9constants16package_drawingsEv
FN:89,_ZN4xlnt9constants18part_content_typesEv
FN:94,_ZN4xlnt9constants23part_root_relationshipsEv
FN:99,_ZN4xlnt9constants9part_coreEv
FN:104,_ZN4xlnt9constants8part_appEv
FN:109,_ZN4xlnt9constants13part_workbookEv
FN:114,_ZN4xlnt9constants11part_stylesEv
FN:119,_ZN4xlnt9constants10part_themeEv
FN:124,_ZN4xlnt9constants19part_shared_stringsEv
FN:129,_ZN4xlnt9constants10namespacesB5cxx11Ev
FN:169,_ZN4xlnt9constants2nsERKNSt7__cxx1112basic_stringIcSt11char_traitsIcESaIcEEE
FNDA:521,_ZN4xlnt9constants24max_elements_for_reserveEv
FNDA:0,_ZN4xlnt9constants18package_propertiesEv
FNDA:0,_ZN4xlnt9constants18part_content_typesEv
FNDA:5776,_ZN4xlnt9constants10namespacesB5cxx11Ev
FNDA:0,_ZN4xlnt9constants19part_shared_stringsEv
FNDA:0,_ZN4xlnt9constants8part_appEv
FNDA:0,_ZN4xlnt9constants16package_drawingsEv
FNDA:0,_ZN4xlnt9constants13part_workbookEv
FNDA:0,_ZN4xlnt9constants9part_coreEv
FNDA:2888,_ZN4xlnt9constants2nsERKNSt7__cxx1112basic_stringIcSt11char_traitsIcESaIcEEE
FNDA:0,_ZN4xlnt9constants11part_stylesEv
FNDA:346,_ZN4xlnt9constants7min_rowEv
FNDA:0,_ZN4xlnt9constants10part_themeEv
FNDA:0,_ZN4xlnt9constants23part_root_relationshipsEv
FNDA:86379,_ZN4xlnt9constants10max_columnEv
FNDA:0,_ZN4xlnt9constants13package_themeEv
FNDA:0,_ZN4xlnt9constants18package_worksheetsEv
FNDA:74492,_ZN4xlnt9constants7max_rowEv
FNDA:12198,_ZN4xlnt9constants10min_columnEv
FNDA:0,_ZN4xlnt9constants17package_root_relsEv
FNDA:7,_ZN4xlnt9constants10package_xlEv
FNF:21
FNH:8
DA:33,346
DA:35,346
DA:38,74492
DA:40,74492
DA:43,12198
DA:45,12198
DA:48,86379
DA:50,86379
DA:53,521
DA:55,521
DA:59,0
DA:61,0
DA:64,7
DA:66,14
DA:69,0
DA:71,0
DA:74,0
DA:76,0
DA:79,0
DA:81,0
DA:84,0
DA:86,0
DA:89,0
DA:91,0
DA:94,0
DA:96,0
DA:99,0
DA:101,0
DA:104,0
DA:106,0
DA:109,0
DA:111,0
DA:114,0
DA:116,0
DA:119,0
DA:121,0
DA:124,0
DA:126,0
DA:129,5776
DA:164,5896
DA:166,5776
DA:167,4
DA:169,2888
DA:171,2888
DA:173,2888
DA:175,0
DA:178,5776
LF:47
LH:20
end_of_record
TN:
SF:/root/project/source/detail/cryptography/aes.cpp
FN:2651,_ZN12_GLOBAL__N_1L9setup_mixEj
FN:2673,_ZN12_GLOBAL__N_114rijndael_setupERKSt6vectorIhSaIhEE
FN:2830,_ZN12_GLOBAL__N_120rijndael_ecb_encryptEPKhPhRNS_12rijndael_keyE
FN:2900,_ZN12_GLOBAL__N_120rijndael_ecb_decryptEPKhPhRNS_12rijndael_keyE
FN:2980,_ZN4xlnt6detail15aes_ecb_encryptERKSt6vectorIhSaIhEES5_m
FN:3013,_ZN4xlnt6detail15aes_ecb_decryptERKSt6vectorIhSaIhEES5_m
FN:3046,_ZN4xlnt6detail15aes_cbc_encryptERKSt6vectorIhSaIhEES5_S5_m
FN:3092,_ZN4xlnt6detail15aes_cbc_decryptERKSt6vectorIhSaIhEES5_S5_m
FNDA:466,_ZN12_GLOBAL__N_114rijndael_setupERKSt6vectorIhSaIhEE
FNDA:0,_ZN4xlnt6detail15aes_ecb_encryptERKSt6vectorIhSaIhEES5_m
FNDA:56,_ZN4xlnt6detail15aes_ecb_decryptERKSt6vectorIhSaIhEES5_m
FNDA:71022,_ZN12_GLOBAL__N_120rijndael_ecb_decryptEPKhPhRNS_12rijndael_keyE
FNDA:32768,_ZN12_GLOBAL__N_120rijndael_ecb_encryptEPKhPhRNS_12rijndael_keyE
FNDA:128,_ZN4xlnt6detail15aes_cbc_encryptERKSt6vectorIhSaIhEES5_S5_m
FNDA:5140,_ZN12_GLOBAL__N_1L9setup_mixEj
FNDA:282,_ZN4xlnt6detail15aes_cbc_decryptERKSt6vectorIhSaIhEES5_S5_m
FNF:8
FNH:7
DA:2651,5140
DA:2653,5140
DA:2654,5140
DA:2655,5140
DA:2656,5140
DA:2673,466
DA:2681,466
DA:2684,0
DA:2685,0
DA:2688,466
DA:2689,466
DA:2692,466
DA:2693,466
DA:2694,466
DA:2695,466
DA:2696,466
DA:2697,466
DA:2698,466
DA:2702,3060
DA:2703,3060
DA:2704,3060
DA:2705,3060
DA:2706,3060
DA:2707,3060
DA:2709,306
DA:2711,2754
DA:2714,160
DA:2716,0
DA:2717,0
DA:2723,0
DA:2725,0
DA:2726,0
DA:2727,0
DA:2728,0
DA:2729,0
DA:2731,0
DA:2733,0
DA:2734,0
DA:2735,0
DA:2738,160
DA:2740,160
DA:2741,160
DA:2742,160
DA:2743,160
DA:2749,1120
DA:2751,1120
DA:2752,1120
DA:2753,1120
DA:2754,1120
DA:2755,1120
DA:2757,160
DA:2759,960
DA:2760,960
DA:2761,960
DA:2762,960
DA:2763,960
DA:2764,960
DA:2769,466
DA:2770,466
DA:2774,466
DA:2775,466
DA:2776,466
DA:2777,466
DA:2778,466
DA:2779,466
DA:2781,5300
DA:2783,4834
DA:2784,4834
DA:2786,4834
DA:2787,4834
DA:2788,4834
DA:2789,4834
DA:2790,4834
DA:2791,4834
DA:2792,4834
DA:2793,4834
DA:2794,4834
DA:2795,4834
DA:2796,4834
DA:2797,4834
DA:2801,466
DA:2802,466
DA:2803,466
DA:2804,466
DA:2805,466
DA:2806,466
DA:2808,466
DA:2830,32768
DA:2835,32768
DA:2836,32768
DA:2842,32768
DA:2843,32768
DA:2844,32768
DA:2845,32768
DA:2846,32768
DA:2847,32768
DA:2848,32768
DA:2849,32768
DA:2854,32768
DA:2857,229376
DA:2858,229376
DA:2859,229376
DA:2860,229376
DA:2861,229376
DA:2862,229376
DA:2863,229376
DA:2864,229376
DA:2866,229376
DA:2867,229376
DA:2869,32768
DA:2872,196608
DA:2873,196608
DA:2874,196608
DA:2875,196608
DA:2876,196608
DA:2877,196608
DA:2878,196608
DA:2879,196608
DA:2886,32768
DA:2887,32768
DA:2888,32768
DA:2889,32768
DA:2890,32768
DA:2891,32768
DA:2892,32768
DA:2893,32768
DA:2894,32768
DA:2895,32768
DA:2896,32768
DA:2897,32768
DA:2898,32768
DA:2900,71022
DA:2904,71022
DA:2905,71022
DA:2911,71022
DA:2912,71022
DA:2913,71022
DA:2914,71022
DA:2915,71022
DA:2916,71022
DA:2917,71022
DA:2918,71022
DA:2923,71022
DA:2927,359826
DA:2928,359826
DA:2929,359826
DA:2930,359826
DA:2931,359826
DA:2932,359826
DA:2933,359826
DA:2934,359826
DA:2936,359826
DA:2937,359826
DA:2939,71022
DA:2942,288804
DA:2943,288804
DA:2944,288804
DA:2945,288804
DA:2946,288804
DA:2947,288804
DA:2948,288804
DA:2949,288804
DA:2956,71022
DA:2957,71022
DA:2958,71022
DA:2959,71022
DA:2960,71022
DA:2961,71022
DA:2962,71022
DA:2963,71022
DA:2964,71022
DA:2965,71022
DA:2966,71022
DA:2967,71022
DA:2968,71022
DA:2980,0
DA:2985,0
DA:2987,0
DA:2989,0
DA:2992,0
DA:2993,0
DA:2996,0
DA:2997,0
DA:2998,0
DA:2999,0
DA:3001,0
DA:3003,0
DA:3005,0
DA:3006,0
DA:3007,0
DA:3010,0
DA:3011,0
DA:3013,56
DA:3018,56
DA:3020,56
DA:3022,56
DA:3025,0
DA:3026,0
DA:3029,56
DA:3030,56
DA:3031,56
DA:3032,56
DA:3034,6757
DA:3036,6701
DA:3038,6701
DA:3039,6701
DA:3040,6701
DA:3043,56
DA:3044,56
DA:3046,128
DA:3052,128
DA:3054,128
DA:3056,128
DA:3059,0
DA:3060,0
DA:3063,128
DA:3064,128
DA:3065,128
DA:3066,128
DA:3067,128
DA:3068,128
DA:3070,32896
DA:3072,557056
DA:3074,524288
DA:3077,32768
DA:3079,557056
DA:3081,524288
DA:3084,32768
DA:3085,32768
DA:3086,32768
DA:3089,128
DA:3090,128
DA:3092,282
DA:3098,282
DA:3100,282
DA:3102,282
DA:3105,0
DA:3106,0
DA:3109,282
DA:3111,282
DA:3112,282
DA:3113,282
DA:3114,282
DA:3115,282
DA:3116,282
DA:3118,64603
DA:3120,64321
DA:3122,1093457
DA:3124,1029136
DA:3125,1029136
DA:3126,1029136
DA:3129,64321
DA:3130,64321
DA:3131,64321
DA:3134,282
DA:3135,282
LF:256
LH:219
end_of_record
TN:
SF:/root/project/source/detail/cryptography/base64.cpp
FN:30,_ZN4xlnt6detail13encode_base64B5cxx11ERKSt6vectorIhSaIhEE
FN:96,_ZN4xlnt6detail13decode_base64ERKNSt7__cxx1112basic_stringIcSt11char_traitsIcESaIcEEE
FN:115,_ZZN4xlnt6detail13decode_base64ERKNSt7__cxx1112basic_stringIcSt11char_traitsIcESaIcEEEENKUlhE_clEh
FNDA:2204,_ZZN4xlnt6detail13decode_base64ERKNSt7__cxx1112basic_stringIcSt11char_traitsIcESaIcEEEENKUlhE_clEh
FNDA:28,_ZN4xlnt6detail13encode_base64B5cxx11ERKSt6vectorIhSaIhEE
FNDA:49,_ZN4xlnt6detail13decode_base64ERKNSt7__cxx1112basic_stringIcSt11char_traitsIcESaIcEEE
FNF:3
FNH:3
DA:30,28
DA:32,28
DA:33,28
DA:34,28
DA:35,28
DA:36,28
DA:37,28
DA:38,28
DA:39,28
DA:44,28
DA:46,1144
DA:48,1088
DA:50,1088
DA:52,352
DA:53,352
DA:54,352
DA:55,352
DA:56,352
DA:57,352
DA:59,1760
DA:61,1408
DA:64,352
DA:68,28
DA:70,80
DA:72,52
DA:75,28
DA:76,28
DA:77,28
DA:78,28
DA:79,28
DA:80,28
DA:82,88
DA:84,60
DA:87,80
DA:89,52
DA:93,28
DA:94,28
DA:96,49
DA:98,49
DA:99,49
DA:101,134
DA:103,85
DA:106,49
DA:107,49
DA:108,49
DA:109,49
DA:110,49
DA:111,49
DA:112,49
DA:113,49
DA:115,2204
DA:116,2204
DA:117,1370
DA:118,482
DA:119,131
DA:120,111
DA:121,85
DA:124,2217
DA:126,2168
DA:128,49
DA:131,2119
DA:133,2119
DA:135,2510
DA:137,2008
DA:140,502
DA:141,502
DA:142,502
DA:143,502
DA:144,502
DA:145,502
DA:147,2008
DA:149,1506
DA:152,502
DA:156,49
DA:158,134
DA:160,85
DA:163,245
DA:165,196
DA:168,49
DA:169,49
DA:170,49
DA:171,49
DA:172,49
DA:173,49
DA:175,111
DA:177,62
DA:181,49
LF:87
LH:87
end_of_record
TN:
SF:/root/project/source/detail/cryptography/compound_document.cpp
FN:43,_ZN12_GLOBAL__N_112compare_keysERKNSt7__cxx1112basic_stringIcSt11char_traitsIcESaIcEEES7_
FN:45,_ZZN12_GLOBAL__N_112compare_keysERKNSt7__cxx1112basic_stringIcSt11char_traitsIcESaIcEEES7_ENKUlS5_E_clES5_
FN:55,_ZN12_GLOBAL__N_110split_pathERKNSt7__cxx1112basic_stringIcSt11char_traitsIcESaIcEEE
FN:73,_ZN12_GLOBAL__N_19join_pathERKSt6vectorINSt7__cxx1112basic_stringIcSt11char_traitsIcESaIcEEESaIS6_EE
FN:106,_ZN4xlnt6detail28compound_document_istreambufC2ERKNS0_23compound_document_entryERNS0_17compound_documentE
FN:120,_ZN4xlnt6detail28compound_document_istreambuf6xsgetnEPcl
FN:180,_ZN4xlnt6detail28compound_document_istreambuf12short_streamEv
FN:185,_ZN4xlnt6detail28compound_document_istreambuf9underflowEv
FN:200,_ZN4xlnt6detail28compound_document_istreambuf5uflowEv
FN:208,_ZN4xlnt6detail28compound_document_istreambuf9showmanycEv
FN:218,_ZN4xlnt6detail28compound_document_istreambuf7seekoffElSt12_Ios_SeekdirSt13_Ios_Openmode
FN:257,_ZN4xlnt6detail28compound_document_istreambuf7seekposESt4fposI11__mbstate_tESt13_Ios_Openmode
FN:283,_ZN4xlnt6detail28compound_document_istreambufD0Ev
FN:283,_ZN4xlnt6detail28compound_document_istreambufD2Ev
FN:295,_ZN4xlnt6detail28compound_document_ostreambufC2ERNS0_23compound_document_entryERNS0_17compound_documentE
FN:312,_ZN4xlnt6detail28compound_document_ostreambuf4syncEv
FN:362,_ZN4xlnt6detail28compound_document_ostreambuf12short_streamEv
FN:367,_ZN4xlnt6detail28compound_document_ostreambuf8overflowEi
FN:398,_ZN4xlnt6detail28compound_document_ostreambuf22convert_to_long_streamEv
FN:428,_ZN4xlnt6detail28compound_document_ostreambuf7seekoffElSt12_Ios_SeekdirSt13_Ios_Openmode
FN:467,_ZN4xlnt6detail28compound_document_ostreambuf7seekposESt4fposI11__mbstate_tESt13_Ios_Openmode
FN:494,_ZN4xlnt6detail28compound_document_ostreambufD2Ev
FN:494,_ZN4xlnt6detail28compound_document_ostreambufD0Ev
FN:499,_ZN4xlnt6detail17compound_documentC2ERSo
FN:509,_ZN4xlnt6detail17compound_documentC2ERSi
FN:521,_ZN4xlnt6detail17compound_documentD2Ev
FN:526,_ZN4xlnt6detail17compound_document5closeEv
FN:531,_ZN4xlnt6detail17compound_document11sector_sizeEv
FN:536,_ZN4xlnt6detail17compound_document17short_sector_sizeEv
FN:541,_ZN4xlnt6detail17compound_document16open_read_streamERKNSt7__cxx1112basic_stringIcSt11char_traitsIcESaIcEEE
FN:557,_ZN4xlnt6detail17compound_document17open_write_streamERKNSt7__cxx1112basic_stringIcSt11char_traitsIcESaIcEEE
FN:571,_ZN4xlnt6detail17compound_document12write_sectorIhEEvRNS0_13binary_readerIT_EEi
FN:571,_ZN4xlnt6detail17compound_document12write_sectorIiEEvRNS0_13binary_readerIT_EEi
FN:579,_ZN4xlnt6detail17compound_document18write_short_sectorIhEEvRNS0_13binary_readerIT_EEi
FN:590,_ZN4xlnt6detail17compound_document11read_sectorIhEEviRNS0_13binary_writerIT_EE
FN:590,_ZN4xlnt6detail17compound_document11read_sectorIiEEviRNS0_13binary_writerIT_EE
FN:619,_ZN4xlnt6detail17compound_document17read_short_sectorIhEEviRNS0_13binary_writerIT_EE
FN:656,_ZN4xlnt6detail17compound_document15allocate_sectorEv
FN:695,_ZN4xlnt6detail17compound_document16allocate_sectorsEm
FN:716,_ZN4xlnt6detail17compound_document12follow_chainEiRKSt6vectorIiSaIiEE
FN:730,_ZN4xlnt6detail17compound_document22allocate_short_sectorsEm
FN:751,_ZN4xlnt6detail17compound_document21allocate_short_sectorEv
FN:814,_ZN4xlnt6detail17compound_document16next_empty_entryEv
FN:855,_ZN4xlnt6detail17compound_document12insert_entryERKNSt7__cxx1112basic_stringIcSt11char_traitsIcESaIcEEENS0_23compound_document_entry10entry_typeE
FN:888,_ZN4xlnt6detail17compound_document17sector_data_startEv
FN:893,_ZN4xlnt6detail17compound_document14contains_entryERKNSt7__cxx1112basic_stringIcSt11char_traitsIcESaIcEEENS0_23compound_document_entry10entry_typeE
FN:899,_ZN4xlnt6detail17compound_document10find_entryERKNSt7__cxx1112basic_stringIcSt11char_traitsIcESaIcEEENS0_23compound_document_entry10entry_typeE
FN:920,_ZN4xlnt6detail17compound_document15print_directoryEv
FN:935,_ZN4xlnt6detail17compound_document15write_directoryEv
FN:943,_ZN4xlnt6detail17compound_document14read_directoryEv
FN:1001,_ZN4xlnt6detail17compound_document11tree_insertEii
FN:1056,_ZN4xlnt6detail17compound_document9tree_pathB5cxx11Ei
FN:1070,_ZN4xlnt6detail17compound_document16tree_rotate_leftEi
FN:1103,_ZN4xlnt6detail17compound_document17tree_rotate_rightEi
FN:1136,_ZN4xlnt6detail17compound_document17tree_insert_fixupEi
FN:1203,_ZN4xlnt6detail17compound_document9tree_leftEi
FN:1208,_ZN4xlnt6detail17compound_document10tree_rightEi
FN:1213,_ZN4xlnt6detail17compound_document11tree_parentEi
FN:1218,_ZN4xlnt6detail17compound_document9tree_rootEi
FN:1223,_ZN4xlnt6detail17compound_document10tree_childEi
FN:1228,_ZN4xlnt6detail17compound_document8tree_keyB5cxx11Ei
FN:1233,_ZN4xlnt6detail17compound_document10tree_colorEi
FN:1238,_ZN4xlnt6detail17compound_document11read_headerEv
FN:1244,_ZN4xlnt6detail17compound_document9read_msatEv
FN:1267,_ZN4xlnt6detail17compound_document8read_satEv
FN:1278,_ZN4xlnt6detail17compound_document9read_ssatEv
FN:1289,_ZN4xlnt6detail17compound_document10read_entryEi
FN:1301,_ZN4xlnt6detail17compound_document12write_headerEv
FN:1307,_ZN4xlnt6detail17compound_document10write_msatEv
FN:1332,_ZN4xlnt6detail17compound_document9write_satEv
FN:1342,_ZN4xlnt6detail17compound_document10write_ssatEv
FN:1352,_ZN4xlnt6detail17compound_document11write_entryEi
FNDA:44,_ZN4xlnt6detail28compound_document_istreambufD2Ev
FNDA:974,_ZN4xlnt6detail28compound_document_ostreambuf8overflowEi
FNDA:0,_ZN4xlnt6detail17compound_document16tree_rotate_leftEi
FNDA:28,_ZN4xlnt6detail17compound_document9tree_rootEi
FNDA:52,_ZN4xlnt6detail17compound_document14contains_entryERKNSt7__cxx1112basic_stringIcSt11char_traitsIcESaIcEEENS0_23compound_document_entry10entry_typeE
FNDA:22,_ZN4xlnt6detail17compound_document9read_ssatEv
FNDA:12,_ZN12_GLOBAL__N_110split_pathERKNSt7__cxx1112basic_stringIcSt11char_traitsIcESaIcEEE
FNDA:16,_ZN4xlnt6detail17compound_document8tree_keyB5cxx11Ei
FNDA:192,_ZN4xlnt6detail17compound_document9tree_pathB5cxx11Ei
FNDA:1026,_ZN4xlnt6detail17compound_document15allocate_sectorEv
FNDA:8,_ZN4xlnt6detail17compound_document17open_write_streamERKNSt7__cxx1112basic_stringIcSt11char_traitsIcESaIcEEE
FNDA:4,_ZN4xlnt6detail17compound_documentC2ERSo
FNDA:5243,_ZN4xlnt6detail17compound_document12follow_chainEiRKSt6vectorIiSaIiEE
FNDA:22,_ZN4xlnt6detail17compound_document14read_directoryEv
FNDA:0,_ZN4xlnt6detail28compound_document_istreambuf9underflowEv
FNDA:986,_ZN4xlnt6detail28compound_document_ostreambuf4syncEv
FNDA:8,_ZN4xlnt6detail28compound_document_ostreambufD2Ev
FNDA:12,_ZN4xlnt6detail17compound_document11tree_insertEii
FNDA:1184,_ZN4xlnt6detail17compound_document17short_sector_sizeEv
FNDA:8,_ZN4xlnt6detail28compound_document_ostreambufC2ERNS0_23compound_document_entryERNS0_17compound_documentE
FNDA:26,_ZN4xlnt6detail17compound_documentD2Ev
FNDA:44,_ZN4xlnt6detail28compound_document_istreambufD0Ev
FNDA:8547,_ZN4xlnt6detail17compound_document12write_sectorIiEEvRNS0_13binary_readerIT_EEi
FNDA:192,_ZN12_GLOBAL__N_19join_pathERKSt6vectorINSt7__cxx1112basic_stringIcSt11char_traitsIcESaIcEEESaIS6_EE
FNDA:152,_ZN4xlnt6detail17compound_document10tree_childEi
FNDA:41628,_ZN4xlnt6detail17compound_document11sector_sizeEv
FNDA:2032,_ZN4xlnt6detail17compound_document12write_sectorIhEEvRNS0_13binary_readerIT_EEi
FNDA:96,_ZN4xlnt6detail17compound_document10find_entryERKNSt7__cxx1112basic_stringIcSt11char_traitsIcESaIcEEENS0_23compound_document_entry10entry_typeE
FNDA:0,_ZN4xlnt6detail28compound_document_istreambuf7seekposESt4fposI11__mbstate_tESt13_Ios_Openmode
FNDA:76,_ZN4xlnt6detail17compound_document18write_short_sectorIhEEvRNS0_13binary_readerIT_EEi
FNDA:22,_ZN4xlnt6detail17compound_document9read_msatEv
FNDA:4,_ZN4xlnt6detail28compound_document_ostreambuf22convert_to_long_streamEv
FNDA:2719,_ZN4xlnt6detail17compound_document11read_sectorIhEEviRNS0_13binary_writerIT_EE
FNDA:16,_ZZN12_GLOBAL__N_112compare_keysERKNSt7__cxx1112basic_stringIcSt11char_traitsIcESaIcEEES7_ENKUlS5_E_clES5_
FNDA:11,_ZN4xlnt6detail17compound_document10write_msatEv
FNDA:8,_ZN4xlnt6detail28compound_document_ostreambufD0Ev
FNDA:22,_ZN4xlnt6detail17compound_document8read_satEv
FNDA:80,_ZN4xlnt6detail17compound_document10write_ssatEv
FNDA:2012,_ZN4xlnt6detail17compound_document9write_satEv
FNDA:592,_ZN4xlnt6detail28compound_document_istreambuf6xsgetnEPcl
FNDA:168,_ZN4xlnt6detail17compound_document10read_entryEi
FNDA:1956,_ZN4xlnt6detail28compound_document_ostreambuf12short_streamEv
FNDA:76,_ZN4xlnt6detail17compound_document21allocate_short_sectorEv
FNDA:0,_ZN4xlnt6detail17compound_document17tree_rotate_rightEi
FNDA:8,_ZN12_GLOBAL__N_112compare_keysERKNSt7__cxx1112basic_stringIcSt11char_traitsIcESaIcEEES7_
FNDA:22,_ZN4xlnt6detail17compound_document11read_headerEv
FNDA:998,_ZN4xlnt6detail17compound_document15write_directoryEv
FNDA:4,_ZN4xlnt6detail17compound_document17tree_insert_fixupEi
FNDA:195,_ZN4xlnt6detail17compound_document17read_short_sectorIhEEviRNS0_13binary_writerIT_EE
FNDA:0,_ZN4xlnt6detail28compound_document_ostreambuf7seekposESt4fposI11__mbstate_tESt13_Ios_Openmode
FNDA:220,_ZN4xlnt6detail17compound_document10tree_rightEi
FNDA:30,_ZN4xlnt6detail28compound_document_istreambuf7seekoffElSt12_Ios_SeekdirSt13_Ios_Openmode
FNDA:4012,_ZN4xlnt6detail17compound_document11write_entryEi
FNDA:184,_ZN4xlnt6detail17compound_document9tree_leftEi
FNDA:44,_ZN4xlnt6detail28compound_document_istreambufC2ERKNS0_23compound_document_entryERNS0_17compound_documentE
FNDA:0,_ZN4xlnt6detail28compound_document_ostreambuf7seekoffElSt12_Ios_SeekdirSt13_Ios_Openmode
FNDA:17627,_ZN4xlnt6detail17compound_document17sector_data_startEv
FNDA:12,_ZN4xlnt6detail17compound_document12insert_entryERKNSt7__cxx1112basic_stringIcSt11char_traitsIcESaIcEEENS0_23compound_document_entry10entry_typeE
FNDA:0,_ZN4xlnt6detail17compound_document15print_directoryEv
FNDA:0,_ZN4xlnt6detail28compound_document_istreambuf9showmanycEv
FNDA:4,_ZN4xlnt6detail17compound_document22allocate_short_sectorsEm
FNDA:95,_ZN4xlnt6detail17compound_document12write_headerEv
FNDA:44,_ZN4xlnt6detail17compound_document16open_read_streamERKNSt7__cxx1112basic_stringIcSt11char_traitsIcESaIcEEE
FNDA:78,_ZN4xlnt6detail17compound_document11tree_parentEi
FNDA:4,_ZN4xlnt6detail17compound_document16allocate_sectorsEm
FNDA:26,_ZN4xlnt6detail17compound_document5closeEv
FNDA:20,_ZN4xlnt6detail17compound_document10tree_colorEi
FNDA:3486,_ZN4xlnt6detail28compound_document_istreambuf12short_streamEv
FNDA:12,_ZN4xlnt6detail17compound_document16next_empty_entryEv
FNDA:73,_ZN4xlnt6detail17compound_document11read_sectorIiEEviRNS0_13binary_writerIT_EE
FNDA:0,_ZN4xlnt6detail28compound_document_istreambuf5uflowEv
FNDA:22,_ZN4xlnt6detail17compound_documentC2ERSi
FNF:72
FNH:63
DA:43,8
DA:45,16
DA:46,16
DA:47,16
DA:49,16
DA:52,8
DA:55,12
DA:57,12
DA:58,12
DA:59,12
DA:61,24
DA:63,12
DA:64,12
DA:65,12
DA:68,12
DA:70,12
DA:71,0
DA:73,192
DA:75,192
DA:77,290
DA:79,98
DA:80,98
DA:81,98
DA:83,192
DA:84,0
DA:106,44
DA:107,88
DA:108,44
DA:109,44
DA:110,44
DA:112,44
DA:120,592
DA:122,592
DA:124,592
DA:125,592
DA:126,592
DA:127,592
DA:128,592
DA:130,3429
DA:132,2837
DA:134,2287
DA:135,2287
DA:136,2287
DA:138,180
DA:142,2107
DA:146,5674
DA:147,2837
DA:148,2837
DA:150,2837
DA:151,2837
DA:153,1086244
DA:155,1083407
DA:158,2837
DA:159,2837
DA:160,2837
DA:163,592
DA:165,15
DA:166,15
DA:167,15
DA:169,15
DA:173,0
DA:177,592
DA:178,592
DA:180,3486
DA:182,3486
DA:185,0
DA:187,0
DA:189,0
DA:192,0
DA:193,0
DA:194,0
DA:195,0
DA:197,0
DA:200,0
DA:202,0
DA:203,0
DA:205,0
DA:208,0
DA:210,0
DA:212,0
DA:215,0
DA:218,30
DA:220,30
DA:222,0
DA:224,30
DA:226,0
DA:229,30
DA:231,0
DA:233,0
DA:234,0
DA:238,0
DA:241,30
DA:243,0
DA:245,0
DA:246,0
DA:250,0
DA:254,30
DA:257,0
DA:259,0
DA:261,0
DA:263,0
DA:265,0
DA:269,0
DA:272,0
DA:283,88
DA:285,88
DA:295,8
DA:296,16
DA:297,8
DA:298,8
DA:299,8
DA:300,16
DA:302,8
DA:303,8
DA:304,8
DA:312,986
DA:314,986
DA:316,986
DA:318,4
DA:321,982
DA:323,982
DA:325,8
DA:327,4
DA:331,4
DA:333,4
DA:334,4
DA:335,4
DA:338,80
DA:340,76
DA:341,76
DA:347,974
DA:348,974
DA:351,982
DA:352,982
DA:353,982
DA:355,982
DA:356,982
DA:357,982
DA:359,982
DA:362,1956
DA:364,1956
DA:367,974
DA:369,974
DA:371,974
DA:373,0
DA:374,0
DA:375,0
DA:376,0
DA:380,974
DA:381,974
DA:382,974
DA:383,974
DA:386,974
DA:388,974
DA:390,974
DA:393,974
DA:395,974
DA:398,4
DA:400,4
DA:402,4
DA:403,4
DA:405,36
DA:407,32
DA:408,32
DA:411,4
DA:412,4
DA:414,4
DA:417,4
DA:419,0
DA:423,4
DA:424,4
DA:425,4
DA:426,4
DA:428,0
DA:430,0
DA:432,0
DA:434,0
DA:436,0
DA:439,0
DA:441,0
DA:443,0
DA:444,0
DA:448,0
DA:451,0
DA:453,0
DA:455,0
DA:456,0
DA:460,0
DA:464,0
DA:467,0
DA:469,0
DA:471,0
DA:473,0
DA:475,0
DA:479,0
DA:482,0
DA:494,16
DA:496,8
DA:497,16
DA:499,4
DA:500,4
DA:501,4
DA:502,8
DA:504,4
DA:505,4
DA:506,4
DA:507,4
DA:509,22
DA:510,22
DA:511,22
DA:512,44
DA:514,22
DA:515,22
DA:516,22
DA:517,22
DA:518,22
DA:519,22
DA:521,26
DA:523,26
DA:524,26
DA:526,26
DA:528,26
DA:529,26
DA:531,41628
DA:533,41628
DA:536,1184
DA:538,1184
DA:541,44
DA:543,44
DA:545,0
DA:548,44
DA:549,44
DA:551,44
DA:552,44
DA:554,44
DA:557,8
DA:559,8
DA:560,8
DA:561,8
DA:562,8
DA:564,8
DA:565,8
DA:567,8
DA:571,10579
DA:573,10579
DA:574,10579
DA:575,10579
DA:576,10579
DA:579,76
DA:581,76
DA:582,76
DA:583,76
DA:584,76
DA:585,76
DA:586,76
DA:587,76
DA:590,2792
DA:592,2792
DA:593,2792
DA:594,2792
DA:595,2792
DA:596,2792
DA:619,195
DA:621,195
DA:622,195
DA:623,195
DA:625,807
DA:627,612
DA:630,195
DA:631,195
DA:633,195
DA:634,195
DA:656,1026
DA:658,1026
DA:659,1026
DA:661,1026
DA:663,11
DA:664,11
DA:666,11
DA:667,11
DA:669,11
DA:670,11
DA:671,11
DA:673,11
DA:674,11
DA:676,11
DA:677,11
DA:678,11
DA:680,11
DA:681,11
DA:683,1026
DA:684,1026
DA:686,1026
DA:688,1026
DA:689,1026
DA:690,1026
DA:692,1026
DA:693,1026
DA:695,4
DA:697,4
DA:699,4
DA:700,4
DA:702,32
DA:704,28
DA:705,28
DA:706,28
DA:707,28
DA:710,4
DA:711,4
DA:713,4
DA:714,4
DA:716,5243
DA:718,5243
DA:719,5243
DA:721,247515
DA:723,242272
DA:724,242272
DA:727,5243
DA:728,0
DA:730,4
DA:732,4
DA:734,4
DA:735,4
DA:737,76
DA:739,72
DA:740,72
DA:741,72
DA:742,72
DA:745,4
DA:746,4
DA:748,4
DA:749,4
DA:751,76
DA:753,76
DA:754,76
DA:756,76
DA:758,4
DA:760,4
DA:762,4
DA:766,0
DA:767,0
DA:768,0
DA:769,0
DA:771,4
DA:773,4
DA:774,4
DA:776,4
DA:777,4
DA:778,4
DA:780,4
DA:781,4
DA:783,76
DA:784,76
DA:786,76
DA:787,76
DA:789,76
DA:791,76
DA:792,76
DA:794,76
DA:796,76
DA:798,4
DA:799,4
DA:802,76
DA:804,76
DA:806,8
DA:807,8
DA:809,76
DA:811,76
DA:814,12
DA:816,12
DA:818,24
DA:820,20
DA:822,20
DA:824,8
DA:830,4
DA:832,4
DA:836,0
DA:837,0
DA:838,0
DA:839,0
DA:841,4
DA:842,4
DA:844,20
DA:846,16
DA:847,16
DA:848,16
DA:849,16
DA:852,4
DA:855,12
DA:859,12
DA:860,12
DA:862,12
DA:863,12
DA:864,12
DA:865,12
DA:867,12
DA:869,0
DA:871,0
DA:873,0
DA:876,0
DA:879,12
DA:880,12
DA:882,12
DA:883,12
DA:885,12
DA:886,12
DA:888,17627
DA:890,17627
DA:893,52
DA:896,52
DA:899,96
DA:902,96
DA:903,96
DA:905,96
DA:907,372
DA:909,364
DA:911,88
DA:914,276
DA:917,8
DA:920,0
DA:922,0
DA:924,0
DA:926,0
DA:928,0
DA:931,0
DA:933,0
DA:935,998
DA:937,4990
DA:939,3992
DA:941,998
DA:943,22
DA:945,22
DA:946,22
DA:948,190
DA:950,168
DA:951,168
DA:954,22
DA:955,22
DA:956,22
DA:958,22
DA:959,22
DA:961,84
DA:963,62
DA:964,62
DA:966,62
DA:968,62
DA:969,62
DA:970,62
DA:971,62
DA:973,186
DA:975,124
DA:976,124
DA:977,124
DA:979,124
DA:981,124
DA:983,40
DA:986,124
DA:988,20
DA:989,20
DA:992,124
DA:994,42
DA:995,42
DA:998,62
DA:999,22
DA:1001,12
DA:1005,12
DA:1007,12
DA:1008,12
DA:1010,12
DA:1012,8
DA:1014,4
DA:1017,8
DA:1018,8
DA:1020,8
DA:1025,4
DA:1026,4
DA:1028,8
DA:1030,4
DA:1032,4
DA:1034,0
DA:1038,4
DA:1042,4
DA:1044,4
DA:1046,0
DA:1050,4
DA:1053,4
DA:1056,192
DA:1058,192
DA:1059,192
DA:1061,290
DA:1063,98
DA:1064,98
DA:1067,384
DA:1068,192
DA:1070,0
DA:1072,0
DA:1075,0
DA:1077,0
DA:1079,0
DA:1083,0
DA:1085,0
DA:1087,0
DA:1089,0
DA:1091,0
DA:1095,0
DA:1099,0
DA:1100,0
DA:1101,0
DA:1103,0
DA:1105,0
DA:1108,0
DA:1110,0
DA:1112,0
DA:1116,0
DA:1118,0
DA:1120,0
DA:1122,0
DA:1124,0
DA:1128,0
DA:1132,0
DA:1133,0
DA:1134,0
DA:1136,4
DA:1140,4
DA:1142,4
DA:1144,0
DA:1146,0
DA:1148,0
DA:1151,0
DA:1152,0
DA:1153,0
DA:1154,0
DA:1158,0
DA:1161,0
DA:1162,0
DA:1166,0
DA:1167,0
DA:1168,0
DA:1173,0
DA:1175,0
DA:1178,0
DA:1179,0
DA:1180,0
DA:1181,0
DA:1185,0
DA:1188,0
DA:1189,0
DA:1193,0
DA:1194,0
DA:1195,0
DA:1200,4
DA:1201,4
DA:1203,184
DA:1205,184
DA:1208,220
DA:1210,220
DA:1213,78
DA:1215,78
DA:1218,28
DA:1220,28
DA:1223,152
DA:1225,152
DA:1228,16
DA:1230,16
DA:1233,20
DA:1235,20
DA:1238,22
DA:1240,22
DA:1241,22
DA:1242,22
DA:1244,22
DA:1246,22
DA:1248,22
DA:1249,22
DA:1251,73
DA:1253,51
DA:1255,51
DA:1259,0
DA:1261,0
DA:1262,0
DA:1265,22
DA:1267,22
DA:1269,22
DA:1270,22
DA:1272,73
DA:1274,51
DA:1276,22
DA:1278,22
DA:1280,22
DA:1281,22
DA:1283,44
DA:1285,22
DA:1286,22
DA:1287,22
DA:1289,168
DA:1291,168
DA:1292,168
DA:1293,168
DA:1294,168
DA:1295,168
DA:1297,168
DA:1298,168
DA:1299,168
DA:1301,95
DA:1303,95
DA:1304,95
DA:1305,95
DA:1307,11
DA:1309,11
DA:1311,39
DA:1313,28
DA:1315,28
DA:1319,0
DA:1320,0
DA:1322,0
DA:1324,0
DA:1325,0
DA:1327,0
DA:1328,0
DA:1330,11
DA:1332,2012
DA:1334,2012
DA:1336,10464
DA:1338,8452
DA:1340,2012
DA:1342,80
DA:1344,80
DA:1346,160
DA:1348,80
DA:1349,80
DA:1350,80
DA:1352,4012
DA:1354,4012
DA:1355,4012
DA:1356,4012
DA:1357,4012
DA:1358,4012
DA:1360,4012
DA:1361,4012
DA:1362,4012
LF:640
LH:490
end_of_record
TN:
SF:/root/project/source/detail/cryptography/compound_document.hpp
FN:74,_ZN4xlnt6detail23compound_document_entry4nameERKNSt7__cxx1112basic_stringIcSt11char_traitsIcESaIcEEE
FN:83,_ZNK4xlnt6detail23compound_document_entry4nameB5cxx11Ev
FNDA:12,_ZN4xlnt6detail23compound_document_entry4nameERKNSt7__cxx1112basic_stringIcSt11char_traitsIcESaIcEEE
FNDA:306,_ZNK4xlnt6detail23compound_document_entry4nameB5cxx11Ev
FNF:2
FNH:2
DA:74,12
DA:76,12
DA:77,12
DA:78,12
DA:79,12
DA:80,12
DA:81,12
DA:83,306
DA:85,306
DA:86,612
LF:10
LH:10
end_of_record
TN:
SF:/root/project/source/detail/cryptography/encryption_info.cpp
FN:35,_ZN12_GLOBAL__N_122calculate_standard_keyEN4xlnt6detail15encryption_info24standard_encryption_infoERKNSt7__cxx1112basic_stringIDsSt11char_traitsIDsESaIDsEEE
FN:105,_ZN12_GLOBAL__N_119calculate_agile_keyEN4xlnt6detail15encryption_info21agile_encryption_infoERKNSt7__cxx1112basic_stringIDsSt11char_traitsIDsESaIDsEEE
FN:131,_ZZN12_GLOBAL__N_119calculate_agile_keyEN4xlnt6detail15encryption_info21agile_encryption_infoERKNSt7__cxx1112basic_stringIDsSt11char_traitsIDsESaIDsEEEENKUlRKSt6vectorIhSaIhEERKSt5arrayIhLm8EESG_E_clESG_SK_SG_
FN:172,_ZNK4xlnt6detail15encryption_info13calculate_keyEv
FNDA:15,_ZN12_GLOBAL__N_122calculate_standard_keyEN4xlnt6detail15encryption_info24standard_encryption_infoERKNSt7__cxx1112basic_stringIDsSt11char_traitsIDsESaIDsEEE
FNDA:26,_ZNK4xlnt6detail15encryption_info13calculate_keyEv
FNDA:31,_ZZN12_GLOBAL__N_119calculate_agile_keyEN4xlnt6detail15encryption_info21agile_encryption_infoERKNSt7__cxx1112basic_stringIDsSt11char_traitsIDsESaIDsEEEENKUlRKSt6vectorIhSaIhEERKSt5arrayIhLm8EESG_E_clESG_SK_SG_
FNDA:11,_ZN12_GLOBAL__N_119calculate_agile_keyEN4xlnt6detail15encryption_info21agile_encryption_infoERKNSt7__cxx1112basic_stringIDsSt11char_traitsIDsESaIDsEEE
FNF:4
FNH:4
DA:35,15
DA:40,15
DA:41,15
DA:42,15
DA:45,15
DA:48,15
DA:49,15
DA:50,15
DA:51,15
DA:52,750015
DA:54,750000
DA:55,750000
DA:59,15
DA:60,15
DA:61,15
DA:62,15
DA:65,15
DA:68,15
DA:69,315
DA:71,300
DA:73,15
DA:76,15
DA:77,315
DA:79,300
DA:81,15
DA:83,15
DA:84,15
DA:87,15
DA:92,15
DA:94,15
DA:95,15
DA:97,15
DA:99,9
DA:102,12
DA:103,54
DA:105,11
DA:110,11
DA:111,11
DA:112,11
DA:116,11
DA:119,11
DA:120,11
DA:121,11
DA:122,11
DA:123,1100011
DA:125,1100000
DA:126,1100000
DA:131,31
DA:135,31
DA:136,31
DA:138,31
DA:139,31
DA:143,62
DA:144,31
DA:146,11
DA:147,11
DA:148,11
DA:150,11
DA:152,11
DA:153,11
DA:155,11
DA:157,6
DA:160,9
DA:164,18
DA:165,25
DA:172,26
DA:174,26
DA:175,37
DA:176,84
LF:69
LH:69
end_of_record
TN:
SF:/root/project/source/detail/cryptography/hash.cpp
FN:31,_ZN4xlnt6detail4hashENS0_14hash_algorithmERKSt6vectorIhSaIhEERS4_
FN:47,_ZN4xlnt6detail4hashENS0_14hash_algorithmERKSt6vectorIhSaIhEE
FNDA:507,_ZN4xlnt6detail4hashENS0_14hash_algorithmERKSt6vectorIhSaIhEE
FNDA:1850507,_ZN4xlnt6detail4hashENS0_14hash_algorithmERKSt6vectorIhSaIhEERS4_
FNF:2
FNH:2
DA:31,1850507
DA:33,1850507
DA:35,800176
DA:37,1050331
DA:39,1050331
DA:43,0
DA:45,1850507
DA:47,507
DA:49,507
DA:50,507
DA:52,507
DA:53,0
LF:12
LH:10
end_of_record
TN:
SF:/root/project/source/detail/cryptography/sha.cpp
FN:48,_ZN12_GLOBAL__N_110byteswap32Ej
FN:53,_ZN12_GLOBAL__N_110byteswap64Em
FN:59,_ZN12_GLOBAL__N_18byteswapEPjm
FN:67,_ZN12_GLOBAL__N_18byteswapEPmm
FN:80,_ZN4xlnt6detail4sha1ERKSt6vectorIhSaIhEERS3_
FN:92,_ZN4xlnt6detail6sha512ERKSt6vectorIhSaIhEERS3_
FNDA:1050331,_ZN12_GLOBAL__N_18byteswapEPjm
FNDA:5251655,_ZN12_GLOBAL__N_110byteswap32Ej
FNDA:800176,_ZN12_GLOBAL__N_18byteswapEPmm
FNDA:800176,_ZN4xlnt6detail6sha512ERKSt6vectorIhSaIhEERS3_
FNDA:6401408,_ZN12_GLOBAL__N_110byteswap64Em
FNDA:1050331,_ZN4xlnt6detail4sha1ERKSt6vectorIhSaIhEERS3_
FNF:6
FNH:6
DA:48,5251655
DA:50,5251655
DA:53,6401408
DA:55,6401408
DA:59,1050331
DA:61,6301986
DA:63,5251655
DA:65,1050331
DA:67,800176
DA:69,7201584
DA:71,6401408
DA:73,800176
DA:80,1050331
DA:84,1050331
DA:85,1050331
DA:87,1050331
DA:89,1050331
DA:90,1050331
DA:92,800176
DA:96,800176
DA:97,800176
DA:99,800176
DA:101,800176
DA:102,800176
LF:24
LH:24
end_of_record
TN:
SF:/root/project/source/detail/cryptography/value_traits.hpp
FN:38,_ZN3xml12value_traitsIN4xlnt6detail14hash_algorithmEE5parseENSt7__cxx1112basic_stringIcSt11char_traitsIcESaIcEEERKNS_6parserE
FN:63,_ZN3xml12value_traitsIN4xlnt6detail14hash_algorithmEE9serializeB5cxx11ES3_RKNS_10serializerE
FNDA:7,_ZN3xml12value_traitsIN4xlnt6detail14hash_algorithmEE5parseENSt7__cxx1112basic_stringIcSt11char_traitsIcESaIcEEERKNS_6parserE
FNDA:4,_ZN3xml12value_traitsIN4xlnt6detail14hash_algorithmEE9serializeB5cxx11ES3_RKNS_10serializerE
FNF:2
FNH:2
DA:38,7
DA:40,7
DA:41,3
DA:42,4
DA:43,0
DA:44,4
DA:45,0
DA:46,4
DA:47,4
DA:48,0
DA:49,0
DA:50,0
DA:51,0
DA:52,0
DA:53,0
DA:54,0
DA:55,0
DA:56,0
DA:57,0
DA:58,0
DA:59,0
DA:60,0
DA:63,4
DA:65,4
DA:67,0
DA:68,0
DA:69,0
DA:70,0
DA:71,0
DA:72,0
DA:73,4
DA:74,8
DA:75,0
DA:76,0
DA:77,0
DA:78,0
DA:79,0
DA:80,0
DA:81,0
DA:82,0
DA:83,0
DA:84,0
DA:85,0
DA:86,0
DA:88,0
LF:45
LH:11
end_of_record
TN:
SF:/root/project/source/detail/cryptography/xlsx_crypto_consumer.cpp
FN:49,_ZN12_GLOBAL__N_121decrypt_xlsx_standardEN4xlnt6detail15encryption_infoERSi
FN:78,_ZN12_GLOBAL__N_118decrypt_xlsx_agileERKN4xlnt6detail15encryption_infoERSi
FN:117,_ZN12_GLOBAL__N_129read_standard_encryption_infoERSi
FN:181,_ZN12_GLOBAL__N_126read_agile_encryption_infoERSi
FN:260,_ZN12_GLOBAL__N_120read_encryption_infoERSiRKNSt7__cxx1112basic_stringIDsSt11char_traitsIDsESaIDsEEE
FN:310,_ZN12_GLOBAL__N_112decrypt_xlsxERKSt6vectorIhSaIhEERKNSt7__cxx1112basic_stringIDsSt11char_traitsIDsESaIDsEEE
FN:338,_ZN4xlnt6detail12decrypt_xlsxERKSt6vectorIhSaIhEERKNSt7__cxx1112basic_stringIcSt11char_traitsIcESaIcEEE
FN:344,_ZN4xlnt6detail12decrypt_xlsxERKSt6vectorIhSaIhEESt17basic_string_viewIDuSt11char_traitsIDuEE
FN:351,_ZN4xlnt6detail13xlsx_consumer13read_internalINSt7__cxx1112basic_stringIcSt11char_traitsIcESaIcEEEEEvRSiRKT_
FN:351,_ZN4xlnt6detail13xlsx_consumer13read_internalISt17basic_string_viewIDuSt11char_traitsIDuEEEEvRSiRKT_
FN:360,_ZN4xlnt6detail13xlsx_consumer4readERSiRKNSt7__cxx1112basic_stringIcSt11char_traitsIcESaIcEEE
FN:366,_ZN4xlnt6detail13xlsx_consumer4readERSiSt17basic_string_viewIDuSt11char_traitsIDuEE
FNDA:10,_ZN4xlnt6detail13xlsx_consumer13read_internalISt17basic_string_viewIDuSt11char_traitsIDuEEEEvRSiRKT_
FNDA:12,_ZN4xlnt6detail13xlsx_consumer4readERSiRKNSt7__cxx1112basic_stringIcSt11char_traitsIcESaIcEEE
FNDA:7,_ZN12_GLOBAL__N_126read_agile_encryption_infoERSi
FNDA:15,_ZN12_GLOBAL__N_129read_standard_encryption_infoERSi
FNDA:22,_ZN12_GLOBAL__N_112decrypt_xlsxERKSt6vectorIhSaIhEERKNSt7__cxx1112basic_stringIDsSt11char_traitsIDsESaIDsEEE
FNDA:15,_ZN12_GLOBAL__N_121decrypt_xlsx_standardEN4xlnt6detail15encryption_infoERSi
FNDA:12,_ZN4xlnt6detail13xlsx_consumer13read_internalINSt7__cxx1112basic_stringIcSt11char_traitsIcESaIcEEEEEvRSiRKT_
FNDA:10,_ZN4xlnt6detail13xlsx_consumer4readERSiSt17basic_string_viewIDuSt11char_traitsIDuEE
FNDA:7,_ZN12_GLOBAL__N_118decrypt_xlsx_agileERKN4xlnt6detail15encryption_infoERSi
FNDA:10,_ZN4xlnt6detail12decrypt_xlsxERKSt6vectorIhSaIhEESt17basic_string_viewIDuSt11char_traitsIDuEE
FNDA:22,_ZN12_GLOBAL__N_120read_encryption_infoERSiRKNSt7__cxx1112basic_stringIDsSt11char_traitsIDsESaIDsEEE
FNDA:12,_ZN4xlnt6detail12decrypt_xlsxERKSt6vectorIhSaIhEERKNSt7__cxx1112basic_stringIcSt11char_traitsIcESaIcEEE
FNF:12
FNH:12
DA:49,15
DA:53,15
DA:55,12
DA:57,12
DA:58,12
DA:60,38
DA:62,26
DA:63,26
DA:64,26
DA:65,26
DA:67,52
DA:68,26
DA:71,26
DA:73,12
DA:75,12
DA:76,12
DA:78,7
DA:82,7
DA:84,5
DA:85,5
DA:86,5
DA:88,5
DA:89,5
DA:91,5
DA:92,5
DA:94,256
DA:96,251
DA:97,251
DA:99,251
DA:100,251
DA:101,251
DA:102,251
DA:104,502
DA:105,251
DA:109,251
DA:110,251
DA:112,5
DA:114,5
DA:115,5
DA:117,15
DA:119,15
DA:121,15
DA:122,15
DA:123,15
DA:124,15
DA:125,15
DA:127,15
DA:129,15
DA:133,0
DA:136,15
DA:137,15
DA:139,0
DA:142,15
DA:143,15
DA:145,15
DA:146,15
DA:148,0
DA:151,15
DA:152,15
DA:154,0
DA:157,15
DA:158,15
DA:159,15
DA:160,15
DA:161,15
DA:162,15
DA:163,15
DA:165,0
DA:168,15
DA:169,15
DA:172,15
DA:174,15
DA:175,15
DA:176,15
DA:178,15
DA:179,15
DA:181,7
DA:185,11
DA:186,11
DA:189,7
DA:191,14
DA:193,7
DA:195,7
DA:196,14
DA:197,14
DA:198,14
DA:199,14
DA:200,14
DA:201,14
DA:202,14
DA:203,14
DA:204,14
DA:205,7
DA:207,7
DA:208,14
DA:209,14
DA:210,14
DA:211,7
DA:213,7
DA:214,14
DA:215,14
DA:216,7
DA:217,7
DA:219,14
DA:221,7
DA:223,7
DA:225,7
DA:226,14
DA:227,14
DA:228,14
DA:229,14
DA:230,14
DA:231,14
DA:232,14
DA:233,14
DA:234,14
DA:235,14
DA:236,14
DA:237,14
DA:241,0
DA:244,7
DA:247,7
DA:249,0
DA:252,14
DA:253,14
DA:255,7
DA:257,7
DA:258,7
DA:260,22
DA:262,22
DA:264,22
DA:266,22
DA:267,22
DA:268,22
DA:270,22
DA:272,22
DA:274,7
DA:276,0
DA:279,7
DA:283,15
DA:285,0
DA:288,15
DA:290,0
DA:293,15
DA:294,15
DA:296,0
DA:299,15
DA:301,0
DA:304,15
DA:307,22
DA:308,0
DA:310,22
DA:314,22
DA:316,0
DA:319,22
DA:320,22
DA:321,22
DA:323,22
DA:324,22
DA:326,22
DA:328,22
DA:329,22
DA:330,61
DA:331,37
DA:338,12
DA:340,12
DA:344,10
DA:346,10
DA:351,22
DA:353,22
DA:354,22
DA:355,17
DA:356,17
DA:357,17
DA:358,22
DA:360,12
DA:362,12
DA:366,10
DA:368,10
LF:179
LH:165
end_of_record
TN:
SF:/root/project/source/detail/cryptography/xlsx_crypto_producer.cpp
FN:44,_ZN12_GLOBAL__N_124generate_encryption_infoERKNSt7__cxx1112basic_stringIDsSt11char_traitsIDsESaIDsEEE
FN:104,_ZN12_GLOBAL__N_127write_agile_encryption_infoERKN4xlnt6detail15encryption_infoERSo
FN:172,_ZN12_GLOBAL__N_130write_standard_encryption_infoERKN4xlnt6detail15encryption_infoERSo
FN:212,_ZN12_GLOBAL__N_118encrypt_xlsx_agileERKN4xlnt6detail15encryption_infoERKSt6vectorIhSaIhEERSo
FN:245,_ZN12_GLOBAL__N_121encrypt_xlsx_standardERKN4xlnt6detail15encryption_infoERKSt6vectorIhSaIhEERSo
FN:267,_ZN12_GLOBAL__N_112encrypt_xlsxERKSt6vectorIhSaIhEERKNSt7__cxx1112basic_stringIDsSt11char_traitsIDsESaIDsEEE
FN:303,_ZN4xlnt6detail12encrypt_xlsxERKSt6vectorIhSaIhEERKNSt7__cxx1112basic_stringIcSt11char_traitsIcESaIcEEE
FN:311,_ZN4xlnt6detail12encrypt_xlsxERKSt6vectorIhSaIhEESt17basic_string_viewIDuSt11char_traitsIDuEE
FN:320,_ZN4xlnt6detail13xlsx_producer14write_internalISt17basic_string_viewIDuSt11char_traitsIDuEEEEvRSoRKT_
FN:320,_ZN4xlnt6detail13xlsx_producer14write_internalINSt7__cxx1112basic_stringIcSt11char_traitsIcESaIcEEEEEvRSoRKT_
FN:334,_ZN4xlnt6detail13xlsx_producer5writeERSoRKNSt7__cxx1112basic_stringIcSt11char_traitsIcESaIcEEE
FN:340,_ZN4xlnt6detail13xlsx_producer5writeERSoSt17basic_string_viewIDuSt11char_traitsIDuEE
FNDA:4,_ZN12_GLOBAL__N_124generate_encryption_infoERKNSt7__cxx1112basic_stringIDsSt11char_traitsIDsESaIDsEEE
FNDA:4,_ZN12_GLOBAL__N_112encrypt_xlsxERKSt6vectorIhSaIhEERKNSt7__cxx1112basic_stringIDsSt11char_traitsIDsESaIDsEEE
FNDA:3,_ZN4xlnt6detail13xlsx_producer14write_internalINSt7__cxx1112basic_stringIcSt11char_traitsIcESaIcEEEEEvRSoRKT_
FNDA:0,_ZN12_GLOBAL__N_130write_standard_encryption_infoERKN4xlnt6detail15encryption_infoERSo
FNDA:4,_ZN12_GLOBAL__N_118encrypt_xlsx_agileERKN4xlnt6detail15encryption_infoERKSt6vectorIhSaIhEERSo
FNDA:4,_ZN12_GLOBAL__N_127write_agile_encryption_infoERKN4xlnt6detail15encryption_infoERSo
FNDA:1,_ZN4xlnt6detail13xlsx_producer14write_internalISt17basic_string_viewIDuSt11char_traitsIDuEEEEvRSoRKT_
FNDA:0,_ZN4xlnt6detail12encrypt_xlsxERKSt6vectorIhSaIhEESt17basic_string_viewIDuSt11char_traitsIDuEE
FNDA:0,_ZN12_GLOBAL__N_121encrypt_xlsx_standardERKN4xlnt6detail15encryption_infoERKSt6vectorIhSaIhEERSo
FNDA:0,_ZN4xlnt6detail12encrypt_xlsxERKSt6vectorIhSaIhEERKNSt7__cxx1112basic_stringIcSt11char_traitsIcESaIcEEE
FNDA:1,_ZN4xlnt6detail13xlsx_producer5writeERSoSt17basic_string_viewIDuSt11char_traitsIDuEE
FNDA:3,_ZN4xlnt6detail13xlsx_producer5writeERSoRKNSt7__cxx1112basic_stringIcSt11char_traitsIcESaIcEEE
FNF:12
FNH:8
DA:44,4
DA:46,4
DA:48,4
DA:50,4
DA:52,4
DA:53,4
DA:54,4
DA:55,4
DA:56,4
DA:57,4
DA:58,4
DA:61,8
DA:68,8
DA:74,8
DA:76,4
DA:77,4
DA:78,4
DA:79,4
DA:80,4
DA:81,4
DA:82,4
DA:83,4
DA:86,8
DA:89,8
DA:95,8
DA:99,8
DA:101,4
DA:102,0
DA:104,4
DA:108,4
DA:109,4
DA:110,4
DA:112,4
DA:113,4
DA:114,4
DA:116,6
DA:117,6
DA:119,8
DA:121,4
DA:123,4
DA:124,8
DA:125,8
DA:126,8
DA:127,8
DA:128,8
DA:129,8
DA:130,8
DA:131,4
DA:132,4
DA:133,8
DA:134,4
DA:136,4
DA:137,4
DA:138,4
DA:139,8
DA:140,4
DA:141,8
DA:142,4
DA:144,4
DA:145,8
DA:146,8
DA:147,8
DA:148,8
DA:149,8
DA:150,8
DA:151,8
DA:152,8
DA:153,8
DA:154,8
DA:155,8
DA:156,4
DA:157,4
DA:158,8
DA:159,4
DA:160,8
DA:161,4
DA:162,8
DA:163,4
DA:164,8
DA:165,8
DA:166,8
DA:167,8
DA:169,4
DA:170,4
DA:172,0
DA:174,0
DA:175,0
DA:177,0
DA:178,0
DA:179,0
DA:181,0
DA:182,0
DA:183,0
DA:185,0
DA:187,0
DA:188,0
DA:189,0
DA:190,0
DA:191,0
DA:192,0
DA:193,0
DA:194,0
DA:195,0
DA:197,0
DA:198,0
DA:200,0
DA:201,0
DA:203,0
DA:205,0
DA:206,0
DA:208,0
DA:209,0
DA:210,0
DA:212,4
DA:217,4
DA:218,4
DA:220,4
DA:222,4
DA:223,4
DA:224,4
DA:225,4
DA:227,4
DA:229,132
DA:231,128
DA:232,128
DA:234,128
DA:235,128
DA:236,128
DA:237,128
DA:238,128
DA:241,128
DA:242,128
DA:243,4
DA:245,0
DA:250,0
DA:251,0
DA:253,0
DA:254,0
DA:256,0
DA:258,0
DA:259,0
DA:260,0
DA:261,0
DA:262,0
DA:264,0
DA:265,0
DA:267,4
DA:271,4
DA:272,4
DA:274,4
DA:276,4
DA:277,4
DA:278,4
DA:280,4
DA:282,4
DA:283,12
DA:284,4
DA:285,12
DA:289,0
DA:290,0
DA:291,0
DA:292,0
DA:295,4
DA:296,4
DA:303,0
DA:307,0
DA:311,0
DA:315,0
DA:320,4
DA:322,4
DA:323,4
DA:324,4
DA:325,4
DA:326,4
DA:328,4
DA:329,4
DA:331,4
DA:332,4
DA:334,3
DA:336,3
DA:337,3
DA:340,1
DA:342,1
DA:343,1
LF:184
LH:133
end_of_record
TN:
SF:/root/project/source/detail/header_footer/header_footer_code.cpp
FN:32,_ZN4xlnt6detail20decode_header_footerERKNSt7__cxx1112basic_stringIcSt11char_traitsIcESaIcEEE
FN:221,_ZZN4xlnt6detail20decode_header_footerERKNSt7__cxx1112basic_stringIcSt11char_traitsIcESaIcEEEENKUlZNS0_20decode_header_footerES8_E7hf_codeE_clES9_
FN:465,_ZN4xlnt6detail20encode_header_footerB5cxx11ERKNS_9rich_textENS_13header_footer8locationE
FNDA:34,_ZN4xlnt6detail20decode_header_footerERKNSt7__cxx1112basic_stringIcSt11char_traitsIcESaIcEEE
FNDA:102,_ZZN4xlnt6detail20decode_header_footerERKNSt7__cxx1112basic_stringIcSt11char_traitsIcESaIcEEEENKUlZNS0_20decode_header_footerES8_E7hf_codeE_clES9_
FNDA:17,_ZN4xlnt6detail20encode_header_footerB5cxx11ERKNS_9rich_textENS_13header_footer8locationE
FNF:3
FNH:3
DA:32,34
DA:34,34
DA:36,34
DA:38,0
DA:77,34
DA:78,34
DA:80,244
DA:82,210
DA:84,210
DA:85,210
DA:86,210
DA:88,210
DA:90,170
DA:91,170
DA:92,170
DA:94,170
DA:96,40
DA:97,40
DA:99,40
DA:100,40
DA:102,130
DA:104,4
DA:106,126
DA:108,8
DA:110,118
DA:112,34
DA:114,84
DA:116,8
DA:118,76
DA:120,14
DA:122,62
DA:124,0
DA:126,124
DA:128,28
DA:129,28
DA:130,28
DA:132,34
DA:134,18
DA:136,0
DA:137,0
DA:141,18
DA:142,18
DA:145,18
DA:147,16
DA:149,0
DA:151,16
DA:153,0
DA:155,16
DA:157,0
DA:159,16
DA:161,0
DA:163,16
DA:165,0
DA:167,16
DA:169,0
DA:171,16
DA:173,4
DA:175,12
DA:177,0
DA:179,12
DA:181,0
DA:183,12
DA:185,0
DA:187,12
DA:189,12
DA:191,0
DA:193,0
DA:195,0
DA:197,0
DA:199,0
DA:201,0
DA:203,0
DA:205,0
DA:207,0
DA:209,0
DA:211,0
DA:213,0
DA:217,210
DA:218,210
DA:219,210
DA:221,102
DA:222,204
DA:223,102
DA:225,102
DA:227,442
DA:229,340
DA:232,102
DA:234,52
DA:237,50
DA:238,50
DA:240,210
DA:241,210
DA:243,160
DA:246,50
DA:247,50
DA:252,210
DA:254,160
DA:256,160
DA:258,44
DA:259,44
DA:262,116
DA:264,12
DA:265,12
DA:268,116
DA:270,0
DA:271,0
DA:274,0
DA:275,0
DA:278,0
DA:279,0
DA:282,0
DA:283,0
DA:286,14
DA:287,14
DA:288,14
DA:291,0
DA:292,0
DA:293,0
DA:296,28
DA:297,28
DA:299,0
DA:302,28
DA:304,28
DA:307,18
DA:308,18
DA:310,18
DA:312,0
DA:315,18
DA:318,18
DA:321,0
DA:322,0
DA:325,0
DA:326,0
DA:329,0
DA:330,0
DA:333,0
DA:334,0
DA:335,0
DA:338,0
DA:339,0
DA:340,0
DA:343,0
DA:344,0
DA:345,0
DA:348,4
DA:349,4
DA:351,0
DA:353,4
DA:354,4
DA:357,0
DA:358,0
DA:361,0
DA:362,0
DA:363,0
DA:366,0
DA:367,0
DA:368,0
DA:371,12
DA:372,12
DA:373,12
DA:376,0
DA:377,0
DA:380,0
DA:381,0
DA:384,40
DA:385,40
DA:386,40
DA:388,40
DA:390,40
DA:393,40
DA:395,40
DA:398,40
DA:400,40
DA:402,40
DA:404,4
DA:406,36
DA:410,36
DA:412,0
DA:414,40
DA:416,40
DA:417,40
DA:419,0
DA:420,0
DA:422,0
DA:425,0
DA:427,0
DA:430,0
DA:431,0
DA:434,0
DA:435,0
DA:438,0
DA:439,0
DA:444,50
DA:446,50
DA:449,50
DA:450,50
DA:452,50
DA:454,50
DA:456,102
DA:458,34
DA:459,34
DA:460,34
DA:462,34
DA:463,34
DA:465,17
DA:470,0
DA:471,0
DA:472,0
DA:473,85
DA:475,17
DA:477,36
DA:479,19
DA:481,19
DA:483,11
DA:485,11
DA:486,11
DA:487,11
DA:488,11
DA:490,11
DA:492,2
DA:496,9
DA:500,11
DA:502,0
DA:504,0
DA:507,11
DA:509,5
DA:510,5
DA:512,11
DA:514,2
DA:516,2
DA:518,2
DA:519,2
DA:520,0
DA:522,0
DA:523,0
DA:524,0
DA:525,0
DA:528,11
DA:530,9
DA:531,9
DA:532,9
DA:536,19
DA:537,17
DA:539,17
DA:540,34
LF:245
LH:157
end_of_record
TN:
SF:/root/project/source/detail/implementations/cell_impl.hpp
FN:63,_ZNK4xlnt6detail9cell_impl22is_garbage_collectibleEv
FN:69,_ZN4xlnt6detaileqERKNS0_9cell_implES3_
FNDA:8,_ZN4xlnt6detaileqERKNS0_9cell_implES3_
FNDA:32796,_ZNK4xlnt6detail9cell_impl22is_garbage_collectibleEv
FNF:2
FNH:2
DA:63,32796
DA:65,32796
DA:69,8
DA:72,8
DA:73,8
DA:74,8
DA:75,8
DA:76,8
DA:77,7
DA:78,7
DA:79,7
DA:80,16
LF:12
LH:12
end_of_record
TN:
SF:/root/project/source/detail/implementations/conditional_format_impl.hpp
FN:25,_ZNK4xlnt6detail23conditional_format_impleqERKS1_
FNDA:0,_ZNK4xlnt6detail23conditional_format_impleqERKS1_
FNF:1
FNH:0
DA:25,0
DA:28,0
DA:29,0
DA:30,0
DA:31,0
DA:32,0
DA:33,0
DA:34,0
LF:8
LH:0
end_of_record
TN:
SF:/root/project/source/detail/implementations/format_impl.hpp
FN:55,_ZN4xlnt6detaileqERKNS0_11format_implES3_
FNDA:8989,_ZN4xlnt6detaileqERKNS0_11format_implES3_
FNF:1
FNH:1
DA:55,8989
DA:58,8989
DA:59,8988
DA:60,8988
DA:61,8684
DA:62,8684
DA:63,2393
DA:64,2393
DA:65,1624
DA:66,1624
DA:67,836
DA:68,836
DA:69,836
DA:70,836
DA:71,836
DA:72,17977
LF:16
LH:16
end_of_record
TN:
SF:/root/project/source/detail/implementations/hyperlink_impl.hpp
FN:44,_ZN4xlnt6detaileqERKNS0_14hyperlink_implES3_
FNDA:0,_ZN4xlnt6detaileqERKNS0_14hyperlink_implES3_
FNF:1
FNH:0
DA:44,0
DA:46,0
DA:47,0
DA:48,0
LF:4
LH:0
end_of_record
TN:
SF:/root/project/source/detail/implementations/style_impl.hpp
FN:25,_ZNK4xlnt6detail10style_impleqERKS1_
FNDA:38,_ZNK4xlnt6detail10style_impleqERKS1_
FNF:1
FNH:1
DA:25,38
DA:28,38
DA:29,38
DA:30,38
DA:31,38
DA:32,38
DA:33,38
DA:34,38
DA:35,38
DA:36,38
DA:37,38
DA:38,38
DA:39,38
DA:40,38
DA:41,38
DA:42,38
DA:43,38
DA:44,38
DA:45,38
DA:46,38
DA:47,76
LF:21
LH:21
end_of_record
TN:
SF:/root/project/source/detail/implementations/stylesheet.hpp
FN:49,_ZN4xlnt6detail10stylesheet13create_formatEb
FN:62,_ZN4xlnt6detail10stylesheet6formatEm
FN:70,_ZN4xlnt6detail10stylesheet12create_styleERKNSt7__cxx1112basic_stringIcSt11char_traitsIcESaIcEEE
FN:86,_ZN4xlnt6detail10stylesheet20create_builtin_styleEm
FN:151,_ZN4xlnt6detail10stylesheet5styleERKNSt7__cxx1112basic_stringIcSt11char_traitsIcESaIcEEE
FN:157,_ZN4xlnt6detail10stylesheet9has_styleERKNSt7__cxx1112basic_stringIcSt11char_traitsIcESaIcEEE
FN:162,_ZNK4xlnt6detail10stylesheet28next_custom_number_format_idEv
FN:178,_ZN4xlnt6detail10stylesheet11find_or_addINS_6borderESt6vectorIS3_SaIS3_EEEEmRT0_RKT_
FN:178,_ZN4xlnt6detail10stylesheet11find_or_addINS_4fontESt6vectorIS3_SaIS3_EEEEmRT0_RKT_
FN:178,_ZN4xlnt6detail10stylesheet11find_or_addINS_9alignmentESt6vectorIS3_SaIS3_EEEEmRT0_RKT_
FN:178,_ZN4xlnt6detail10stylesheet11find_or_addINS_10protectionESt6vectorIS3_SaIS3_EEEEmRT0_RKT_
FN:178,_ZN4xlnt6detail10stylesheet11find_or_addINS_4fillESt6vectorIS3_SaIS3_EEEEmRT0_RKT_
FN:193,_ZN4xlnt6detail10stylesheet15garbage_collectINS_4fontEEESt13unordered_mapImmSt4hashImESt8equal_toImESaISt4pairIKmmEEERKSD_RSt6vectorIT_SaISH_EE
FN:193,_ZN4xlnt6detail10stylesheet15garbage_collectINS_4fillEEESt13unordered_mapImmSt4hashImESt8equal_toImESaISt4pairIKmmEEERKSD_RSt6vectorIT_SaISH_EE
FN:193,_ZN4xlnt6detail10stylesheet15garbage_collectINS_9alignmentEEESt13unordered_mapImmSt4hashImESt8equal_toImESaISt4pairIKmmEEERKSD_RSt6vectorIT_SaISH_EE
FN:193,_ZN4xlnt6detail10stylesheet15garbage_collectINS_10protectionEEESt13unordered_mapImmSt4hashImESt8equal_toImESaISt4pairIKmmEEERKSD_RSt6vectorIT_SaISH_EE
FN:193,_ZN4xlnt6detail10stylesheet15garbage_collectINS_6borderEEESt13unordered_mapImmSt4hashImESt8equal_toImESaISt4pairIKmmEEERKSD_RSt6vectorIT_SaISH_EE
FN:215,_ZN4xlnt6detail10stylesheet15garbage_collectEv
FN:381,_ZN4xlnt6detail10stylesheet14find_or_createERNS0_11format_implE
FN:412,_ZN4xlnt6detail10stylesheet19find_or_create_withEPNS0_11format_implERKNSt7__cxx1112basic_stringIcSt11char_traitsIcESaIcEEE
FN:423,_ZN4xlnt6detail10stylesheet19find_or_create_withEPNS0_11format_implERKNS_9alignmentENS_8optionalIbEE
FN:435,_ZN4xlnt6detail10stylesheet19find_or_create_withEPNS0_11format_implERKNS_6borderENS_8optionalIbEE
FN:447,_ZN4xlnt6detail10stylesheet19find_or_create_withEPNS0_11format_implERKNS_4fillENS_8optionalIbEE
FN:459,_ZN4xlnt6detail10stylesheet19find_or_create_withEPNS0_11format_implERKNS_4fontENS_8optionalIbEE
FN:471,_ZN4xlnt6detail10stylesheet19find_or_create_withEPNS0_11format_implERKNS_13number_formatENS_8optionalIbEE
FN:497,_ZN4xlnt6detail10stylesheet19find_or_create_withEPNS0_11format_implERKNS_10protectionENS_8optionalIbEE
FN:509,_ZNK4xlnt6detail10stylesheet11style_indexERKNSt7__cxx1112basic_stringIcSt11char_traitsIcESaIcEEE
FN:533,_ZN4xlnt6detail10stylesheet27add_conditional_format_ruleEPNS0_14worksheet_implERKNS_15range_referenceERKNS_9conditionE
FN:549,_ZNK4xlnt6detail10stylesheeteqERKS1_
FNDA:776,_ZN4xlnt6detail10stylesheet11find_or_addINS_4fillESt6vectorIS3_SaIS3_EEEEmRT0_RKT_
FNDA:8,_ZNK4xlnt6detail10stylesheeteqERKS1_
FNDA:2061,_ZN4xlnt6detail10stylesheet15garbage_collectEv
FNDA:1,_ZN4xlnt6detail10stylesheet19find_or_create_withEPNS0_11format_implERKNS_10protectionENS_8optionalIbEE
FNDA:535,_ZN4xlnt6detail10stylesheet19find_or_create_withEPNS0_11format_implERKNS_4fontENS_8optionalIbEE
FNDA:2061,_ZN4xlnt6detail10stylesheet15garbage_collectINS_9alignmentEEESt13unordered_mapImmSt4hashImESt8equal_toImESaISt4pairIKmmEEERKSD_RSt6vectorIT_SaISH_EE
FNDA:261,_ZN4xlnt6detail10stylesheet19find_or_create_withEPNS0_11format_implERKNSt7__cxx1112basic_stringIcSt11char_traitsIcESaIcEEE
FNDA:17,_ZNK4xlnt6detail10stylesheet28next_custom_number_format_idEv
FNDA:2061,_ZN4xlnt6detail10stylesheet15garbage_collectINS_6borderEEESt13unordered_mapImmSt4hashImESt8equal_toImESaISt4pairIKmmEEERKSD_RSt6vectorIT_SaISH_EE
FNDA:251,_ZN4xlnt6detail10stylesheet20create_builtin_styleEm
FNDA:532,_ZN4xlnt6detail10stylesheet19find_or_create_withEPNS0_11format_implERKNS_13number_formatENS_8optionalIbEE
FNDA:2061,_ZN4xlnt6detail10stylesheet15garbage_collectINS_10protectionEEESt13unordered_mapImmSt4hashImESt8equal_toImESaISt4pairIKmmEEERKSD_RSt6vectorIT_SaISH_EE
FNDA:556,_ZN4xlnt6detail10stylesheet13create_formatEb
FNDA:522,_ZN4xlnt6detail10stylesheet9has_styleERKNSt7__cxx1112basic_stringIcSt11char_traitsIcESaIcEEE
FNDA:1,_ZN4xlnt6detail10stylesheet27add_conditional_format_ruleEPNS0_14worksheet_implERKNS_15range_referenceERKNS_9conditionE
FNDA:893,_ZN4xlnt6detail10stylesheet12create_styleERKNSt7__cxx1112basic_stringIcSt11char_traitsIcESaIcEEE
FNDA:2061,_ZN4xlnt6detail10stylesheet15garbage_collectINS_4fillEEESt13unordered_mapImmSt4hashImESt8equal_toImESaISt4pairIKmmEEERKSD_RSt6vectorIT_SaISH_EE
FNDA:2354,_ZN4xlnt6detail10stylesheet14find_or_createERNS0_11format_implE
FNDA:2061,_ZN4xlnt6detail10stylesheet15garbage_collectINS_4fontEEESt13unordered_mapImmSt4hashImESt8equal_toImESaISt4pairIKmmEEERKSD_RSt6vectorIT_SaISH_EE
FNDA:266,_ZN4xlnt6detail10stylesheet5styleERKNSt7__cxx1112basic_stringIcSt11char_traitsIcESaIcEEE
FNDA:763,_ZN4xlnt6detail10stylesheet11find_or_addINS_6borderESt6vectorIS3_SaIS3_EEEEmRT0_RKT_
FNDA:882,_ZN4xlnt6detail10stylesheet6formatEm
FNDA:511,_ZN4xlnt6detail10stylesheet19find_or_create_withEPNS0_11format_implERKNS_6borderENS_8optionalIbEE
FNDA:513,_ZN4xlnt6detail10stylesheet19find_or_create_withEPNS0_11format_implERKNS_4fillENS_8optionalIbEE
FNDA:1,_ZN4xlnt6detail10stylesheet11find_or_addINS_10protectionESt6vectorIS3_SaIS3_EEEEmRT0_RKT_
FNDA:1,_ZN4xlnt6detail10stylesheet19find_or_create_withEPNS0_11format_implERKNS_9alignmentENS_8optionalIbEE
FNDA:1,_ZN4xlnt6detail10stylesheet11find_or_addINS_9alignmentESt6vectorIS3_SaIS3_EEEEmRT0_RKT_
FNDA:193,_ZNK4xlnt6detail10stylesheet11style_indexERKNSt7__cxx1112basic_stringIcSt11char_traitsIcESaIcEEE
FNDA:787,_ZN4xlnt6detail10stylesheet11find_or_addINS_4fontESt6vectorIS3_SaIS3_EEEEmRT0_RKT_
FNF:29
FNH:29
DA:49,556
DA:51,556
DA:52,556
DA:54,556
DA:55,556
DA:57,556
DA:59,556
DA:62,882
DA:64,882
DA:65,882
DA:67,882
DA:70,893
DA:72,893
DA:74,893
DA:75,893
DA:77,893
DA:78,893
DA:79,893
DA:80,893
DA:82,893
DA:83,893
DA:86,251
DA:91,0
DA:92,0
DA:93,0
DA:94,0
DA:95,0
DA:96,0
DA:97,0
DA:98,0
DA:99,0
DA:100,0
DA:101,0
DA:102,0
DA:103,0
DA:104,0
DA:105,0
DA:106,0
DA:107,0
DA:108,0
DA:109,0
DA:110,0
DA:111,0
DA:112,0
DA:113,0
DA:114,0
DA:115,0
DA:116,0
DA:117,0
DA:118,0
DA:119,0
DA:120,0
DA:121,0
DA:122,0
DA:123,0
DA:124,0
DA:125,0
DA:126,0
DA:127,0
DA:128,0
DA:129,0
DA:130,0
DA:131,0
DA:132,0
DA:133,0
DA:134,0
DA:135,0
DA:136,0
DA:137,0
DA:138,0
DA:139,0
DA:140,0
DA:141,0
DA:142,0
DA:143,486
DA:145,251
DA:146,251
DA:148,251
DA:149,4
DA:151,266
DA:153,266
DA:154,265
DA:157,522
DA:159,522
DA:162,17
DA:164,17
DA:166,41
DA:168,24
DA:170,7
DA:174,17
DA:178,2328
DA:182,2328
DA:183,2328
DA:185,2302
DA:187,26
DA:188,26
DA:193,10305
DA:197,10305
DA:198,10305
DA:199,10305
DA:201,23666
DA:203,13361
DA:205,13361
DA:207,0
DA:208,0
DA:212,10305
DA:213,0
DA:215,2061
DA:217,2061
DA:219,2061
DA:220,12055
DA:222,9994
DA:224,9994
DA:226,7938
DA:230,2056
DA:234,2061
DA:236,2061
DA:237,2061
DA:238,2061
DA:239,2061
DA:240,2061
DA:241,2061
DA:243,2061
DA:244,2061
DA:246,9999
DA:248,7938
DA:250,7938
DA:252,0
DA:255,7938
DA:257,7898
DA:260,7938
DA:262,7651
DA:265,7938
DA:267,7171
DA:270,7938
DA:272,6639
DA:275,7938
DA:277,0
DA:281,9225
DA:283,7164
DA:285,7164
DA:287,0
DA:290,7164
DA:292,7164
DA:295,7164
DA:297,7164
DA:300,7164
DA:302,7164
DA:305,7164
DA:307,7164
DA:310,7164
DA:312,0
DA:316,2061
DA:317,2061
DA:318,2061
DA:319,2061
DA:320,2061
DA:322,9999
DA:324,7938
DA:326,0
DA:329,7938
DA:331,7898
DA:334,7938
DA:336,7651
DA:339,7938
DA:341,7171
DA:344,7938
DA:346,0
DA:350,9225
DA:352,7164
DA:354,7164
DA:356,0
DA:359,7164
DA:361,7164
DA:364,7164
DA:366,7164
DA:369,7164
DA:371,7164
DA:374,7164
DA:376,0
DA:379,2061
DA:381,2354
DA:383,2354
DA:384,2354
DA:385,2354
DA:386,10770
DA:388,8416
DA:389,8416
DA:391,2354
DA:393,1795
DA:395,2354
DA:397,2354
DA:398,2354
DA:399,2354
DA:401,2354
DA:403,2061
DA:404,2061
DA:405,2061
DA:406,2061
DA:409,2354
DA:412,261
DA:414,261
DA:415,261
DA:416,261
DA:418,0
DA:420,522
DA:421,261
DA:423,1
DA:425,1
DA:426,1
DA:427,1
DA:428,1
DA:430,1
DA:432,2
DA:433,1
DA:435,511
DA:437,511
DA:438,511
DA:439,511
DA:440,511
DA:442,259
DA:444,1022
DA:445,511
DA:447,513
DA:449,513
DA:450,513
DA:451,513
DA:452,513
DA:454,3
DA:456,1026
DA:457,513
DA:459,535
DA:461,535
DA:462,535
DA:463,535
DA:464,535
DA:466,24
DA:468,1070
DA:469,535
DA:471,532
DA:473,532
DA:474,532
DA:476,516
DA:480,16
DA:481,16
DA:483,13
DA:484,13
DA:485,13
DA:487,16
DA:489,532
DA:490,532
DA:492,18
DA:494,1064
DA:495,532
DA:497,1
DA:499,1
DA:500,1
DA:501,1
DA:502,1
DA:504,1
DA:506,2
DA:507,1
DA:509,193
DA:511,193
DA:512,193
DA:533,1
DA:535,1
DA:537,1
DA:538,1
DA:539,1
DA:540,1
DA:541,1
DA:542,1
DA:544,1
DA:549,8
DA:552,8
DA:553,8
DA:554,8
DA:555,8
DA:556,8
DA:557,8
DA:558,8
DA:559,8
DA:560,8
DA:561,8
DA:562,8
DA:563,8
DA:564,8
DA:565,16
LF:289
LH:225
end_of_record
TN:
SF:/root/project/source/detail/implementations/workbook_impl.hpp
FN:51,_ZN4xlnt6detail13workbook_implC2Ev
FN:72,_ZN4xlnt6detail13workbook_implaSERKS1_
FN:95,_ZNK4xlnt6detail13workbook_impleqERKS1_
FN:159,_ZN4xlnt6detail13workbook_impl14file_version_tC2Ev
FN:163,_ZNK4xlnt6detail13workbook_impl14file_version_teqERKS2_
FNDA:196,_ZN4xlnt6detail13workbook_implaSERKS1_
FNDA:14,_ZNK4xlnt6detail13workbook_impleqERKS1_
FNDA:327,_ZN4xlnt6detail13workbook_impl14file_version_tC2Ev
FNDA:445,_ZN4xlnt6detail13workbook_implC2Ev
FNDA:8,_ZNK4xlnt6detail13workbook_impl14file_version_teqERKS2_
FNF:5
FNH:5
DA:51,445
DA:53,445
DA:72,196
DA:74,196
DA:75,196
DA:76,196
DA:77,196
DA:78,196
DA:79,196
DA:80,196
DA:82,196
DA:83,196
DA:84,196
DA:85,196
DA:86,196
DA:88,196
DA:89,196
DA:90,196
DA:92,196
DA:95,14
DA:98,14
DA:99,14
DA:100,14
DA:101,14
DA:102,14
DA:103,14
DA:104,14
DA:105,14
DA:106,14
DA:107,14
DA:108,14
DA:109,14
DA:110,14
DA:111,14
DA:112,14
DA:113,14
DA:114,14
DA:115,14
DA:116,14
DA:117,14
DA:118,28
DA:159,327
DA:161,327
DA:163,8
DA:165,8
DA:166,8
DA:167,8
DA:168,16
LF:48
LH:48
end_of_record
TN:
SF:/root/project/source/detail/implementations/worksheet_impl.hpp
FN:55,_ZN4xlnt6detail14worksheet_implC2EPNS_8workbookEmRKNSt7__cxx1112basic_stringIcSt11char_traitsIcESaIcEEE
FN:62,_ZN4xlnt6detail14worksheet_implC2ERKS1_
FN:67,_ZN4xlnt6detail14worksheet_implaSERKS1_
FN:102,_ZNK4xlnt6detail14worksheet_impleqERKS1_
FNDA:16,_ZNK4xlnt6detail14worksheet_impleqERKS1_
FNDA:296,_ZN4xlnt6detail14worksheet_implaSERKS1_
FNDA:412,_ZN4xlnt6detail14worksheet_implC2EPNS_8workbookEmRKNSt7__cxx1112basic_stringIcSt11char_traitsIcESaIcEEE
FNDA:294,_ZN4xlnt6detail14worksheet_implC2ERKS1_
FNF:4
FNH:4
DA:55,412
DA:56,412
DA:57,412
DA:58,412
DA:60,412
DA:62,294
DA:63,294
DA:64,294
DA:65,294
DA:67,296
DA:69,296
DA:71,296
DA:72,296
DA:73,296
DA:74,296
DA:75,296
DA:76,296
DA:77,296
DA:78,296
DA:79,296
DA:80,296
DA:81,296
DA:82,296
DA:83,296
DA:84,296
DA:85,296
DA:86,296
DA:87,296
DA:88,296
DA:89,296
DA:90,296
DA:91,296
DA:92,296
DA:94,301
DA:96,5
DA:98,296
DA:102,16
DA:105,16
DA:106,16
DA:107,16
DA:108,16
DA:109,15
DA:110,15
DA:111,15
DA:112,15
DA:113,15
DA:114,15
DA:115,15
DA:116,15
DA:117,15
DA:118,15
DA:119,15
DA:120,15
DA:121,15
DA:122,15
DA:123,15
DA:124,15
DA:125,32
LF:58
LH:58
end_of_record
TN:
SF:/root/project/source/detail/limits.hpp
FN:39,_ZN4xlnt6detail21clip_reserve_elementsEm
FNDA:521,_ZN4xlnt6detail21clip_reserve_elementsEm
FNF:1
FNH:1
DA:39,521
DA:41,521
LF:2
LH:2
end_of_record
TN:
SF:/root/project/source/detail/number_format/number_formatter.cpp
FN:41,_ZN12_GLOBAL__N_113known_localesEv
FN:482,_ZN12_GLOBAL__N_120unhandled_case_errorEv
FN:487,_ZN12_GLOBAL__N_114unhandled_caseEb
FN:500,_ZNK4xlnt6detail16format_condition12satisfied_byEd
FN:521,_ZN4xlnt6detail20number_format_parserC2ERKNSt7__cxx1112basic_stringIcSt11char_traitsIcESaIcEEE
FN:526,_ZNK4xlnt6detail20number_format_parser6resultEv
FN:531,_ZN4xlnt6detail20number_format_parser5resetERKNSt7__cxx1112basic_stringIcSt11char_traitsIcESaIcEEE
FN:538,_ZN4xlnt6detail20number_format_parser5parseEv
FN:841,_ZN4xlnt6detail20number_format_parser8finalizeEv
FN:1013,_ZN4xlnt6detail20number_format_parser16parse_next_tokenEv
FN:1017,_ZZN4xlnt6detail20number_format_parser16parse_next_tokenEvENKUlcE_clEc
FN:1260,_ZN4xlnt6detail20number_format_parser8validateEv
FN:1276,_ZN4xlnt6detail20number_format_parser18parse_placeholdersERKNSt7__cxx1112basic_stringIcSt11char_traitsIcESaIcEEE
FN:1351,_ZN4xlnt6detail20number_format_parser17color_from_stringERKNSt7__cxx1112basic_stringIcSt11char_traitsIcESaIcEEE
FN:1437,_ZN4xlnt6detail20number_format_parser18locale_from_stringERKNSt7__cxx1112basic_stringIcSt11char_traitsIcESaIcEEE
FN:1487,_ZN4xlnt6detail16number_formatterC2ERKNSt7__cxx1112basic_stringIcSt11char_traitsIcESaIcEEENS_8calendarE
FN:1494,_ZN4xlnt6detail16number_formatter13format_numberB5cxx11Ed
FN:1558,_ZN4xlnt6detail16number_formatter11format_textERKNSt7__cxx1112basic_stringIcSt11char_traitsIcESaIcEEE
FN:1573,_ZN4xlnt6detail16number_formatter17fill_placeholdersB5cxx11ERKNS0_19format_placeholdersEd
FN:1661,_ZN4xlnt6detail16number_formatter28fill_scientific_placeholdersB5cxx11ERKNS0_19format_placeholdersES4_S4_d
FN:1707,_ZN4xlnt6detail16number_formatter26fill_fraction_placeholdersB5cxx11ERKNS0_19format_placeholdersES4_db
FN:1746,_ZN4xlnt6detail16number_formatter13format_numberB5cxx11ERKNS0_11format_codeEd
FN:2067,_ZN4xlnt6detail16number_formatter11format_textERKNS0_11format_codeERKNSt7__cxx1112basic_stringIcSt11char_traitsIcESaIcEEE
FNDA:285,_ZN4xlnt6detail20number_format_parser8validateEv
FNDA:356,_ZN4xlnt6detail20number_format_parser18parse_placeholdersERKNSt7__cxx1112basic_stringIcSt11char_traitsIcESaIcEEE
FNDA:8,_ZN12_GLOBAL__N_120unhandled_case_errorEv
FNDA:84,_ZN4xlnt6detail16number_formatter11format_textERKNS0_11format_codeERKNSt7__cxx1112basic_stringIcSt11char_traitsIcESaIcEEE
FNDA:7,_ZN4xlnt6detail16number_formatter28fill_scientific_placeholdersB5cxx11ERKNS0_19format_placeholdersES4_S4_d
FNDA:8,_ZN12_GLOBAL__N_114unhandled_caseEb
FNDA:130,_ZN4xlnt6detail16number_formatter17fill_placeholdersB5cxx11ERKNS0_19format_placeholdersEd
FNDA:307,_ZN4xlnt6detail20number_format_parserC2ERKNSt7__cxx1112basic_stringIcSt11char_traitsIcESaIcEEE
FNDA:4,_ZN12_GLOBAL__N_113known_localesEv
FNDA:285,_ZN4xlnt6detail20number_format_parser8finalizeEv
FNDA:84,_ZN4xlnt6detail16number_formatter11format_textERKNSt7__cxx1112basic_stringIcSt11char_traitsIcESaIcEEE
FNDA:307,_ZN4xlnt6detail20number_format_parser5resetERKNSt7__cxx1112basic_stringIcSt11char_traitsIcESaIcEEE
FNDA:7,_ZN4xlnt6detail20number_format_parser18locale_from_stringERKNSt7__cxx1112basic_stringIcSt11char_traitsIcESaIcEEE
FNDA:283,_ZNK4xlnt6detail20number_format_parser6resultEv
FNDA:4,_ZN4xlnt6detail16number_formatter26fill_fraction_placeholdersB5cxx11ERKNS0_19format_placeholdersES4_db
FNDA:195,_ZN4xlnt6detail16number_formatter13format_numberB5cxx11Ed
FNDA:193,_ZN4xlnt6detail16number_formatter13format_numberB5cxx11ERKNS0_11format_codeEd
FNDA:1429,_ZN4xlnt6detail20number_format_parser16parse_next_tokenEv
FNDA:303,_ZN4xlnt6detail16number_formatterC2ERKNSt7__cxx1112basic_stringIcSt11char_traitsIcESaIcEEENS_8calendarE
FNDA:307,_ZN4xlnt6detail20number_format_parser5parseEv
FNDA:443,_ZZN4xlnt6detail20number_format_parser16parse_next_tokenEvENKUlcE_clEc
FNDA:48,_ZN4xlnt6detail20number_format_parser17color_from_stringERKNSt7__cxx1112basic_stringIcSt11char_traitsIcESaIcEEE
FNDA:48,_ZNK4xlnt6detail16format_condition12satisfied_byEd
FNF:23
FNH:23
DA:41,4
DA:45,0
DA:46,0
DA:47,0
DA:48,0
DA:49,0
DA:50,0
DA:51,0
DA:52,0
DA:53,0
DA:54,0
DA:55,0
DA:56,0
DA:57,0
DA:58,0
DA:59,0
DA:60,0
DA:61,0
DA:62,0
DA:63,0
DA:64,0
DA:65,0
DA:66,0
DA:67,0
DA:68,0
DA:69,0
DA:70,0
DA:71,0
DA:72,0
DA:73,0
DA:74,0
DA:75,0
DA:76,0
DA:77,0
DA:78,0
DA:79,0
DA:80,0
DA:81,0
DA:82,0
DA:83,0
DA:84,0
DA:85,0
DA:86,0
DA:87,0
DA:88,0
DA:89,0
DA:90,0
DA:91,0
DA:92,0
DA:93,0
DA:94,0
DA:95,0
DA:96,0
DA:97,0
DA:98,0
DA:99,0
DA:100,0
DA:101,0
DA:102,0
DA:103,0
DA:104,0
DA:105,0
DA:106,0
DA:107,0
DA:108,0
DA:109,0
DA:110,0
DA:111,0
DA:112,0
DA:113,0
DA:114,0
DA:115,0
DA:116,0
DA:117,0
DA:118,0
DA:119,0
DA:120,0
DA:121,0
DA:122,0
DA:123,0
DA:124,0
DA:125,0
DA:126,0
DA:127,0
DA:128,0
DA:129,0
DA:130,0
DA:131,0
DA:132,0
DA:133,0
DA:134,0
DA:135,0
DA:136,0
DA:137,0
DA:138,0
DA:139,0
DA:140,0
DA:141,0
DA:142,0
DA:143,0
DA:144,0
DA:145,0
DA:146,0
DA:147,0
DA:148,0
DA:149,0
DA:150,0
DA:151,0
DA:152,0
DA:153,0
DA:154,0
DA:155,0
DA:156,0
DA:157,0
DA:158,0
DA:159,0
DA:160,0
DA:161,0
DA:162,0
DA:163,0
DA:164,0
DA:165,0
DA:166,0
DA:167,0
DA:168,0
DA:169,0
DA:170,0
DA:171,0
DA:172,0
DA:477,438
DA:479,4
DA:480,2
DA:482,8
DA:484,24
DA:487,8
DA:489,8
DA:491,8
DA:493,0
DA:500,48
DA:502,48
DA:504,11
DA:505,11
DA:506,9
DA:507,9
DA:508,11
DA:509,11
DA:510,7
DA:511,7
DA:512,3
DA:513,3
DA:514,7
DA:515,7
DA:518,0
DA:521,307
DA:523,307
DA:524,307
DA:526,283
DA:528,283
DA:531,307
DA:533,307
DA:534,307
DA:535,307
DA:536,307
DA:538,307
DA:540,307
DA:541,297
DA:542,297
DA:546,1419
DA:548,92
DA:549,92
DA:550,92
DA:552,92
DA:555,23
DA:556,23
DA:558,3
DA:561,22
DA:562,22
DA:564,22
DA:567,8
DA:568,8
DA:570,3
DA:573,7
DA:574,7
DA:575,3
DA:577,3
DA:579,2
DA:580,2
DA:581,2
DA:582,2
DA:585,3
DA:586,3
DA:588,62
DA:589,62
DA:591,3
DA:594,61
DA:595,61
DA:597,61
DA:599,26
DA:601,14
DA:602,14
DA:604,12
DA:606,4
DA:607,4
DA:611,8
DA:612,8
DA:615,35
DA:617,24
DA:619,13
DA:620,13
DA:624,11
DA:625,11
DA:628,11
DA:630,11
DA:631,11
DA:634,61
DA:635,61
DA:636,61
DA:638,324
DA:639,324
DA:640,324
DA:641,324
DA:642,324
DA:644,324
DA:647,3
DA:648,3
DA:649,3
DA:650,3
DA:651,3
DA:653,3
DA:656,2
DA:657,2
DA:658,2
DA:659,2
DA:660,2
DA:662,2
DA:665,356
DA:666,356
DA:667,356
DA:668,356
DA:669,356
DA:671,356
DA:674,264
DA:675,264
DA:677,264
DA:679,7
DA:680,7
DA:682,7
DA:684,5
DA:685,5
DA:687,2
DA:689,1
DA:690,1
DA:692,1
DA:694,1
DA:695,1
DA:698,0
DA:699,0
DA:701,95
DA:702,95
DA:704,27
DA:705,27
DA:707,68
DA:709,52
DA:710,52
DA:712,16
DA:714,13
DA:715,13
DA:717,3
DA:719,1
DA:720,1
DA:722,2
DA:724,1
DA:725,1
DA:728,1
DA:729,0
DA:731,42
DA:732,42
DA:734,25
DA:735,25
DA:737,17
DA:739,14
DA:740,14
DA:742,3
DA:744,1
DA:745,1
DA:747,2
DA:749,1
DA:750,1
DA:753,1
DA:754,0
DA:756,39
DA:757,39
DA:759,34
DA:760,34
DA:762,5
DA:764,4
DA:765,4
DA:768,1
DA:769,0
DA:771,35
DA:772,35
DA:774,30
DA:775,30
DA:777,5
DA:779,4
DA:780,4
DA:783,1
DA:784,0
DA:786,33
DA:787,33
DA:789,2
DA:790,2
DA:792,31
DA:794,30
DA:795,30
DA:798,1
DA:799,0
DA:801,13
DA:802,13
DA:804,13
DA:806,11
DA:807,11
DA:809,2
DA:811,2
DA:812,2
DA:815,0
DA:816,0
DA:818,0
DA:819,0
DA:820,0
DA:823,259
DA:824,259
DA:826,259
DA:829,285
DA:830,285
DA:831,285
DA:833,566
DA:837,1122
DA:838,1122
DA:839,325
DA:841,285
DA:843,662
DA:845,377
DA:846,377
DA:847,377
DA:849,377
DA:850,377
DA:851,377
DA:853,377
DA:855,377
DA:856,377
DA:858,377
DA:859,377
DA:860,377
DA:862,377
DA:863,377
DA:864,377
DA:866,1323
DA:868,946
DA:870,569
DA:871,173
DA:872,30
DA:873,1515
DA:875,8
DA:876,8
DA:877,8
DA:880,946
DA:882,119
DA:883,119
DA:885,827
DA:887,48
DA:889,779
DA:890,771
DA:892,9
DA:893,9
DA:896,946
DA:898,8
DA:901,946
DA:902,944
DA:904,32
DA:905,32
DA:908,946
DA:910,6
DA:914,946
DA:915,919
DA:917,79
DA:919,62
DA:920,62
DA:922,124
DA:923,62
DA:924,149
DA:925,25
DA:926,24
DA:928,29
DA:929,29
DA:930,29
DA:934,79
DA:936,34
DA:937,34
DA:939,34
DA:940,82
DA:941,14
DA:943,14
DA:944,14
DA:945,14
DA:951,377
DA:953,43
DA:954,43
DA:957,377
DA:959,52
DA:962,377
DA:964,4
DA:967,377
DA:969,9
DA:970,9
DA:971,9
DA:972,9
DA:973,9
DA:975,36
DA:977,27
DA:981,377
DA:983,8
DA:985,8
DA:988,48
DA:990,40
DA:992,8
DA:997,377
DA:999,6
DA:1001,1
DA:1005,5
DA:1010,285
DA:1011,283
DA:1013,1429
DA:1015,1429
DA:1017,443
DA:1018,443
DA:1021,1429
DA:1023,285
DA:1024,285
DA:1027,1144
DA:1029,1144
DA:1031,105
DA:1032,105
DA:1034,3
DA:1037,104
DA:1039,3
DA:1044,312
DA:1045,312
DA:1047,103
DA:1049,62
DA:1051,41
DA:1053,8
DA:1055,33
DA:1056,35
DA:1057,2
DA:1059,7
DA:1060,7
DA:1064,26
DA:1065,26
DA:1068,100
DA:1070,100
DA:1072,2
DA:1073,2
DA:1074,2
DA:1076,2
DA:1078,176
DA:1079,176
DA:1081,3
DA:1084,175
DA:1085,175
DA:1086,175
DA:1088,175
DA:1090,2
DA:1091,2
DA:1092,2
DA:1094,2
DA:1096,3
DA:1097,3
DA:1098,3
DA:1100,3
DA:1102,167
DA:1106,167
DA:1110,445
DA:1111,445
DA:1112,445
DA:1114,167
DA:1116,167
DA:1118,8
DA:1119,8
DA:1122,167
DA:1124,244
DA:1134,244
DA:1135,244
DA:1137,443
DA:1139,199
DA:1140,199
DA:1143,244
DA:1145,15
DA:1146,15
DA:1148,15
DA:1150,11
DA:1151,11
DA:1153,4
DA:1155,2
DA:1156,2
DA:1160,6
DA:1163,13
DA:1165,108
DA:1166,108
DA:1167,108
DA:1168,108
DA:1170,109
DA:1172,1
DA:1173,1
DA:1174,1
DA:1175,1
DA:1176,1
DA:1179,108
DA:1181,107
DA:1184,108
DA:1186,108
DA:1189,92
DA:1190,92
DA:1191,92
DA:1193,16
DA:1194,16
DA:1195,16
DA:1197,16
DA:1199,16
DA:1200,16
DA:1201,16
DA:1203,16
DA:1205,52
DA:1206,52
DA:1207,52
DA:1209,52
DA:1211,0
DA:1212,0
DA:1213,0
DA:1215,0
DA:1217,61
DA:1218,61
DA:1219,61
DA:1221,61
DA:1223,39
DA:1224,39
DA:1225,39
DA:1227,39
DA:1229,30
DA:1230,30
DA:1231,30
DA:1233,30
DA:1235,5
DA:1236,5
DA:1237,5
DA:1238,5
DA:1240,9
DA:1241,9
DA:1242,9
DA:1243,9
DA:1245,9
DA:1247,9
DA:1248,9
DA:1251,0
DA:1253,2
DA:1254,6
DA:1257,1134
DA:1258,10
DA:1260,285
DA:1262,285
DA:1264,3
DA:1267,284
DA:1269,32
DA:1271,3
DA:1274,283
DA:1276,356
DA:1278,356
DA:1280,356
DA:1282,175
DA:1283,175
DA:1285,181
DA:1287,5
DA:1288,5
DA:1290,176
DA:1292,48
DA:1294,128
DA:1296,9
DA:1298,9
DA:1302,119
DA:1305,167
DA:1307,8
DA:1310,167
DA:1312,620
DA:1314,453
DA:1316,453
DA:1318,171
DA:1320,282
DA:1322,153
DA:1324,129
DA:1326,30
DA:1328,99
DA:1330,43
DA:1334,167
DA:1336,43
DA:1338,44
DA:1340,1
DA:1341,1
DA:1342,1
DA:1345,43
DA:1348,167
DA:1349,167
DA:1351,48
DA:1353,48
DA:1355,4
DA:1356,4
DA:1358,2
DA:1360,2
DA:1362,2
DA:1363,2
DA:1365,2
DA:1369,0
DA:1370,0
DA:1372,6
DA:1373,6
DA:1375,4
DA:1377,2
DA:1379,2
DA:1382,0
DA:1383,0
DA:1385,9
DA:1386,9
DA:1388,9
DA:1391,0
DA:1392,0
DA:1394,2
DA:1395,2
DA:1397,2
DA:1400,0
DA:1401,0
DA:1403,2
DA:1404,2
DA:1406,2
DA:1409,0
DA:1410,0
DA:1412,2
DA:1413,2
DA:1415,2
DA:1418,0
DA:1419,0
DA:1421,21
DA:1422,21
DA:1424,20
DA:1427,1
DA:1428,0
DA:1430,2
DA:1431,2
DA:1434,0
DA:1437,7
DA:1439,7
DA:1441,7
DA:1443,1
DA:1446,6
DA:1448,6
DA:1450,2
DA:1453,6
DA:1455,6
DA:1457,1
DA:1460,19
DA:1462,15
DA:1464,1
DA:1468,4
DA:1469,4
DA:1471,0
DA:1473,4
DA:1475,1196
DA:1477,1195
DA:1479,3
DA:1480,6
DA:1482,4
DA:1484,1
DA:1485,9
DA:1487,303
DA:1488,303
DA:1490,303
DA:1491,279
DA:1492,327
DA:1494,195
DA:1496,195
DA:1498,29
DA:1500,9
DA:1503,20
DA:1505,2
DA:1508,19
DA:1510,9
DA:1513,10
DA:1515,2
DA:1518,9
DA:1524,166
DA:1526,149
DA:1529,17
DA:1531,14
DA:1533,9
DA:1537,5
DA:1543,3
DA:1545,1
DA:1547,2
DA:1549,1
DA:1553,1
DA:1558,84
DA:1560,84
DA:1562,81
DA:1563,81
DA:1564,81
DA:1565,81
DA:1566,81
DA:1567,81
DA:1568,81
DA:1570,3
DA:1573,130
DA:1575,130
DA:1577,130
DA:1578,84
DA:1580,49
DA:1583,81
DA:1585,9
DA:1588,81
DA:1590,1
DA:1593,81
DA:1595,81
DA:1596,50
DA:1597,30
DA:1600,57
DA:1602,57
DA:1605,1
DA:1608,57
DA:1610,20
DA:1611,20
DA:1613,96
DA:1615,76
DA:1617,76
DA:1619,14
DA:1623,20
DA:1624,20
DA:1626,57
DA:1628,3
DA:1630,57
DA:1631,24
DA:1633,24
DA:1636,24
DA:1637,24
DA:1640,26
DA:1642,2
DA:1646,24
DA:1649,2
DA:1652,24
DA:1654,3
DA:1658,81
DA:1659,130
DA:1661,7
DA:1664,7
DA:1666,7
DA:1668,5
DA:1670,5
DA:1672,2
DA:1676,7
DA:1678,7
DA:1679,7
DA:1682,7
DA:1684,7
DA:1686,2
DA:1688,7
DA:1691,7
DA:1692,7
DA:1693,7
DA:1695,7
DA:1697,6
DA:1701,1
DA:1704,14
DA:1705,7
DA:1707,4
DA:1710,4
DA:1711,4
DA:1712,4
DA:1714,16
DA:1715,16
DA:1717,12
DA:1720,4
DA:1721,4
DA:1724,4
DA:1725,4
DA:1726,4
DA:1727,4
DA:1729,202
DA:1731,198
DA:1732,198
DA:1733,198
DA:1735,198
DA:1737,30
DA:1738,30
DA:1742,4
DA:1743,4
DA:1746,193
DA:1749,245
DA:1752,225
DA:1754,193
DA:1756,193
DA:1758,33
DA:1760,33
DA:1762,34
DA:1766,176
DA:1768,176
DA:1769,176
DA:1771,176
DA:1773,62
DA:1775,45
DA:1778,62
DA:1780,62
DA:1782,9
DA:1784,9
DA:1786,2
DA:1791,176
DA:1792,176
DA:1793,176
DA:1794,176
DA:1796,617
DA:1798,441
DA:1800,441
DA:1802,2
DA:1803,2
DA:1804,2
DA:1807,145
DA:1808,145
DA:1809,145
DA:1812,3
DA:1813,3
DA:1814,3
DA:1815,3
DA:1816,3
DA:1819,143
DA:1820,143
DA:1821,24
DA:1823,4
DA:1824,4
DA:1825,4
DA:1826,4
DA:1827,4
DA:1828,4
DA:1829,4
DA:1832,139
DA:1834,6
DA:1837,139
DA:1839,6
DA:1841,6
DA:1843,2
DA:1844,2
DA:1847,4
DA:1848,4
DA:1850,133
DA:1851,7
DA:1853,7
DA:1854,7
DA:1855,7
DA:1856,7
DA:1857,7
DA:1858,7
DA:1861,126
DA:1864,137
DA:1867,13
DA:1868,13
DA:1869,13
DA:1872,8
DA:1873,8
DA:1875,3
DA:1878,8
DA:1879,8
DA:1882,7
DA:1883,7
DA:1884,7
DA:1887,1
DA:1888,1
DA:1889,1
DA:1892,11
DA:1893,11
DA:1894,11
DA:1897,7
DA:1898,7
DA:1900,7
DA:1903,7
DA:1904,7
DA:1907,18
DA:1908,18
DA:1910,8
DA:1913,18
DA:1914,18
DA:1917,2
DA:1918,2
DA:1919,2
DA:1922,18
DA:1923,18
DA:1924,18
DA:1927,4
DA:1928,4
DA:1930,3
DA:1933,4
DA:1934,4
DA:1937,4
DA:1938,4
DA:1939,4
DA:1942,20
DA:1943,20
DA:1945,9
DA:1948,20
DA:1949,20
DA:1952,1
DA:1953,1
DA:1954,1
DA:1957,1
DA:1958,1
DA:1959,1
DA:1962,14
DA:1963,14
DA:1965,7
DA:1968,14
DA:1969,14
DA:1972,3
DA:1973,3
DA:1975,2
DA:1978,3
DA:1979,3
DA:1982,7
DA:1983,7
DA:1985,5
DA:1989,2
DA:1992,7
DA:1995,2
DA:1996,2
DA:1998,1
DA:2002,1
DA:2005,2
DA:2008,2
DA:2009,2
DA:2010,2
DA:2013,1
DA:2014,1
DA:2015,1
DA:2016,1
DA:2019,1
DA:2020,1
DA:2021,1
DA:2022,1
DA:2025,1
DA:2026,1
DA:2027,1
DA:2030,1
DA:2031,1
DA:2033,1
DA:2035,1
DA:2037,1
DA:2040,1
DA:2041,1
DA:2043,1
DA:2045,1
DA:2047,1
DA:2052,176
DA:2054,176
DA:2056,3
DA:2058,3
DA:2061,3
DA:2062,3
DA:2064,176
DA:2065,193
DA:2067,84
DA:2069,84
DA:2070,84
DA:2072,171
DA:2074,87
DA:2076,3
DA:2077,3
DA:2079,84
DA:2081,82
DA:2082,1
DA:2084,82
DA:2085,82
DA:2090,84
DA:2092,1
DA:2095,83
DA:2096,84
LF:987
LH:825
end_of_record
TN:
SF:/root/project/source/detail/serialization/custom_value_traits.cpp
FN:33,_ZN4xlnt6detail9to_stringB5cxx11ENS_4font15underline_styleE
FN:55,_ZN4xlnt6detail9to_stringB5cxx11ENS_17relationship_typeE
FN:134,_ZN4xlnt6detail9to_stringB5cxx11ENS_17pattern_fill_typeE
FN:181,_ZN4xlnt6detail9to_stringB5cxx11ENS_18gradient_fill_typeE
FN:194,_ZN4xlnt6detail9to_stringB5cxx11ENS_12border_styleE
FN:231,_ZN4xlnt6detail9to_stringB5cxx11ENS_18vertical_alignmentE
FN:250,_ZN4xlnt6detail9to_stringB5cxx11ENS_20horizontal_alignmentE
FN:275,_ZN4xlnt6detail9to_stringB5cxx11ENS_11border_sideE
FN:298,_ZN4xlnt6detail9to_stringB5cxx11ENS_13core_propertyE
FN:337,_ZN4xlnt6detail9to_stringB5cxx11ENS_17extended_propertyE
FN:400,_ZN4xlnt6detail9to_stringB5cxx11ENS_7variant4typeE
FN:421,_ZN4xlnt6detail9to_stringB5cxx11ENS_11pane_cornerE
FN:438,_ZN4xlnt6detail9to_stringB5cxx11ENS_11target_modeE
FN:451,_ZN4xlnt6detail9to_stringB5cxx11ENS_10pane_stateE
FN:466,_ZN4xlnt6detail9to_stringB5cxx11ENS_11orientationE
FNDA:74,_ZN4xlnt6detail9to_stringB5cxx11ENS_18vertical_alignmentE
FNDA:227,_ZN4xlnt6detail9to_stringB5cxx11ENS_17pattern_fill_typeE
FNDA:0,_ZN4xlnt6detail9to_stringB5cxx11ENS_18gradient_fill_typeE
FNDA:20,_ZN4xlnt6detail9to_stringB5cxx11ENS_4font15underline_styleE
FNDA:392,_ZN4xlnt6detail9to_stringB5cxx11ENS_17relationship_typeE
FNDA:24,_ZN4xlnt6detail9to_stringB5cxx11ENS_20horizontal_alignmentE
FNDA:44,_ZN4xlnt6detail9to_stringB5cxx11ENS_7variant4typeE
FNDA:10,_ZN4xlnt6detail9to_stringB5cxx11ENS_11pane_cornerE
FNDA:202,_ZN4xlnt6detail9to_stringB5cxx11ENS_13core_propertyE
FNDA:8,_ZN4xlnt6detail9to_stringB5cxx11ENS_11orientationE
FNDA:0,_ZN4xlnt6detail9to_stringB5cxx11ENS_11target_modeE
FNDA:116,_ZN4xlnt6detail9to_stringB5cxx11ENS_12border_styleE
FNDA:3,_ZN4xlnt6detail9to_stringB5cxx11ENS_10pane_stateE
FNDA:435,_ZN4xlnt6detail9to_stringB5cxx11ENS_11border_sideE
FNDA:445,_ZN4xlnt6detail9to_stringB5cxx11ENS_17extended_propertyE
FNF:15
FNH:13
DA:33,20
DA:35,20
DA:37,4
DA:38,8
DA:39,12
DA:40,24
DA:41,0
DA:42,0
DA:43,4
DA:44,8
DA:45,0
DA:46,0
DA:49,0
DA:55,392
DA:57,392
DA:59,47
DA:60,94
DA:61,32
DA:62,64
DA:63,6
DA:64,12
DA:65,44
DA:66,88
DA:67,44
DA:68,88
DA:69,56
DA:70,112
DA:71,33
DA:72,66
DA:73,45
DA:74,90
DA:75,44
DA:76,88
DA:77,16
DA:78,32
DA:79,0
DA:80,0
DA:81,8
DA:82,16
DA:83,8
DA:84,16
DA:85,3
DA:86,6
DA:87,1
DA:88,2
DA:89,0
DA:90,0
DA:91,0
DA:92,0
DA:93,0
DA:94,0
DA:95,0
DA:96,0
DA:97,2
DA:98,4
DA:99,0
DA:100,0
DA:101,0
DA:102,0
DA:103,0
DA:104,0
DA:105,0
DA:106,0
DA:107,0
DA:108,0
DA:109,0
DA:110,0
DA:111,0
DA:112,0
DA:113,0
DA:114,0
DA:115,0
DA:116,0
DA:117,0
DA:118,0
DA:119,0
DA:120,0
DA:121,0
DA:122,0
DA:123,1
DA:124,2
DA:125,2
DA:126,4
DA:127,0
DA:128,0
DA:131,0
DA:134,227
DA:136,227
DA:138,0
DA:139,0
DA:140,0
DA:141,0
DA:142,0
DA:143,0
DA:144,0
DA:145,0
DA:146,0
DA:147,0
DA:148,0
DA:149,0
DA:150,0
DA:151,0
DA:152,0
DA:153,0
DA:154,44
DA:155,88
DA:156,0
DA:157,0
DA:158,1
DA:159,2
DA:160,0
DA:161,0
DA:162,0
DA:163,0
DA:164,0
DA:165,0
DA:166,0
DA:167,0
DA:168,0
DA:169,0
DA:170,0
DA:171,0
DA:172,137
DA:173,274
DA:174,45
DA:175,90
DA:178,0
DA:181,0
DA:183,0
DA:185,0
DA:186,0
DA:187,0
DA:188,0
DA:191,0
DA:194,116
DA:196,116
DA:198,0
DA:199,0
DA:200,0
DA:201,0
DA:202,0
DA:203,0
DA:204,0
DA:205,0
DA:206,24
DA:207,48
DA:208,0
DA:209,0
DA:210,4
DA:211,8
DA:212,0
DA:213,0
DA:214,0
DA:215,0
DA:216,0
DA:217,0
DA:218,0
DA:219,0
DA:220,8
DA:221,16
DA:222,80
DA:223,160
DA:224,0
DA:225,0
DA:228,0
DA:231,74
DA:233,74
DA:235,15
DA:236,30
DA:237,52
DA:238,104
DA:239,3
DA:240,6
DA:241,0
DA:242,0
DA:243,4
DA:244,8
DA:247,0
DA:250,24
DA:252,24
DA:254,2
DA:255,4
DA:256,13
DA:257,26
DA:258,5
DA:259,10
DA:260,4
DA:261,8
DA:262,0
DA:263,0
DA:264,0
DA:265,0
DA:266,0
DA:267,0
DA:268,0
DA:269,0
DA:272,0
DA:275,435
DA:277,435
DA:279,87
DA:280,174
DA:281,87
DA:282,174
DA:283,87
DA:284,174
DA:285,87
DA:286,174
DA:287,0
DA:288,0
DA:289,0
DA:290,0
DA:291,87
DA:292,174
DA:295,0
DA:298,202
DA:300,202
DA:302,5
DA:303,10
DA:304,1
DA:305,2
DA:306,39
DA:307,78
DA:308,41
DA:309,82
DA:310,6
DA:311,12
DA:312,1
DA:313,2
DA:314,5
DA:315,10
DA:316,2
DA:317,4
DA:318,43
DA:319,86
DA:320,1
DA:321,2
DA:322,43
DA:323,86
DA:324,2
DA:325,4
DA:326,6
DA:327,12
DA:328,6
DA:329,12
DA:330,1
DA:331,2
DA:334,0
DA:337,445
DA:339,445
DA:341,43
DA:342,86
DA:343,42
DA:344,84
DA:345,1
DA:346,2
DA:347,1
DA:348,2
DA:349,39
DA:350,78
DA:351,1
DA:352,2
DA:353,42
DA:354,84
DA:355,42
DA:356,84
DA:357,1
DA:358,2
DA:359,42
DA:360,84
DA:361,5
DA:362,10
DA:363,1
DA:364,2
DA:365,1
DA:366,2
DA:367,42
DA:368,84
DA:369,5
DA:370,10
DA:371,1
DA:372,2
DA:373,1
DA:374,2
DA:375,1
DA:376,2
DA:377,1
DA:378,2
DA:379,1
DA:380,2
DA:381,42
DA:382,84
DA:383,42
DA:384,84
DA:385,1
DA:386,2
DA:387,2
DA:388,4
DA:389,42
DA:390,84
DA:391,2
DA:392,4
DA:393,1
DA:394,2
DA:397,0
DA:400,44
DA:402,44
DA:404,0
DA:405,0
DA:406,0
DA:407,0
DA:408,1
DA:409,2
DA:410,43
DA:411,86
DA:412,0
DA:413,0
DA:414,0
DA:415,0
DA:418,0
DA:421,10
DA:423,10
DA:425,2
DA:426,4
DA:427,6
DA:428,12
DA:429,0
DA:430,0
DA:431,2
DA:432,4
DA:435,0
DA:438,0
DA:440,0
DA:442,0
DA:443,0
DA:444,0
DA:445,0
DA:448,0
DA:451,3
DA:453,3
DA:455,3
DA:456,6
DA:457,0
DA:458,0
DA:459,0
DA:460,0
DA:463,0
DA:466,8
DA:468,8
DA:470,0
DA:471,0
DA:472,0
DA:473,0
DA:474,8
DA:475,16
DA:477,0
LF:355
LH:206
end_of_record
TN:
SF:/root/project/source/detail/serialization/custom_value_traits.hpp
FN:87,_ZN4xlnt6detailL11from_stringINS_4font15underline_styleEEET_RKNSt7__cxx1112basic_stringIcSt11char_traitsIcESaIcEEE
FN:99,_ZN4xlnt6detailL11from_stringINS_17relationship_typeEEET_RKNSt7__cxx1112basic_stringIcSt11char_traitsIcESaIcEEE
FN:177,_ZN4xlnt6detailL11from_stringINS_17pattern_fill_typeEEET_RKNSt7__cxx1112basic_stringIcSt11char_traitsIcESaIcEEE
FN:204,_ZZN4xlnt6detailL11from_stringINS_17pattern_fill_typeEEET_RKNSt7__cxx1112basic_stringIcSt11char_traitsIcESaIcEEEENKUlS9_E_clES9_
FN:208,_ZZZN4xlnt6detailL11from_stringINS_17pattern_fill_typeEEET_RKNSt7__cxx1112basic_stringIcSt11char_traitsIcESaIcEEEENKUlS9_E_clES9_ENKUlcE_clEc
FN:216,_ZZN4xlnt6detailL11from_stringINS_17pattern_fill_typeEEET_RKNSt7__cxx1112basic_stringIcSt11char_traitsIcESaIcEEEENKUlSB_E_clESB_
FN:233,_ZN4xlnt6detailL11from_stringINS_18gradient_fill_typeEEET_RKNSt7__cxx1112basic_stringIcSt11char_traitsIcESaIcEEE
FN:242,_ZN4xlnt6detailL11from_stringINS_12border_styleEEET_RKNSt7__cxx1112basic_stringIcSt11char_traitsIcESaIcEEE
FN:263,_ZN4xlnt6detailL11from_stringINS_18vertical_alignmentEEET_RKNSt7__cxx1112basic_stringIcSt11char_traitsIcESaIcEEE
FN:275,_ZN4xlnt6detailL11from_stringINS_20horizontal_alignmentEEET_RKNSt7__cxx1112basic_stringIcSt11char_traitsIcESaIcEEE
FN:289,_ZN4xlnt6detailL11from_stringINS_11border_sideEEET_RKNSt7__cxx1112basic_stringIcSt11char_traitsIcESaIcEEE
FN:303,_ZN4xlnt6detailL11from_stringINS_13core_propertyEEET_RKNSt7__cxx1112basic_stringIcSt11char_traitsIcESaIcEEE
FN:325,_ZN4xlnt6detailL11from_stringINS_17extended_propertyEEET_RKNSt7__cxx1112basic_stringIcSt11char_traitsIcESaIcEEE
FN:374,_ZN4xlnt6detailL11from_stringINS_10pane_stateEEET_RKNSt7__cxx1112basic_stringIcSt11char_traitsIcESaIcEEE
FN:384,_ZN4xlnt6detailL11from_stringINS_11target_modeEEET_RKNSt7__cxx1112basic_stringIcSt11char_traitsIcESaIcEEE
FN:393,_ZN4xlnt6detailL11from_stringINS_11pane_cornerEEET_RKNSt7__cxx1112basic_stringIcSt11char_traitsIcESaIcEEE
FN:404,_ZN4xlnt6detailL11from_stringINS_11orientationEEET_RKNSt7__cxx1112basic_stringIcSt11char_traitsIcESaIcEEE
FN:420,_ZN3xml12value_traitsIN4xlnt4font15underline_styleEE5parseENSt7__cxx1112basic_stringIcSt11char_traitsIcESaIcEEERKNS_6parserE
FN:425,_ZN3xml12value_traitsIN4xlnt4font15underline_styleEE9serializeB5cxx11ES3_RKNS_10serializerE
FN:434,_ZN3xml12value_traitsIN4xlnt17relationship_typeEE5parseENSt7__cxx1112basic_stringIcSt11char_traitsIcESaIcEEERKNS_6parserE
FN:439,_ZN3xml12value_traitsIN4xlnt17relationship_typeEE9serializeB5cxx11ES2_RKNS_10serializerE
FN:448,_ZN3xml12value_traitsIN4xlnt17pattern_fill_typeEE5parseENSt7__cxx1112basic_stringIcSt11char_traitsIcESaIcEEERKNS_6parserE
FN:453,_ZN3xml12value_traitsIN4xlnt17pattern_fill_typeEE9serializeB5cxx11ES2_RKNS_10serializerE
FN:462,_ZN3xml12value_traitsIN4xlnt18gradient_fill_typeEE5parseENSt7__cxx1112basic_stringIcSt11char_traitsIcESaIcEEERKNS_6parserE
FN:467,_ZN3xml12value_traitsIN4xlnt18gradient_fill_typeEE9serializeB5cxx11ES2_RKNS_10serializerE
FN:476,_ZN3xml12value_traitsIN4xlnt12border_styleEE5parseENSt7__cxx1112basic_stringIcSt11char_traitsIcESaIcEEERKNS_6parserE
FN:482,_ZN3xml12value_traitsIN4xlnt12border_styleEE9serializeB5cxx11ES2_RKNS_10serializerE
FN:491,_ZN3xml12value_traitsIN4xlnt18vertical_alignmentEE5parseENSt7__cxx1112basic_stringIcSt11char_traitsIcESaIcEEERKNS_6parserE
FN:496,_ZN3xml12value_traitsIN4xlnt18vertical_alignmentEE9serializeB5cxx11ES2_RKNS_10serializerE
FN:505,_ZN3xml12value_traitsIN4xlnt20horizontal_alignmentEE5parseENSt7__cxx1112basic_stringIcSt11char_traitsIcESaIcEEERKNS_6parserE
FN:510,_ZN3xml12value_traitsIN4xlnt20horizontal_alignmentEE9serializeB5cxx11ES2_RKNS_10serializerE
FN:519,_ZN3xml12value_traitsIN4xlnt11border_sideEE5parseENSt7__cxx1112basic_stringIcSt11char_traitsIcESaIcEEERKNS_6parserE
FN:533,_ZN3xml12value_traitsIN4xlnt11target_modeEE5parseENSt7__cxx1112basic_stringIcSt11char_traitsIcESaIcEEERKNS_6parserE
FN:547,_ZN3xml12value_traitsIN4xlnt10pane_stateEE5parseENSt7__cxx1112basic_stringIcSt11char_traitsIcESaIcEEERKNS_6parserE
FN:552,_ZN3xml12value_traitsIN4xlnt10pane_stateEE9serializeB5cxx11ES2_RKNS_10serializerE
FN:561,_ZN3xml12value_traitsIN4xlnt11pane_cornerEE5parseENSt7__cxx1112basic_stringIcSt11char_traitsIcESaIcEEERKNS_6parserE
FN:566,_ZN3xml12value_traitsIN4xlnt11pane_cornerEE9serializeB5cxx11ES2_RKNS_10serializerE
FN:603,_ZN3xml12value_traitsIN4xlnt11orientationEE5parseENSt7__cxx1112basic_stringIcSt11char_traitsIcESaIcEEERKNS_6parserE
FN:608,_ZN3xml12value_traitsIN4xlnt11orientationEE9serializeB5cxx11ES2_RKNS_10serializerE
FNDA:25,_ZN3xml12value_traitsIN4xlnt11orientationEE5parseENSt7__cxx1112basic_stringIcSt11char_traitsIcESaIcEEERKNS_6parserE
FNDA:450,_ZN3xml12value_traitsIN4xlnt17pattern_fill_typeEE5parseENSt7__cxx1112basic_stringIcSt11char_traitsIcESaIcEEERKNS_6parserE
FNDA:726,_ZN4xlnt6detailL11from_stringINS_17extended_propertyEEET_RKNSt7__cxx1112basic_stringIcSt11char_traitsIcESaIcEEE
FNDA:399,_ZN4xlnt6detailL11from_stringINS_18vertical_alignmentEEET_RKNSt7__cxx1112basic_stringIcSt11char_traitsIcESaIcEEE
FNDA:2338,_ZZZN4xlnt6detailL11from_stringINS_17pattern_fill_typeEEET_RKNSt7__cxx1112basic_stringIcSt11char_traitsIcESaIcEEEENKUlS9_E_clES9_ENKUlcE_clEc
FNDA:0,_ZN3xml12value_traitsIN4xlnt18gradient_fill_typeEE5parseENSt7__cxx1112basic_stringIcSt11char_traitsIcESaIcEEERKNS_6parserE
FNDA:25,_ZN4xlnt6detailL11from_stringINS_11orientationEEET_RKNSt7__cxx1112basic_stringIcSt11char_traitsIcESaIcEEE
FNDA:901,_ZN3xml12value_traitsIN4xlnt11border_sideEE5parseENSt7__cxx1112basic_stringIcSt11char_traitsIcESaIcEEERKNS_6parserE
FNDA:259,_ZN4xlnt6detailL11from_stringINS_12border_styleEEET_RKNSt7__cxx1112basic_stringIcSt11char_traitsIcESaIcEEE
FNDA:392,_ZN3xml12value_traitsIN4xlnt17relationship_typeEE9serializeB5cxx11ES2_RKNS_10serializerE
FNDA:16,_ZN3xml12value_traitsIN4xlnt11pane_cornerEE5parseENSt7__cxx1112basic_stringIcSt11char_traitsIcESaIcEEERKNS_6parserE
FNDA:3,_ZN4xlnt6detailL11from_stringINS_10pane_stateEEET_RKNSt7__cxx1112basic_stringIcSt11char_traitsIcESaIcEEE
FNDA:259,_ZN3xml12value_traitsIN4xlnt12border_styleEE5parseENSt7__cxx1112basic_stringIcSt11char_traitsIcESaIcEEERKNS_6parserE
FNDA:777,_ZN3xml12value_traitsIN4xlnt17relationship_typeEE5parseENSt7__cxx1112basic_stringIcSt11char_traitsIcESaIcEEERKNS_6parserE
FNDA:116,_ZN3xml12value_traitsIN4xlnt12border_styleEE9serializeB5cxx11ES2_RKNS_10serializerE
FNDA:410,_ZN4xlnt6detailL11from_stringINS_13core_propertyEEET_RKNSt7__cxx1112basic_stringIcSt11char_traitsIcESaIcEEE
FNDA:10,_ZN3xml12value_traitsIN4xlnt11pane_cornerEE9serializeB5cxx11ES2_RKNS_10serializerE
FNDA:399,_ZN3xml12value_traitsIN4xlnt18vertical_alignmentEE5parseENSt7__cxx1112basic_stringIcSt11char_traitsIcESaIcEEERKNS_6parserE
FNDA:30,_ZN3xml12value_traitsIN4xlnt11target_modeEE5parseENSt7__cxx1112basic_stringIcSt11char_traitsIcESaIcEEERKNS_6parserE
FNDA:44,_ZN3xml12value_traitsIN4xlnt4font15underline_styleEE5parseENSt7__cxx1112basic_stringIcSt11char_traitsIcESaIcEEERKNS_6parserE
FNDA:44,_ZN4xlnt6detailL11from_stringINS_4font15underline_styleEEET_RKNSt7__cxx1112basic_stringIcSt11char_traitsIcESaIcEEE
FNDA:30,_ZN4xlnt6detailL11from_stringINS_11target_modeEEET_RKNSt7__cxx1112basic_stringIcSt11char_traitsIcESaIcEEE
FNDA:0,_ZN3xml12value_traitsIN4xlnt18gradient_fill_typeEE9serializeB5cxx11ES2_RKNS_10serializerE
FNDA:450,_ZN4xlnt6detailL11from_stringINS_17pattern_fill_typeEEET_RKNSt7__cxx1112basic_stringIcSt11char_traitsIcESaIcEEE
FNDA:8,_ZN3xml12value_traitsIN4xlnt11orientationEE9serializeB5cxx11ES2_RKNS_10serializerE
FNDA:74,_ZN3xml12value_traitsIN4xlnt18vertical_alignmentEE9serializeB5cxx11ES2_RKNS_10serializerE
FNDA:24,_ZN3xml12value_traitsIN4xlnt20horizontal_alignmentEE9serializeB5cxx11ES2_RKNS_10serializerE
FNDA:114,_ZN4xlnt6detailL11from_stringINS_20horizontal_alignmentEEET_RKNSt7__cxx1112basic_stringIcSt11char_traitsIcESaIcEEE
FNDA:227,_ZN3xml12value_traitsIN4xlnt17pattern_fill_typeEE9serializeB5cxx11ES2_RKNS_10serializerE
FNDA:3,_ZN3xml12value_traitsIN4xlnt10pane_stateEE5parseENSt7__cxx1112basic_stringIcSt11char_traitsIcESaIcEEERKNS_6parserE
FNDA:450,_ZZN4xlnt6detailL11from_stringINS_17pattern_fill_typeEEET_RKNSt7__cxx1112basic_stringIcSt11char_traitsIcESaIcEEEENKUlS9_E_clES9_
FNDA:450,_ZZN4xlnt6detailL11from_stringINS_17pattern_fill_typeEEET_RKNSt7__cxx1112basic_stringIcSt11char_traitsIcESaIcEEEENKUlSB_E_clESB_
FNDA:901,_ZN4xlnt6detailL11from_stringINS_11border_sideEEET_RKNSt7__cxx1112basic_stringIcSt11char_traitsIcESaIcEEE
FNDA:20,_ZN3xml12value_traitsIN4xlnt4font15underline_styleEE9serializeB5cxx11ES3_RKNS_10serializerE
FNDA:3,_ZN3xml12value_traitsIN4xlnt10pane_stateEE9serializeB5cxx11ES2_RKNS_10serializerE
FNDA:777,_ZN4xlnt6detailL11from_stringINS_17relationship_typeEEET_RKNSt7__cxx1112basic_stringIcSt11char_traitsIcESaIcEEE
FNDA:0,_ZN4xlnt6detailL11from_stringINS_18gradient_fill_typeEEET_RKNSt7__cxx1112basic_stringIcSt11char_traitsIcESaIcEEE
FNDA:16,_ZN4xlnt6detailL11from_stringINS_11pane_cornerEEET_RKNSt7__cxx1112basic_stringIcSt11char_traitsIcESaIcEEE
FNDA:114,_ZN3xml12value_traitsIN4xlnt20horizontal_alignmentEE5parseENSt7__cxx1112basic_stringIcSt11char_traitsIcESaIcEEERKNS_6parserE
FNF:39
FNH:36
DA:87,44
DA:89,44
DA:90,35
DA:91,9
DA:92,9
DA:93,0
DA:95,0
DA:99,777
DA:101,777
DA:102,96
DA:103,681
DA:104,42
DA:105,639
DA:106,12
DA:107,627
DA:108,84
DA:109,543
DA:110,543
DA:111,84
DA:112,459
DA:113,122
DA:114,337
DA:115,69
DA:116,268
DA:117,84
DA:118,184
DA:119,74
DA:120,110
DA:121,29
DA:122,81
DA:123,0
DA:124,81
DA:125,14
DA:126,67
DA:127,14
DA:128,53
DA:129,4
DA:130,49
DA:131,5
DA:132,44
DA:133,0
DA:134,44
DA:135,0
DA:136,44
DA:137,0
DA:138,44
DA:139,0
DA:140,44
DA:141,4
DA:142,40
DA:143,0
DA:144,40
DA:145,0
DA:146,40
DA:147,0
DA:148,40
DA:149,0
DA:150,40
DA:151,0
DA:152,40
DA:153,0
DA:154,40
DA:155,0
DA:156,40
DA:157,0
DA:158,40
DA:159,0
DA:160,40
DA:161,0
DA:162,40
DA:163,0
DA:164,40
DA:165,0
DA:166,40
DA:167,2
DA:168,38
DA:169,4
DA:173,34
DA:177,450
DA:182,0
DA:183,0
DA:184,0
DA:185,0
DA:186,0
DA:187,0
DA:188,0
DA:189,0
DA:190,0
DA:191,0
DA:192,0
DA:193,0
DA:194,0
DA:195,0
DA:196,0
DA:197,0
DA:198,0
DA:199,0
DA:200,0
DA:201,513
DA:204,450
DA:205,450
DA:206,450
DA:207,450
DA:208,2338
DA:210,2338
DA:213,450
DA:216,450
DA:217,450
DA:218,450
DA:219,450
DA:223,0
DA:227,450
DA:229,900
DA:230,453
DA:233,0
DA:235,0
DA:236,0
DA:238,0
DA:242,259
DA:244,259
DA:245,259
DA:246,259
DA:247,259
DA:248,259
DA:249,205
DA:250,205
DA:251,196
DA:252,196
DA:253,196
DA:254,196
DA:255,196
DA:256,196
DA:257,177
DA:259,0
DA:263,399
DA:265,399
DA:266,355
DA:267,50
DA:268,41
DA:269,41
DA:271,0
DA:275,114
DA:277,114
DA:278,101
DA:279,101
DA:280,101
DA:281,101
DA:282,79
DA:283,79
DA:284,24
DA:286,0
DA:289,901
DA:291,901
DA:292,720
DA:293,540
DA:294,360
DA:295,360
DA:296,180
DA:297,0
DA:299,0
DA:303,410
DA:305,410
DA:306,402
DA:307,402
DA:308,327
DA:309,248
DA:310,229
DA:311,229
DA:312,221
DA:313,210
DA:314,132
DA:315,132
DA:316,51
DA:317,39
DA:318,20
DA:319,0
DA:321,0
DA:325,726
DA:327,726
DA:328,644
DA:329,574
DA:330,574
DA:331,574
DA:332,514
DA:333,514
DA:334,448
DA:335,381
DA:336,380
DA:337,313
DA:338,305
DA:339,305
DA:340,305
DA:341,238
DA:342,230
DA:343,229
DA:344,228
DA:345,228
DA:346,227
DA:347,226
DA:348,159
DA:349,92
DA:350,91
DA:351,80
DA:352,13
DA:353,1
DA:355,0
DA:374,3
DA:376,3
DA:377,0
DA:378,0
DA:380,0
DA:384,30
DA:386,30
DA:387,30
DA:389,0
DA:393,16
DA:395,16
DA:396,14
DA:397,11
DA:398,0
DA:400,0
DA:404,25
DA:406,25
DA:407,25
DA:408,25
DA:409,0
DA:420,44
DA:422,44
DA:425,20
DA:427,20
DA:434,777
DA:436,777
DA:439,392
DA:441,392
DA:448,450
DA:450,450
DA:453,227
DA:455,227
DA:462,0
DA:464,0
DA:467,0
DA:469,0
DA:476,259
DA:478,259
DA:482,116
DA:484,116
DA:491,399
DA:493,399
DA:496,74
DA:498,74
DA:505,114
DA:507,114
DA:510,24
DA:512,24
DA:519,901
DA:521,901
DA:533,30
DA:535,30
DA:547,3
DA:549,3
DA:552,3
DA:554,3
DA:561,16
DA:563,16
DA:566,10
DA:568,10
DA:603,25
DA:605,25
DA:608,8
DA:610,8
LF:270
LH:208
end_of_record
TN:
SF:/root/project/source/detail/serialization/excel_thumbnail.hpp
FN:34,_ZN4xlnt15excel_thumbnailEv
FNDA:250,_ZN4xlnt15excel_thumbnailEv
FNF:1
FNH:1
DA:34,250
DA:451,258
DA:453,250
LF:3
LH:3
end_of_record
TN:
SF:/root/project/source/detail/serialization/open_stream.cpp
FN:35,_ZN4xlnt6detail11open_streamERSt14basic_ifstreamIcSt11char_traitsIcEERKNSt7__cxx1112basic_stringIcS3_SaIcEEE
FN:44,_ZN4xlnt6detail11open_streamERSt14basic_ofstreamIcSt11char_traitsIcEERKNSt7__cxx1112basic_stringIcS3_SaIcEEE
FN:66,_ZN4xlnt6detail11open_streamERSt14basic_ifstreamIcSt11char_traitsIcEESt17basic_string_viewIDuS2_IDuEE
FN:83,_ZN4xlnt6detail11open_streamERSt14basic_ofstreamIcSt11char_traitsIcEESt17basic_string_viewIDuS2_IDuEE
FNDA:34,_ZN4xlnt6detail11open_streamERSt14basic_ofstreamIcSt11char_traitsIcEERKNSt7__cxx1112basic_stringIcS3_SaIcEEE
FNDA:0,_ZN4xlnt6detail11open_streamERSt14basic_ofstreamIcSt11char_traitsIcEESt17basic_string_viewIDuS2_IDuEE
FNDA:69,_ZN4xlnt6detail11open_streamERSt14basic_ifstreamIcSt11char_traitsIcEERKNSt7__cxx1112basic_stringIcS3_SaIcEEE
FNDA:0,_ZN4xlnt6detail11open_streamERSt14basic_ifstreamIcSt11char_traitsIcEESt17basic_string_viewIDuS2_IDuEE
FNF:4
FNH:2
DA:35,69
DA:40,69
DA:42,69
DA:44,34
DA:49,34
DA:51,34
DA:66,0
DA:71,0
DA:81,0
DA:83,0
DA:88,0
DA:98,0
LF:12
LH:6
end_of_record
TN:
SF:/root/project/source/detail/serialization/parsers.hpp
FN:48,_ZN4xlnt6detail5parseIjLb1EEESt4errcPKcRT_PS4_i
FN:48,_ZN4xlnt6detail5parseIyLb1EEESt4errcPKcRT_PS4_i
FN:48,_ZN4xlnt6detail5parseIiLb1EEESt4errcPKcRT_PS4_i
FN:48,_ZN4xlnt6detail5parseImLb1EEESt4errcPKcRT_PS4_i
FN:48,_ZN4xlnt6detail5parseIxLb1EEESt4errcPKcRT_PS4_i
FN:48,_ZN4xlnt6detail5parseIlLb1EEESt4errcPKcRT_PS4_i
FN:67,_ZN4xlnt6detail5parseIlLb1EEESt4errcRKNSt7__cxx1112basic_stringIcSt11char_traitsIcESaIcEEERT_Pmi
FN:67,_ZN4xlnt6detail5parseIjLb1EEESt4errcRKNSt7__cxx1112basic_stringIcSt11char_traitsIcESaIcEEERT_Pmi
FN:67,_ZN4xlnt6detail5parseIyLb1EEESt4errcRKNSt7__cxx1112basic_stringIcSt11char_traitsIcESaIcEEERT_Pmi
FN:67,_ZN4xlnt6detail5parseIhLb1EEESt4errcRKNSt7__cxx1112basic_stringIcSt11char_traitsIcESaIcEEERT_Pmi
FN:67,_ZN4xlnt6detail5parseImLb1EEESt4errcRKNSt7__cxx1112basic_stringIcSt11char_traitsIcESaIcEEERT_Pmi
FN:67,_ZN4xlnt6detail5parseIxLb1EEESt4errcRKNSt7__cxx1112basic_stringIcSt11char_traitsIcESaIcEEERT_Pmi
FN:67,_ZN4xlnt6detail5parseIiLb1EEESt4errcRKNSt7__cxx1112basic_stringIcSt11char_traitsIcESaIcEEERT_Pmi
FN:89,_ZN4xlnt6detail5parseIdLb1EEESt4errcPKcRT_PS4_c
FN:89,_ZN4xlnt6detail5parseIfLb1EEESt4errcPKcRT_PS4_c
FN:107,_ZN4xlnt6detail5parseIfLb1EEESt4errcRKNSt7__cxx1112basic_stringIcSt11char_traitsIcESaIcEEERT_Pmc
FN:107,_ZN4xlnt6detail5parseIdLb1EEESt4errcRKNSt7__cxx1112basic_stringIcSt11char_traitsIcESaIcEEERT_Pmc
FNDA:3,_ZN4xlnt6detail5parseIjLb1EEESt4errcPKcRT_PS4_i
FNDA:3,_ZN4xlnt6detail5parseIlLb1EEESt4errcRKNSt7__cxx1112basic_stringIcSt11char_traitsIcESaIcEEERT_Pmi
FNDA:3,_ZN4xlnt6detail5parseIyLb1EEESt4errcPKcRT_PS4_i
FNDA:3,_ZN4xlnt6detail5parseIfLb1EEESt4errcRKNSt7__cxx1112basic_stringIcSt11char_traitsIcESaIcEEERT_Pmc
FNDA:2154,_ZN4xlnt6detail5parseIjLb1EEESt4errcRKNSt7__cxx1112basic_stringIcSt11char_traitsIcESaIcEEERT_Pmi
FNDA:1,_ZN4xlnt6detail5parseIiLb1EEESt4errcPKcRT_PS4_i
FNDA:3,_ZN4xlnt6detail5parseIyLb1EEESt4errcRKNSt7__cxx1112basic_stringIcSt11char_traitsIcESaIcEEERT_Pmi
FNDA:3723,_ZN4xlnt6detail5parseIdLb1EEESt4errcRKNSt7__cxx1112basic_stringIcSt11char_traitsIcESaIcEEERT_Pmc
FNDA:2,_ZN4xlnt6detail5parseIhLb1EEESt4errcRKNSt7__cxx1112basic_stringIcSt11char_traitsIcESaIcEEERT_Pmi
FNDA:3,_ZN4xlnt6detail5parseImLb1EEESt4errcPKcRT_PS4_i
FNDA:245,_ZN4xlnt6detail5parseImLb1EEESt4errcRKNSt7__cxx1112basic_stringIcSt11char_traitsIcESaIcEEERT_Pmi
FNDA:1,_ZN4xlnt6detail5parseIxLb1EEESt4errcPKcRT_PS4_i
FNDA:6,_ZN4xlnt6detail5parseIdLb1EEESt4errcPKcRT_PS4_c
FNDA:2745,_ZN4xlnt6detail5parseIiLb1EEESt4errcRKNSt7__cxx1112basic_stringIcSt11char_traitsIcESaIcEEERT_Pmi
FNDA:4,_ZN4xlnt6detail5parseIfLb1EEESt4errcPKcRT_PS4_c
FNDA:1463,_ZN4xlnt6detail5parseIxLb1EEESt4errcRKNSt7__cxx1112basic_stringIcSt11char_traitsIcESaIcEEERT_Pmi
FNDA:1,_ZN4xlnt6detail5parseIlLb1EEESt4errcPKcRT_PS4_i
FNF:17
FNH:17
DA:48,12
DA:50,12
DA:56,12
DA:58,12
DA:60,12
DA:63,12
DA:67,6615
DA:69,6615
DA:75,6615
DA:77,6615
DA:79,57
DA:82,6615
DA:89,10
DA:91,10
DA:96,10
DA:98,10
DA:100,6
DA:103,10
DA:107,3726
DA:109,3726
DA:114,3726
DA:116,3726
DA:118,17
DA:121,3726
LF:24
LH:24
end_of_record
TN:
SF:/root/project/source/detail/serialization/serialisation_helpers.cpp
FN:13,_ZN4xlnt6detail9serialiseB5cxx11Ed
FN:18,_ZN4xlnt6detail11deserialiseERKNSt7__cxx1112basic_stringIcSt11char_traitsIcESaIcEEEPm
FN:26,_ZN4xlnt6detail11deserialiseEPKcPS2_
FNDA:4,_ZN4xlnt6detail11deserialiseEPKcPS2_
FNDA:3720,_ZN4xlnt6detail11deserialiseERKNSt7__cxx1112basic_stringIcSt11char_traitsIcESaIcEEEPm
FNDA:3446,_ZN4xlnt6detail9serialiseB5cxx11Ed
FNF:3
FNH:3
DA:13,3446
DA:15,3446
DA:18,3720
DA:20,3720
DA:21,3720
DA:22,3720
DA:23,3720
DA:26,4
DA:28,4
DA:29,4
DA:30,4
DA:31,4
LF:12
LH:12
end_of_record
TN:
SF:/root/project/source/detail/serialization/serialisation_helpers.hpp
FN:27,_ZN4xlnt6detail14Cell_ReferenceC2Ejj
FN:34,_ZN4xlnt6detail14Cell_ReferenceC2EjRKNSt7__cxx1112basic_stringIcSt11char_traitsIcESaIcEEE
FNDA:2046,_ZN4xlnt6detail14Cell_ReferenceC2EjRKNSt7__cxx1112basic_stringIcSt11char_traitsIcESaIcEEE
FNDA:2046,_ZN4xlnt6detail14Cell_ReferenceC2Ejj
FNF:2
FNH:2
DA:27,2046
DA:28,2046
DA:30,2046
DA:34,2046
DA:35,2046
DA:40,2046
DA:41,2046
DA:42,2046
DA:43,2046
DA:45,0
DA:46,0
DA:47,0
DA:48,0
DA:50,0
DA:51,0
DA:54,2046
DA:55,2046
LF:17
LH:11
end_of_record
TN:
SF:/root/project/source/detail/serialization/vector_streambuf.cpp
FN:32,_ZN4xlnt6detail17vector_istreambufC2ERKSt6vectorIhSaIhEE
FN:38,_ZN4xlnt6detail17vector_istreambuf9underflowEv
FN:48,_ZN4xlnt6detail17vector_istreambuf5uflowEv
FN:58,_ZN4xlnt6detail17vector_istreambuf9showmanycEv
FN:68,_ZN4xlnt6detail17vector_istreambuf7seekoffElSt12_Ios_SeekdirSt13_Ios_Openmode
FN:107,_ZN4xlnt6detail17vector_istreambuf7seekposESt4fposI11__mbstate_tESt13_Ios_Openmode
FN:125,_ZN4xlnt6detail17vector_ostreambufC2ERSt6vectorIhSaIhEE
FN:131,_ZN4xlnt6detail17vector_ostreambuf8overflowEi
FN:142,_ZN4xlnt6detail17vector_ostreambuf6xsputnEPKcl
FN:161,_ZN4xlnt6detail17vector_ostreambuf7seekoffElSt12_Ios_SeekdirSt13_Ios_Openmode
FN:200,_ZN4xlnt6detail17vector_ostreambuf7seekposESt4fposI11__mbstate_tESt13_Ios_Openmode
FN:218,_ZN4xlnt6detail9to_vectorERSi
FN:230,_ZN4xlnt6detail9to_streamERKSt6vectorIhSaIhEERSo
FN:240,_ZN4xlnt6detaillsERSoRKSt6vectorIhSaIhEE
FNDA:3685,_ZN4xlnt6detail17vector_istreambuf7seekposESt4fposI11__mbstate_tESt13_Ios_Openmode
FNDA:314,_ZN4xlnt6detail17vector_istreambuf7seekoffElSt12_Ios_SeekdirSt13_Ios_Openmode
FNDA:2648349,_ZN4xlnt6detail17vector_istreambuf9underflowEv
FNDA:0,_ZN4xlnt6detail17vector_istreambuf9showmanycEv
FNDA:271,_ZN4xlnt6detail9to_vectorERSi
FNDA:40301,_ZN4xlnt6detail17vector_ostreambuf6xsputnEPKcl
FNDA:6267357,_ZN4xlnt6detail17vector_istreambuf5uflowEv
FNDA:0,_ZN4xlnt6detail9to_streamERKSt6vectorIhSaIhEERSo
FNDA:0,_ZN4xlnt6detail17vector_ostreambuf8overflowEi
FNDA:4525,_ZN4xlnt6detail17vector_ostreambuf7seekoffElSt12_Ios_SeekdirSt13_Ios_Openmode
FNDA:0,_ZN4xlnt6detaillsERSoRKSt6vectorIhSaIhEE
FNDA:129,_ZN4xlnt6detail17vector_istreambufC2ERKSt6vectorIhSaIhEE
FNDA:11039,_ZN4xlnt6detail17vector_ostreambuf7seekposESt4fposI11__mbstate_tESt13_Ios_Openmode
FNDA:74,_ZN4xlnt6detail17vector_ostreambufC2ERSt6vectorIhSaIhEE
FNF:14
FNH:10
DA:32,129
DA:33,129
DA:34,129
DA:36,129
DA:38,2648349
DA:40,2648349
DA:42,45
DA:45,2648304
DA:48,6267357
DA:50,6267357
DA:52,0
DA:55,6267357
DA:58,0
DA:60,0
DA:62,0
DA:65,0
DA:68,314
DA:70,314
DA:72,190
DA:74,124
DA:76,62
DA:79,314
DA:81,0
DA:83,0
DA:84,0
DA:88,0
DA:91,314
DA:93,168
DA:95,0
DA:96,0
DA:100,168
DA:104,314
DA:107,3685
DA:109,3685
DA:111,0
DA:113,3685
DA:115,0
DA:119,3685
DA:122,3685
DA:125,74
DA:126,74
DA:127,74
DA:129,74
DA:131,0
DA:133,0
DA:135,0
DA:136,0
DA:139,0
DA:142,40301
DA:144,40301
DA:146,32
DA:150,40269
DA:151,40269
DA:152,40269
DA:155,40301
DA:156,40301
DA:158,40301
DA:161,4525
DA:163,4525
DA:165,4107
DA:167,418
DA:169,0
DA:172,4525
DA:174,0
DA:176,0
DA:177,0
DA:181,0
DA:184,4525
DA:186,4012
DA:188,0
DA:189,0
DA:193,4012
DA:197,4525
DA:200,11039
DA:202,11039
DA:204,0
DA:206,11039
DA:208,0
DA:212,11039
DA:215,11039
DA:218,271
DA:220,271
DA:222,0
DA:226,271
DA:227,542
DA:230,0
DA:232,0
DA:234,0
DA:237,0
DA:238,0
DA:240,0
DA:242,0
DA:243,0
LF:93
LH:57
end_of_record
TN:
SF:/root/project/source/detail/serialization/xlsx_consumer.cpp
FN:57,_ZN12_GLOBAL__N_121string_arr_loop_equalILm13EEEbRKNSt7__cxx1112basic_stringIcSt11char_traitsIcESaIcEEERAT__Kc
FN:57,_ZN12_GLOBAL__N_121string_arr_loop_equalILm3EEEbRKNSt7__cxx1112basic_stringIcSt11char_traitsIcESaIcEEERAT__Kc
FN:57,_ZN12_GLOBAL__N_121string_arr_loop_equalILm4EEEbRKNSt7__cxx1112basic_stringIcSt11char_traitsIcESaIcEEERAT__Kc
FN:57,_ZN12_GLOBAL__N_121string_arr_loop_equalILm6EEEbRKNSt7__cxx1112basic_stringIcSt11char_traitsIcESaIcEEERAT__Kc
FN:57,_ZN12_GLOBAL__N_121string_arr_loop_equalILm2EEEbRKNSt7__cxx1112basic_stringIcSt11char_traitsIcESaIcEEERAT__Kc
FN:57,_ZN12_GLOBAL__N_121string_arr_loop_equalILm10EEEbRKNSt7__cxx1112basic_stringIcSt11char_traitsIcESaIcEEERAT__Kc
FN:57,_ZN12_GLOBAL__N_121string_arr_loop_equalILm7EEEbRKNSt7__cxx1112basic_stringIcSt11char_traitsIcESaIcEEERAT__Kc
FN:70,_ZN12_GLOBAL__N_112string_equalILm10EEEbRKNSt7__cxx1112basic_stringIcSt11char_traitsIcESaIcEEERAT__Kc
FN:70,_ZN12_GLOBAL__N_112string_equalILm6EEEbRKNSt7__cxx1112basic_stringIcSt11char_traitsIcESaIcEEERAT__Kc
FN:70,_ZN12_GLOBAL__N_112string_equalILm2EEEbRKNSt7__cxx1112basic_stringIcSt11char_traitsIcESaIcEEERAT__Kc
FN:70,_ZN12_GLOBAL__N_112string_equalILm3EEEbRKNSt7__cxx1112basic_stringIcSt11char_traitsIcESaIcEEERAT__Kc
FN:70,_ZN12_GLOBAL__N_112string_equalILm13EEEbRKNSt7__cxx1112basic_stringIcSt11char_traitsIcESaIcEEERAT__Kc
FN:70,_ZN12_GLOBAL__N_112string_equalILm4EEEbRKNSt7__cxx1112basic_stringIcSt11char_traitsIcESaIcEEERAT__Kc
FN:70,_ZN12_GLOBAL__N_112string_equalILm7EEEbRKNSt7__cxx1112basic_stringIcSt11char_traitsIcESaIcEEERAT__Kc
FN:80,_ZN12_GLOBAL__N_12qnERKNSt7__cxx1112basic_stringIcSt11char_traitsIcESaIcEEES7_
FN:98,_ZN12_GLOBAL__N_17is_trueERKNSt7__cxx1112basic_stringIcSt11char_traitsIcESaIcEEE
FN:123,_ZN12_GLOBAL__N_117set_style_by_xfidERKSt6vectorISt4pairIN4xlnt6detail10style_implEmESaIS5_EEmRNS2_8optionalINSt7__cxx1112basic_stringIcSt11char_traitsIcESaIcEEEEE
FN:142,_ZN12_GLOBAL__N_116type_from_stringERKNSt7__cxx1112basic_stringIcSt11char_traitsIcESaIcEEE
FN:171,_ZN12_GLOBAL__N_110parse_cellEjPN3xml6parserERSt13unordered_mapINSt7__cxx1112basic_stringIcSt11char_traitsIcESaIcEEES9_St4hashIS9_ESt8equal_toIS9_ESaISt4pairIKS9_S9_EEERS3_IiS9_SA_IiESC_IiESaISE_IKiS9_EEE
FN:282,_ZN12_GLOBAL__N_19parse_rowEPN3xml6parserERSt6vectorIN4xlnt6detail4CellESaIS6_EERSt13unordered_mapINSt7__cxx1112basic_stringIcSt11char_traitsIcESaIcEEESG_St4hashISG_ESt8equal_toISG_ESaISt4pairIKSG_SG_EEERSA_IiSG_SH_IiESJ_IiESaISL_IKiSG_EEE
FN:361,_ZN12_GLOBAL__N_116parse_sheet_dataEPN3xml6parserERSt13unordered_mapINSt7__cxx1112basic_stringIcSt11char_traitsIcESaIcEEES9_St4hashIS9_ESt8equal_toIS9_ESaISt4pairIKS9_S9_EEERS3_IiS9_SA_IiESC_IiESaISE_IKiS9_EEE
FN:420,_ZN4xlnt6detail13xlsx_consumerC2ERNS_8workbookE
FN:426,_ZN4xlnt6detail13xlsx_consumerD2Ev
FN:430,_ZN4xlnt6detail13xlsx_consumer4readERSi
FN:436,_ZN4xlnt6detail13xlsx_consumer4openERSi
FN:442,_ZN4xlnt6detail13xlsx_consumer9read_cellEv
FN:447,_ZN4xlnt6detail13xlsx_consumer14read_worksheetERKNSt7__cxx1112basic_stringIcSt11char_traitsIcESaIcEEE
FN:458,_ZN4xlnt6detail18read_defined_namesENS_9worksheetESt6vectorINS0_12defined_nameESaIS3_EE
FN:529,_ZN4xlnt6detail13xlsx_consumer20read_worksheet_beginERKNSt7__cxx1112basic_stringIcSt11char_traitsIcESaIcEEE
FN:541,_ZZN4xlnt6detail13xlsx_consumer20read_worksheet_beginERKNSt7__cxx1112basic_stringIcSt11char_traitsIcESaIcEEEENKUlRKSt4pairIS7_S7_EE_clESD_
FN:795,_ZZN4xlnt6detail13xlsx_consumer20read_worksheet_beginERKNSt7__cxx1112basic_stringIcSt11char_traitsIcESaIcEEEENKUlRN3xml6parserEE_clESC_
FN:803,_ZZN4xlnt6detail13xlsx_consumer20read_worksheet_beginERKNSt7__cxx1112basic_stringIcSt11char_traitsIcESaIcEEEENKUlRN3xml6parserEE0_clESC_
FN:855,_ZN4xlnt6detail13xlsx_consumer24read_worksheet_sheetdataEv
FN:931,_ZN4xlnt6detail13xlsx_consumer18read_worksheet_endERKNSt7__cxx1112basic_stringIcSt11char_traitsIcESaIcEEE
FN:1025,_ZZN4xlnt6detail13xlsx_consumer18read_worksheet_endERKNSt7__cxx1112basic_stringIcSt11char_traitsIcESaIcEEEENKUlRKNS_12relationshipEE_clESC_
FN:1392,_ZN4xlnt6detail13xlsx_consumer6parserEv
FN:1397,_ZN4xlnt6detail13xlsx_consumer8has_cellEv
FN:1624,_ZN4xlnt6detail13xlsx_consumer18read_relationshipsERKNS_4pathE
FN:1665,_ZN4xlnt6detail13xlsx_consumer15read_stylesheetERKNSt7__cxx1112basic_stringIcSt11char_traitsIcESaIcEEE
FN:1674,_ZN4xlnt6detail13xlsx_consumer9read_partERKSt6vectorINS_12relationshipESaIS3_EE
FN:1815,_ZN4xlnt6detail13xlsx_consumer17populate_workbookEb
FN:1854,_ZN4xlnt6detail13xlsx_consumer18read_content_typesEv
FN:1891,_ZN4xlnt6detail13xlsx_consumer20read_core_propertiesEv
FN:1912,_ZN4xlnt6detail13xlsx_consumer24read_extended_propertiesEv
FN:1927,_ZN4xlnt6detail13xlsx_consumer22read_custom_propertiesEv
FN:1944,_ZN4xlnt6detail13xlsx_consumer20read_office_documentERKNSt7__cxx1112basic_stringIcSt11char_traitsIcESaIcEEE
FN:2256,_ZZN4xlnt6detail13xlsx_consumer20read_office_documentERKNSt7__cxx1112basic_stringIcSt11char_traitsIcESaIcEEEENKUlRKSt4pairIS7_S7_EE_clESD_
FN:2281,_ZN4xlnt6detail13xlsx_consumer22read_calculation_chainEv
FN:2285,_ZN4xlnt6detail13xlsx_consumer15read_chartsheetERKNSt7__cxx1112basic_stringIcSt11char_traitsIcESaIcEEE
FN:2289,_ZN4xlnt6detail13xlsx_consumer16read_connectionsEv
FN:2293,_ZN4xlnt6detail13xlsx_consumer20read_custom_propertyEv
FN:2297,_ZN4xlnt6detail13xlsx_consumer24read_custom_xml_mappingsEv
FN:2301,_ZN4xlnt6detail13xlsx_consumer16read_dialogsheetERKNSt7__cxx1112basic_stringIcSt11char_traitsIcESaIcEEE
FN:2305,_ZN4xlnt6detail13xlsx_consumer33read_external_workbook_referencesEv
FN:2309,_ZN4xlnt6detail13xlsx_consumer16read_pivot_tableEv
FN:2313,_ZN4xlnt6detail13xlsx_consumer24read_shared_string_tableEv
FN:2340,_ZN4xlnt6detail13xlsx_consumer37read_shared_workbook_revision_headersEv
FN:2344,_ZN4xlnt6detail13xlsx_consumer20read_shared_workbookEv
FN:2348,_ZN4xlnt6detail13xlsx_consumer30read_shared_workbook_user_dataEv
FN:2352,_ZN4xlnt6detail13xlsx_consumer15read_stylesheetEv
FN:3031,_ZZN4xlnt6detail13xlsx_consumer15read_stylesheetEvENKUlRKSt4pairINS0_10style_implEmEE_clES6_
FN:3090,_ZN4xlnt6detail13xlsx_consumer10read_themeEv
FN:3108,_ZN4xlnt6detail13xlsx_consumer26read_volatile_dependenciesEv
FN:3114,_ZN4xlnt6detail13xlsx_consumer17read_vml_drawingsENS_9worksheetE
FN:3118,_ZN4xlnt6detail13xlsx_consumer13read_commentsENS_9worksheetE
FN:3165,_ZN4xlnt6detail13xlsx_consumer13read_drawingsENS_9worksheetERKNS_4pathE
FN:3174,_ZZN4xlnt6detail13xlsx_consumer13read_drawingsENS_9worksheetERKNS_4pathEENKUlRKNS_12relationshipEE_clES8_
FN:3189,_ZN4xlnt6detail13xlsx_consumer18read_unknown_partsEv
FN:3193,_ZN4xlnt6detail13xlsx_consumer26read_unknown_relationshipsEv
FN:3197,_ZN4xlnt6detail13xlsx_consumer10read_imageERKNS_4pathE
FN:3205,_ZN4xlnt6detail13xlsx_consumer11read_binaryERKNS_4pathE
FN:3213,_ZN4xlnt6detail13xlsx_consumer9read_textB5cxx11Ev
FN:3226,_ZN4xlnt6detail13xlsx_consumer12read_variantEv
FN:3290,_ZN4xlnt6detail13xlsx_consumer15skip_attributesERKSt6vectorINSt7__cxx1112basic_stringIcSt11char_traitsIcESaIcEEESaIS8_EE
FN:3301,_ZN4xlnt6detail13xlsx_consumer15skip_attributesERKSt6vectorIN3xml5qnameESaIS4_EE
FN:3312,_ZN4xlnt6detail13xlsx_consumer15skip_attributesEv
FN:3317,_ZN4xlnt6detail13xlsx_consumer14skip_attributeERKN3xml5qnameE
FN:3325,_ZN4xlnt6detail13xlsx_consumer14skip_attributeERKNSt7__cxx1112basic_stringIcSt11char_traitsIcESaIcEEE
FN:3333,_ZN4xlnt6detail13xlsx_consumer22skip_remaining_contentERKN3xml5qnameE
FN:3350,_ZN4xlnt6detail13xlsx_consumer10in_elementERKN3xml5qnameE
FN:3356,_ZN4xlnt6detail13xlsx_consumer20expect_start_elementEN3xml7contentE
FN:3368,_ZN4xlnt6detail13xlsx_consumer20expect_start_elementERKN3xml5qnameENS2_7contentE
FN:3378,_ZN4xlnt6detail13xlsx_consumer18expect_end_elementERKN3xml5qnameE
FN:3385,_ZN4xlnt6detail13xlsx_consumer18unexpected_elementERKN3xml5qnameE
FN:3394,_ZN4xlnt6detail13xlsx_consumer14read_rich_textERKN3xml5qnameE
FN:3552,_ZN4xlnt6detail13xlsx_consumer10read_colorEv
FN:3583,_ZN4xlnt6detail13xlsx_consumer8manifestEv
FNDA:119,_ZN4xlnt6detail13xlsx_consumer24read_worksheet_sheetdataEv
FNDA:495,_ZN12_GLOBAL__N_121string_arr_loop_equalILm10EEEbRKNSt7__cxx1112basic_stringIcSt11char_traitsIcESaIcEEERAT__Kc
FNDA:50,_ZZN4xlnt6detail13xlsx_consumer18read_worksheet_endERKNSt7__cxx1112basic_stringIcSt11char_traitsIcESaIcEEEENKUlRKNS_12relationshipEE_clESC_
FNDA:2755,_ZN12_GLOBAL__N_112string_equalILm7EEEbRKNSt7__cxx1112basic_stringIcSt11char_traitsIcESaIcEEERAT__Kc
FNDA:0,_ZN4xlnt6detail13xlsx_consumer37read_shared_workbook_revision_headersEv
FNDA:119,_ZN12_GLOBAL__N_116parse_sheet_dataEPN3xml6parserERSt13unordered_mapINSt7__cxx1112basic_stringIcSt11char_traitsIcESaIcEEES9_St4hashIS9_ESt8equal_toIS9_ESaISt4pairIKS9_S9_EEERS3_IiS9_SA_IiESC_IiESaISE_IKiS9_EEE
FNDA:1,_ZN4xlnt6detail13xlsx_consumer15read_stylesheetERKNSt7__cxx1112basic_stringIcSt11char_traitsIcESaIcEEE
FNDA:475,_ZN4xlnt6detail13xlsx_consumer22skip_remaining_contentERKN3xml5qnameE
FNDA:207,_ZN4xlnt6detail13xlsx_consumer15skip_attributesERKSt6vectorIN3xml5qnameESaIS4_EE
FNDA:973,_ZN4xlnt6detail13xlsx_consumer12read_variantEv
FNDA:1491,_ZN4xlnt6detail13xlsx_consumer15skip_attributesEv
FNDA:22,_ZN12_GLOBAL__N_121string_arr_loop_equalILm7EEEbRKNSt7__cxx1112basic_stringIcSt11char_traitsIcESaIcEEERAT__Kc
FNDA:90,_ZZN4xlnt6detail13xlsx_consumer20read_worksheet_beginERKNSt7__cxx1112basic_stringIcSt11char_traitsIcESaIcEEEENKUlRN3xml6parserEE0_clESC_
FNDA:530,_ZN12_GLOBAL__N_121string_arr_loop_equalILm6EEEbRKNSt7__cxx1112basic_stringIcSt11char_traitsIcESaIcEEERAT__Kc
FNDA:147,_ZN4xlnt6detail13xlsx_consumer8has_cellEv
FNDA:93,_ZN4xlnt6detail13xlsx_consumer4readERSi
FNDA:172,_ZZN4xlnt6detail13xlsx_consumer20read_worksheet_beginERKNSt7__cxx1112basic_stringIcSt11char_traitsIcESaIcEEEENKUlRKSt4pairIS7_S7_EE_clESD_
FNDA:392,_ZN4xlnt6detail13xlsx_consumer15skip_attributesERKSt6vectorINSt7__cxx1112basic_stringIcSt11char_traitsIcESaIcEEESaIS8_EE
FNDA:0,_ZN4xlnt6detail13xlsx_consumer24read_custom_xml_mappingsEv
FNDA:15,_ZN12_GLOBAL__N_121string_arr_loop_equalILm4EEEbRKNSt7__cxx1112basic_stringIcSt11char_traitsIcESaIcEEERAT__Kc
FNDA:15450,_ZN12_GLOBAL__N_121string_arr_loop_equalILm2EEEbRKNSt7__cxx1112basic_stringIcSt11char_traitsIcESaIcEEERAT__Kc
FNDA:0,_ZN4xlnt6detail13xlsx_consumer30read_shared_workbook_user_dataEv
FNDA:96,_ZN4xlnt6detail13xlsx_consumer20read_office_documentERKNSt7__cxx1112basic_stringIcSt11char_traitsIcESaIcEEE
FNDA:120,_ZN4xlnt6detail13xlsx_consumer18read_worksheet_endERKNSt7__cxx1112basic_stringIcSt11char_traitsIcESaIcEEE
FNDA:0,_ZN4xlnt6detail13xlsx_consumer20read_custom_propertyEv
FNDA:7,_ZN4xlnt6detail13xlsx_consumer11read_binaryERKNS_4pathE
FNDA:2059,_ZN4xlnt6detail13xlsx_consumer8manifestEv
FNDA:4,_ZN4xlnt6detail13xlsx_consumer22read_custom_propertiesEv
FNDA:102,_ZN4xlnt6detail13xlsx_consumerD2Ev
FNDA:663,_ZN4xlnt6detail13xlsx_consumer9read_partERKSt6vectorINS_12relationshipESaIS3_EE
FNDA:0,_ZN4xlnt6detail13xlsx_consumer18read_unknown_partsEv
FNDA:2027,_ZN4xlnt6detail13xlsx_consumer14skip_attributeERKNSt7__cxx1112basic_stringIcSt11char_traitsIcESaIcEEE
FNDA:14,_ZN4xlnt6detail13xlsx_consumer13read_commentsENS_9worksheetE
FNDA:119,_ZN4xlnt6detail13xlsx_consumer14read_worksheetERKNSt7__cxx1112basic_stringIcSt11char_traitsIcESaIcEEE
FNDA:1590,_ZN12_GLOBAL__N_19parse_rowEPN3xml6parserERSt6vectorIN4xlnt6detail4CellESaIS6_EERSt13unordered_mapINSt7__cxx1112basic_stringIcSt11char_traitsIcESaIcEEESG_St4hashISG_ESt8equal_toISG_ESaISt4pairIKSG_SG_EEERSA_IiSG_SH_IiESJ_IiESaISL_IKiSG_EEE
FNDA:90,_ZZN4xlnt6detail13xlsx_consumer20read_worksheet_beginERKNSt7__cxx1112basic_stringIcSt11char_traitsIcESaIcEEEENKUlRN3xml6parserEE_clESC_
FNDA:433,_ZN12_GLOBAL__N_117set_style_by_xfidERKSt6vectorISt4pairIN4xlnt6detail10style_implEmESaIS5_EEmRNS2_8optionalINSt7__cxx1112basic_stringIcSt11char_traitsIcESaIcEEEEE
FNDA:0,_ZN4xlnt6detail13xlsx_consumer26read_volatile_dependenciesEv
FNDA:6760,_ZN4xlnt6detail13xlsx_consumer20expect_start_elementERKN3xml5qnameENS2_7contentE
FNDA:122,_ZN4xlnt6detail13xlsx_consumer20read_worksheet_beginERKNSt7__cxx1112basic_stringIcSt11char_traitsIcESaIcEEE
FNDA:0,_ZN4xlnt6detail13xlsx_consumer16read_dialogsheetERKNSt7__cxx1112basic_stringIcSt11char_traitsIcESaIcEEE
FNDA:1158,_ZN12_GLOBAL__N_121string_arr_loop_equalILm3EEEbRKNSt7__cxx1112basic_stringIcSt11char_traitsIcESaIcEEERAT__Kc
FNDA:96,_ZN4xlnt6detail13xlsx_consumer18read_content_typesEv
FNDA:0,_ZN4xlnt6detail13xlsx_consumer16read_connectionsEv
FNDA:11057,_ZN4xlnt6detail13xlsx_consumer20expect_start_elementEN3xml7contentE
FNDA:3843,_ZN12_GLOBAL__N_112string_equalILm13EEEbRKNSt7__cxx1112basic_stringIcSt11char_traitsIcESaIcEEERAT__Kc
FNDA:122,_ZN4xlnt6detail18read_defined_namesENS_9worksheetESt6vectorINS0_12defined_nameESaIS3_EE
FNDA:0,_ZN4xlnt6detail13xlsx_consumer22read_calculation_chainEv
FNDA:1164,_ZN4xlnt6detail13xlsx_consumer18read_relationshipsERKNS_4pathE
FNDA:199515,_ZN4xlnt6detail13xlsx_consumer6parserEv
FNDA:1479,_ZN12_GLOBAL__N_116type_from_stringERKNSt7__cxx1112basic_stringIcSt11char_traitsIcESaIcEEE
FNDA:84,_ZN4xlnt6detail13xlsx_consumer24read_extended_propertiesEv
FNDA:102,_ZN4xlnt6detail13xlsx_consumerC2ERNS_8workbookE
FNDA:3,_ZN4xlnt6detail13xlsx_consumer4openERSi
FNDA:15,_ZN12_GLOBAL__N_112string_equalILm4EEEbRKNSt7__cxx1112basic_stringIcSt11char_traitsIcESaIcEEERAT__Kc
FNDA:14,_ZN4xlnt6detail13xlsx_consumer17read_vml_drawingsENS_9worksheetE
FNDA:172,_ZZN4xlnt6detail13xlsx_consumer20read_office_documentERKNSt7__cxx1112basic_stringIcSt11char_traitsIcESaIcEEEENKUlRKSt4pairIS7_S7_EE_clESD_
FNDA:3,_ZN4xlnt6detail13xlsx_consumer13read_drawingsENS_9worksheetERKNS_4pathE
FNDA:0,_ZN4xlnt6detail13xlsx_consumer33read_external_workbook_referencesEv
FNDA:0,_ZN4xlnt6detail13xlsx_consumer15read_chartsheetERKNSt7__cxx1112basic_stringIcSt11char_traitsIcESaIcEEE
FNDA:84,_ZN4xlnt6detail13xlsx_consumer20read_core_propertiesEv
FNDA:11,_ZN4xlnt6detail13xlsx_consumer18unexpected_elementERKN3xml5qnameE
FNDA:265,_ZN4xlnt6detail13xlsx_consumer14skip_attributeERKN3xml5qnameE
FNDA:2046,_ZN12_GLOBAL__N_110parse_cellEjPN3xml6parserERSt13unordered_mapINSt7__cxx1112basic_stringIcSt11char_traitsIcESaIcEEES9_St4hashIS9_ESt8equal_toIS9_ESaISt4pairIKS9_S9_EEERS3_IiS9_SA_IiESC_IiESaISE_IKiS9_EEE
FNDA:46,_ZN4xlnt6detail13xlsx_consumer10read_imageERKNS_4pathE
FNDA:6634,_ZN12_GLOBAL__N_112string_equalILm3EEEbRKNSt7__cxx1112basic_stringIcSt11char_traitsIcESaIcEEERAT__Kc
FNDA:0,_ZN4xlnt6detail13xlsx_consumer16read_pivot_tableEv
FNDA:145,_ZN4xlnt6detail13xlsx_consumer9read_cellEv
FNDA:4460,_ZN12_GLOBAL__N_112string_equalILm6EEEbRKNSt7__cxx1112basic_stringIcSt11char_traitsIcESaIcEEERAT__Kc
FNDA:2229,_ZN12_GLOBAL__N_121string_arr_loop_equalILm13EEEbRKNSt7__cxx1112basic_stringIcSt11char_traitsIcESaIcEEERAT__Kc
FNDA:23920,_ZN4xlnt6detail13xlsx_consumer10in_elementERKN3xml5qnameE
FNDA:2,_ZZN4xlnt6detail13xlsx_consumer13read_drawingsENS_9worksheetERKNS_4pathEENKUlRKNS_12relationshipEE_clES8_
FNDA:755,_ZN4xlnt6detail13xlsx_consumer14read_rich_textERKN3xml5qnameE
FNDA:17807,_ZN12_GLOBAL__N_112string_equalILm2EEEbRKNSt7__cxx1112basic_stringIcSt11char_traitsIcESaIcEEERAT__Kc
FNDA:17694,_ZN4xlnt6detail13xlsx_consumer18expect_end_elementERKN3xml5qnameE
FNDA:1342,_ZN4xlnt6detail13xlsx_consumer10read_colorEv
FNDA:4958,_ZN12_GLOBAL__N_112string_equalILm10EEEbRKNSt7__cxx1112basic_stringIcSt11char_traitsIcESaIcEEERAT__Kc
FNDA:5188,_ZN12_GLOBAL__N_17is_trueERKNSt7__cxx1112basic_stringIcSt11char_traitsIcESaIcEEE
FNDA:96,_ZN4xlnt6detail13xlsx_consumer17populate_workbookEb
FNDA:80325,_ZN12_GLOBAL__N_12qnERKNSt7__cxx1112basic_stringIcSt11char_traitsIcESaIcEEES7_
FNDA:69,_ZN4xlnt6detail13xlsx_consumer24read_shared_string_tableEv
FNDA:72,_ZN4xlnt6detail13xlsx_consumer10read_themeEv
FNDA:85,_ZN4xlnt6detail13xlsx_consumer15read_stylesheetEv
FNDA:19911,_ZZN4xlnt6detail13xlsx_consumer15read_stylesheetEvENKUlRKSt4pairINS0_10style_implEmEE_clES6_
FNDA:0,_ZN4xlnt6detail13xlsx_consumer26read_unknown_relationshipsEv
FNDA:5169,_ZN4xlnt6detail13xlsx_consumer9read_textB5cxx11Ev
FNDA:0,_ZN4xlnt6detail13xlsx_consumer20read_shared_workbookEv
FNF:87
FNH:73
DA:57,19899
DA:59,58421
DA:61,46006
DA:63,7484
DA:66,12415
DA:70,40472
DA:72,40472
DA:74,20573
DA:77,19899
DA:80,80325
DA:83,80325
DA:85,80325
DA:87,80325
DA:89,323
DA:92,80002
DA:98,5188
DA:100,5188
DA:102,2515
DA:114,2673
DA:123,433
DA:126,2861
DA:128,2428
DA:130,409
DA:133,433
DA:142,1479
DA:144,1479
DA:146,1460
DA:148,19
DA:150,2
DA:152,17
DA:154,0
DA:156,17
DA:158,0
DA:160,17
DA:162,2
DA:164,15
DA:166,15
DA:168,0
DA:171,2046
DA:173,2046
DA:174,6425
DA:176,4379
DA:178,2046
DA:180,2333
DA:182,1479
DA:184,854
DA:186,850
DA:188,4
DA:190,4
DA:192,0
DA:194,0
DA:197,2046
DA:202,9321
DA:204,7275
DA:205,7275
DA:207,1597
DA:208,1695
DA:212,45
DA:214,8
DA:215,4
DA:218,1597
DA:219,1597
DA:221,3643
DA:222,3643
DA:223,3643
DA:225,2035
DA:228,2035
DA:231,1589
DA:233,1544
DA:236,45
DA:238,45
DA:240,135
DA:242,14
DA:243,14
DA:244,7
DA:246,4
DA:247,2
DA:249,5
DA:251,5
DA:253,7
DA:256,446
DA:259,2
DA:261,2
DA:264,2035
DA:266,0
DA:272,0
DA:276,7275
DA:278,2046
DA:279,0
DA:282,1590
DA:284,1590
DA:285,6531
DA:287,4941
DA:289,481
DA:291,4460
DA:293,530
DA:295,3930
DA:297,1154
DA:299,2776
DA:301,21
DA:302,21
DA:304,21
DA:307,2755
DA:309,22
DA:311,2733
DA:313,33
DA:315,2700
DA:317,0
DA:319,2700
DA:321,1590
DA:323,1110
DA:325,1086
DA:329,1590
DA:330,5582
DA:332,3992
DA:333,3992
DA:335,2046
DA:336,2046
DA:337,2046
DA:339,1590
DA:340,1590
DA:341,1590
DA:343,356
DA:345,356
DA:347,0
DA:353,0
DA:357,1590
DA:358,0
DA:361,119
DA:363,119
DA:364,119
DA:368,1828
DA:370,1709
DA:371,1709
DA:373,1590
DA:374,1590
DA:375,1590
DA:377,119
DA:378,119
DA:379,119
DA:381,0
DA:383,0
DA:385,0
DA:391,0
DA:395,119
DA:396,0
DA:420,102
DA:421,102
DA:422,102
DA:424,102
DA:426,102
DA:428,102
DA:430,93
DA:432,93
DA:433,93
DA:434,92
DA:436,3
DA:438,3
DA:439,3
DA:440,3
DA:442,145
DA:444,145
DA:447,119
DA:449,119
DA:451,119
DA:453,119
DA:454,119
DA:456,119
DA:458,122
DA:460,141
DA:462,19
DA:464,13
DA:467,6
DA:476,3
DA:477,4
DA:480,4
DA:481,4
DA:482,4
DA:483,4
DA:484,4
DA:485,4
DA:486,4
DA:487,4
DA:488,4
DA:491,4
DA:493,2
DA:497,2
DA:498,2
DA:500,4
DA:501,2
DA:503,2
DA:508,4
DA:510,3
DA:513,1
DA:514,10
DA:516,3
DA:518,1
DA:519,1
DA:521,2
DA:523,2
DA:524,2
DA:527,122
DA:529,122
DA:531,122
DA:533,3
DA:536,122
DA:537,122
DA:539,122
DA:540,122
DA:541,172
DA:542,172
DA:543,122
DA:545,122
DA:547,488
DA:548,488
DA:550,122
DA:552,2274
DA:554,538
DA:556,2152
DA:558,24
DA:559,72
DA:561,0
DA:563,72
DA:565,0
DA:567,72
DA:569,0
DA:571,72
DA:573,0
DA:575,72
DA:577,0
DA:579,72
DA:581,0
DA:583,72
DA:585,9
DA:587,72
DA:589,36
DA:591,72
DA:593,0
DA:595,24
DA:596,52
DA:598,28
DA:600,112
DA:602,0
DA:604,112
DA:606,14
DA:607,14
DA:608,14
DA:609,14
DA:611,84
DA:613,42
DA:614,42
DA:618,0
DA:621,28
DA:622,28
DA:623,24
DA:624,2056
DA:626,121
DA:628,1572
DA:630,220
DA:632,440
DA:634,110
DA:635,220
DA:637,330
DA:639,39
DA:641,330
DA:643,45
DA:646,330
DA:648,39
DA:651,330
DA:652,250
DA:654,12
DA:659,330
DA:660,374
DA:662,77
DA:665,220
DA:669,814
DA:671,66
DA:673,264
DA:675,3
DA:677,9
DA:679,9
DA:682,9
DA:684,6
DA:687,9
DA:689,9
DA:692,9
DA:694,9
DA:697,9
DA:699,9
DA:702,3
DA:703,3
DA:704,252
DA:706,63
DA:708,189
DA:710,180
DA:713,189
DA:715,189
DA:718,189
DA:720,39
DA:723,63
DA:725,63
DA:726,63
DA:727,0
DA:729,0
DA:731,0
DA:733,0
DA:737,0
DA:740,66
DA:741,66
DA:743,330
DA:745,110
DA:746,110
DA:748,1132
DA:750,363
DA:752,81
DA:753,243
DA:755,363
DA:757,9
DA:758,27
DA:760,363
DA:762,242
DA:763,363
DA:766,605
DA:768,68
DA:769,340
DA:772,121
DA:774,648
DA:776,560
DA:778,360
DA:780,630
DA:782,90
DA:783,90
DA:784,180
DA:785,180
DA:795,90
DA:796,180
DA:798,180
DA:800,0
DA:801,90
DA:803,90
DA:804,180
DA:806,90
DA:808,45
DA:809,90
DA:811,180
DA:812,326
DA:813,90
DA:814,180
DA:815,210
DA:816,90
DA:817,270
DA:818,202
DA:819,90
DA:821,270
DA:823,43695
DA:825,43605
DA:827,43605
DA:829,43605
DA:832,43605
DA:834,43535
DA:837,43605
DA:838,43605
DA:839,43605
DA:840,43605
DA:841,43605
DA:842,90
DA:844,488
DA:846,122
DA:849,416
DA:850,538
DA:852,0
DA:853,244
DA:855,119
DA:857,476
DA:859,0
DA:862,119
DA:865,1709
DA:867,1590
DA:869,119
DA:870,2165
DA:872,2046
DA:873,2046
DA:874,2046
DA:875,2046
DA:876,2046
DA:878,850
DA:880,2046
DA:883,2046
DA:884,2046
DA:886,49
DA:888,2046
DA:890,1546
DA:891,1546
DA:893,0
DA:894,0
DA:895,0
DA:897,69
DA:900,69
DA:901,69
DA:903,1460
DA:904,1460
DA:905,1460
DA:907,1460
DA:909,1460
DA:911,2
DA:912,2
DA:913,2
DA:915,15
DA:916,15
DA:917,15
DA:919,0
DA:920,0
DA:921,0
DA:926,119
DA:929,119
DA:931,120
DA:933,120
DA:935,120
DA:936,120
DA:937,120
DA:938,120
DA:940,120
DA:942,1432
DA:944,208
DA:946,832
DA:948,0
DA:950,832
DA:952,0
DA:954,832
DA:956,0
DA:958,832
DA:960,0
DA:962,832
DA:964,2
DA:966,1
DA:968,828
DA:970,0
DA:972,828
DA:974,0
DA:976,828
DA:978,0
DA:980,828
DA:982,2
DA:984,18
DA:986,8
DA:987,6
DA:988,8
DA:991,820
DA:993,24
DA:994,36
DA:996,30
DA:998,36
DA:1000,0
DA:1002,12
DA:1003,12
DA:1004,772
DA:1006,0
DA:1008,772
DA:1010,0
DA:1012,772
DA:1014,51
DA:1017,144
DA:1019,72
DA:1021,180
DA:1023,116
DA:1024,29
DA:1025,50
DA:1027,29
DA:1029,29
DA:1031,29
DA:1033,29
DA:1037,0
DA:1039,29
DA:1040,29
DA:1041,21
DA:1043,7
DA:1045,14
DA:1046,7
DA:1047,42
DA:1049,21
DA:1051,21
DA:1054,21
DA:1056,0
DA:1059,7
DA:1060,7
DA:1062,144
DA:1065,712
DA:1067,12
DA:1068,36
DA:1070,33
DA:1072,36
DA:1074,33
DA:1076,36
DA:1078,33
DA:1080,36
DA:1082,33
DA:1084,36
DA:1086,33
DA:1088,12
DA:1089,12
DA:1090,12
DA:1091,664
DA:1093,102
DA:1095,204
DA:1096,204
DA:1097,204
DA:1098,204
DA:1099,204
DA:1100,204
DA:1102,102
DA:1104,256
DA:1106,25
DA:1107,75
DA:1109,75
DA:1111,75
DA:1113,57
DA:1115,75
DA:1117,63
DA:1119,75
DA:1121,51
DA:1123,75
DA:1125,39
DA:1127,125
DA:1129,25
DA:1131,25
DA:1132,25
DA:1133,25
DA:1134,156
DA:1136,18
DA:1138,54
DA:1139,54
DA:1140,54
DA:1141,54
DA:1142,36
DA:1143,58
DA:1144,36
DA:1145,58
DA:1147,18
DA:1148,18
DA:1149,18
DA:1150,18
DA:1151,18
DA:1152,18
DA:1156,52
DA:1158,34
DA:1160,136
DA:1162,16
DA:1164,72
DA:1166,18
DA:1168,0
DA:1170,0
DA:1172,0
DA:1174,0
DA:1176,0
DA:1178,0
DA:1180,0
DA:1182,0
DA:1186,0
DA:1189,34
DA:1190,34
DA:1192,72
DA:1194,90
DA:1195,36
DA:1197,54
DA:1199,0
DA:1200,0
DA:1201,0
DA:1202,0
DA:1204,0
DA:1207,0
DA:1208,0
DA:1209,0
DA:1210,0
DA:1212,0
DA:1217,54
DA:1219,24
DA:1222,54
DA:1224,26
DA:1233,18
DA:1234,18
DA:1235,84
DA:1237,0
DA:1238,0
DA:1239,0
DA:1240,0
DA:1242,0
DA:1244,0
DA:1246,0
DA:1248,0
DA:1249,0
DA:1252,0
DA:1254,0
DA:1257,0
DA:1258,0
DA:1261,84
DA:1263,0
DA:1264,0
DA:1265,0
DA:1266,0
DA:1268,0
DA:1270,0
DA:1272,0
DA:1274,0
DA:1275,0
DA:1278,0
DA:1280,0
DA:1283,0
DA:1284,0
DA:1287,84
DA:1289,0
DA:1291,84
DA:1293,0
DA:1295,84
DA:1297,0
DA:1299,84
DA:1301,0
DA:1303,84
DA:1305,15
DA:1307,12
DA:1308,3
DA:1309,3
DA:1311,72
DA:1313,14
DA:1315,16
DA:1317,4
DA:1318,4
DA:1319,4
DA:1322,0
DA:1325,208
DA:1326,208
DA:1328,360
DA:1330,120
DA:1332,84
DA:1333,14
DA:1335,14
DA:1336,14
DA:1337,14
DA:1338,14
DA:1339,14
DA:1341,14
DA:1343,14
DA:1345,84
DA:1346,14
DA:1348,14
DA:1349,14
DA:1350,14
DA:1351,14
DA:1353,14
DA:1354,14
DA:1355,14
DA:1357,120
DA:1359,18
DA:1360,3
DA:1362,3
DA:1363,3
DA:1364,3
DA:1365,3
DA:1366,3
DA:1368,3
DA:1369,3
DA:1371,120
DA:1373,25
DA:1378,125
DA:1380,14
DA:1382,18
DA:1384,9
DA:1386,5
DA:1387,5
DA:1389,240
DA:1390,156
DA:1392,199515
DA:1394,199515
DA:1397,147
DA:1399,147
DA:1401,147
DA:1402,935
DA:1404,42
DA:1405,240
DA:1408,156
DA:1412,42
DA:1413,92
DA:1416,6
DA:1417,2
DA:1418,2
DA:1421,160
DA:1422,40
DA:1423,80
DA:1425,40
DA:1431,40
DA:1433,120
DA:1435,21
DA:1438,120
DA:1440,0
DA:1443,120
DA:1445,0
DA:1448,200
DA:1450,175
DA:1453,120
DA:1455,105
DA:1458,120
DA:1463,147
DA:1466,2
DA:1469,580
DA:1471,145
DA:1472,145
DA:1473,145
DA:1474,290
DA:1475,145
DA:1476,145
DA:1477,145
DA:1479,435
DA:1481,0
DA:1484,290
DA:1485,290
DA:1487,435
DA:1489,32
DA:1490,64
DA:1492,32
DA:1499,32
DA:1502,145
DA:1503,145
DA:1504,145
DA:1506,1305
DA:1508,145
DA:1510,580
DA:1512,144
DA:1513,144
DA:1515,4
DA:1517,0
DA:1518,0
DA:1519,0
DA:1520,0
DA:1521,0
DA:1523,0
DA:1525,0
DA:1526,0
DA:1528,0
DA:1529,0
DA:1530,0
DA:1532,0
DA:1535,0
DA:1537,0
DA:1538,0
DA:1539,0
DA:1541,0
DA:1543,0
DA:1546,0
DA:1548,0
DA:1550,0
DA:1552,0
DA:1554,0
DA:1556,0
DA:1559,0
DA:1561,0
DA:1562,0
DA:1564,0
DA:1568,4
DA:1570,4
DA:1571,1
DA:1572,1
DA:1573,4
DA:1577,0
DA:1580,145
DA:1581,145
DA:1583,435
DA:1585,145
DA:1587,0
DA:1590,145
DA:1592,145
DA:1594,0
DA:1595,0
DA:1597,145
DA:1599,1
DA:1600,1
DA:1602,144
DA:1604,144
DA:1605,144
DA:1607,0
DA:1609,0
DA:1611,0
DA:1613,0
DA:1615,0
DA:1617,0
DA:1621,145
DA:1622,145
DA:1624,1164
DA:1626,5820
DA:1628,1164
DA:1629,1164
DA:1631,235
DA:1632,235
DA:1633,235
DA:1634,235
DA:1636,940
DA:1638,4283
DA:1640,3885
DA:1642,1554
DA:1643,1614
DA:1644,777
DA:1645,777
DA:1647,777
DA:1649,18
DA:1652,777
DA:1653,1554
DA:1654,1554
DA:1656,2331
DA:1657,777
DA:1659,705
DA:1660,235
DA:1662,235
DA:1663,1164
DA:1665,1
DA:1667,1
DA:1668,1
DA:1669,1
DA:1670,1
DA:1671,1
DA:1672,1
DA:1674,663
DA:1676,663
DA:1677,663
DA:1678,663
DA:1679,663
DA:1680,663
DA:1681,663
DA:1683,663
DA:1685,84
DA:1686,84
DA:1687,84
DA:1689,84
DA:1690,84
DA:1691,84
DA:1693,4
DA:1694,4
DA:1695,4
DA:1697,96
DA:1698,97
DA:1699,95
DA:1701,0
DA:1702,0
DA:1703,0
DA:1705,0
DA:1706,0
DA:1707,0
DA:1709,0
DA:1710,0
DA:1711,0
DA:1713,0
DA:1714,0
DA:1715,0
DA:1717,0
DA:1718,0
DA:1719,0
DA:1721,0
DA:1722,0
DA:1723,0
DA:1725,69
DA:1726,69
DA:1727,69
DA:1729,84
DA:1730,84
DA:1731,84
DA:1733,72
DA:1734,72
DA:1735,72
DA:1737,0
DA:1738,0
DA:1739,0
DA:1741,0
DA:1742,0
DA:1743,0
DA:1745,119
DA:1746,119
DA:1747,119
DA:1749,42
DA:1750,42
DA:1751,42
DA:1753,0
DA:1754,0
DA:1755,0
DA:1757,0
DA:1758,0
DA:1760,0
DA:1761,0
DA:1763,0
DA:1764,0
DA:1766,0
DA:1767,0
DA:1769,5
DA:1770,5
DA:1771,5
DA:1773,0
DA:1774,0
DA:1776,0
DA:1777,0
DA:1779,0
DA:1780,0
DA:1782,0
DA:1783,0
DA:1785,0
DA:1786,0
DA:1788,0
DA:1789,0
DA:1791,0
DA:1792,0
DA:1794,0
DA:1795,0
DA:1797,0
DA:1798,0
DA:1800,0
DA:1801,0
DA:1803,2
DA:1804,2
DA:1805,2
DA:1807,2
DA:1808,2
DA:1809,2
DA:1812,662
DA:1813,666
DA:1815,96
DA:1817,96
DA:1819,96
DA:1821,96
DA:1822,96
DA:1824,406
DA:1826,310
DA:1827,96
DA:1829,406
DA:1831,310
DA:1834,96
DA:1837,642
DA:1838,406
DA:1840,1164
DA:1842,1535
DA:1844,467
DA:1845,1068
DA:1846,96
DA:1848,289
DA:1850,407
DA:1854,96
DA:1856,96
DA:1857,192
DA:1858,96
DA:1859,96
DA:1860,96
DA:1862,384
DA:1864,4184
DA:1866,926
DA:1868,3704
DA:1870,474
DA:1871,237
DA:1872,237
DA:1873,237
DA:1874,2756
DA:1876,1378
DA:1877,689
DA:1878,689
DA:1879,689
DA:1882,0
DA:1885,926
DA:1886,926
DA:1888,288
DA:1889,96
DA:1891,84
DA:1895,336
DA:1897,2060
DA:1899,410
DA:1900,410
DA:1901,410
DA:1903,624
DA:1905,410
DA:1906,410
DA:1907,410
DA:1909,252
DA:1910,84
DA:1912,84
DA:1914,336
DA:1916,3324
DA:1918,726
DA:1919,726
DA:1920,726
DA:1921,726
DA:1922,726
DA:1924,252
DA:1925,84
DA:1927,4
DA:1929,16
DA:1931,36
DA:1933,4
DA:1934,8
DA:1935,8
DA:1936,8
DA:1937,4
DA:1938,4
DA:1939,4
DA:1941,12
DA:1942,4
DA:1944,96
DA:1946,192
DA:1948,96
DA:1949,3
DA:1951,3
DA:1952,99
DA:1954,3
DA:1956,1
DA:1959,95
DA:1961,475
DA:1962,285
DA:1964,2663
DA:1966,547
DA:1968,2188
DA:1970,77
DA:1972,231
DA:1974,231
DA:1977,231
DA:1979,198
DA:1982,231
DA:1984,198
DA:1987,231
DA:1989,198
DA:1992,77
DA:1994,77
DA:1995,77
DA:1996,1880
DA:1998,0
DA:2000,1880
DA:2002,351
DA:2004,39
DA:2006,234
DA:2007,156
DA:2008,273
DA:2010,39
DA:2012,156
DA:2014,117
DA:2017,39
DA:2018,39
DA:2019,39
DA:2021,39
DA:2022,39
DA:2023,39
DA:2025,1724
DA:2027,384
DA:2028,107
DA:2031,190
DA:2032,190
DA:2033,190
DA:2034,190
DA:2035,190
DA:2036,190
DA:2037,190
DA:2038,190
DA:2039,190
DA:2040,190
DA:2041,190
DA:2042,190
DA:2043,190
DA:2044,190
DA:2045,190
DA:2046,190
DA:2047,190
DA:2048,190
DA:2050,1344
DA:2052,14
DA:2054,1288
DA:2056,747
DA:2058,332
DA:2059,166
DA:2062,83
DA:2064,249
DA:2066,237
DA:2069,249
DA:2071,237
DA:2074,249
DA:2076,237
DA:2079,249
DA:2081,237
DA:2084,249
DA:2086,174
DA:2089,249
DA:2091,32
DA:2092,16
DA:2095,83
DA:2097,83
DA:2098,249
DA:2099,83
DA:2101,956
DA:2103,95
DA:2105,963
DA:2107,488
DA:2109,244
DA:2111,122
DA:2112,244
DA:2113,488
DA:2115,488
DA:2116,122
DA:2118,366
DA:2119,122
DA:2121,576
DA:2123,1
DA:2125,572
DA:2127,1
DA:2129,568
DA:2131,58
DA:2133,28
DA:2135,7
DA:2136,14
DA:2137,21
DA:2139,18
DA:2141,21
DA:2143,3
DA:2145,7
DA:2146,7
DA:2147,7
DA:2149,21
DA:2150,7
DA:2152,544
DA:2154,81
DA:2155,243
DA:2157,207
DA:2159,243
DA:2161,135
DA:2163,81
DA:2164,81
DA:2166,220
DA:2168,0
DA:2170,220
DA:2172,0
DA:2174,220
DA:2176,0
DA:2178,220
DA:2180,0
DA:2182,220
DA:2184,0
DA:2186,220
DA:2188,0
DA:2190,220
DA:2192,0
DA:2194,220
DA:2196,0
DA:2198,220
DA:2200,404
DA:2202,46
DA:2204,276
DA:2205,184
DA:2206,322
DA:2208,21
DA:2210,84
DA:2212,63
DA:2215,21
DA:2216,21
DA:2217,21
DA:2219,46
DA:2220,46
DA:2221,46
DA:2225,11
DA:2228,547
DA:2229,547
DA:2231,285
DA:2233,190
DA:2234,95
DA:2236,95
DA:2241,95
DA:2243,475
DA:2245,380
DA:2247,908
DA:2248,454
DA:2252,217
DA:2254,122
DA:2255,122
DA:2256,172
DA:2257,172
DA:2258,122
DA:2260,122
DA:2261,122
DA:2263,122
DA:2264,141
DA:2265,141
DA:2267,19
DA:2270,122
DA:2272,122
DA:2274,476
DA:2276,217
DA:2277,441
DA:2281,0
DA:2283,0
DA:2285,0
DA:2287,0
DA:2289,0
DA:2291,0
DA:2293,0
DA:2295,0
DA:2297,0
DA:2299,0
DA:2301,0
DA:2303,0
DA:2305,0
DA:2307,0
DA:2309,0
DA:2311,0
DA:2313,69
DA:2315,276
DA:2316,138
DA:2318,3253
DA:2320,3635
DA:2321,2181
DA:2322,727
DA:2323,2181
DA:2324,727
DA:2326,207
DA:2338,69
DA:2340,0
DA:2342,0
DA:2344,0
DA:2346,0
DA:2348,0
DA:2350,0
DA:2352,85
DA:2354,85
DA:2355,85
DA:2357,340
DA:2358,340
DA:2360,85
DA:2361,85
DA:2362,85
DA:2364,3309
DA:2366,721
DA:2368,2884
DA:2370,84
DA:2371,84
DA:2372,252
DA:2374,168
DA:2375,84
DA:2378,1148
DA:2380,182
DA:2381,182
DA:2383,728
DA:2385,182
DA:2387,568
DA:2389,0
DA:2392,568
DA:2394,0
DA:2397,182
DA:2399,0
DA:2402,4514
DA:2404,901
DA:2406,901
DA:2408,2703
DA:2410,777
DA:2413,901
DA:2415,1032
DA:2416,258
DA:2417,1032
DA:2420,901
DA:2422,901
DA:2423,901
DA:2424,901
DA:2426,728
DA:2435,84
DA:2436,2548
DA:2438,85
DA:2439,85
DA:2440,255
DA:2442,170
DA:2443,85
DA:2446,2241
DA:2448,454
DA:2449,454
DA:2451,2270
DA:2453,1816
DA:2456,453
DA:2458,1812
DA:2460,453
DA:2462,1359
DA:2464,900
DA:2466,4210
DA:2468,490
DA:2470,1960
DA:2472,285
DA:2474,820
DA:2476,205
DA:2480,0
DA:2483,490
DA:2484,490
DA:2487,453
DA:2488,453
DA:2489,0
DA:2491,0
DA:2493,0
DA:2495,0
DA:2499,0
DA:2502,0
DA:2504,0
DA:2505,0
DA:2506,0
DA:2507,0
DA:2508,0
DA:2509,0
DA:2511,0
DA:2512,0
DA:2514,0
DA:2515,0
DA:2518,0
DA:2521,453
DA:2522,453
DA:2524,1816
DA:2533,85
DA:2534,2208
DA:2536,84
DA:2537,84
DA:2538,252
DA:2540,168
DA:2541,84
DA:2544,420
DA:2546,49
DA:2549,2464
DA:2551,511
DA:2552,511
DA:2554,2044
DA:2556,13139
DA:2558,2646
DA:2560,10584
DA:2562,1530
DA:2564,8544
DA:2566,1533
DA:2568,6500
DA:2570,453
DA:2572,4688
DA:2574,1308
DA:2576,2944
DA:2578,1182
DA:2580,1368
DA:2582,342
DA:2584,27
DA:2588,105
DA:2591,912
DA:2593,54
DA:2595,27
DA:2597,9
DA:2599,18
DA:2601,18
DA:2603,27
DA:2604,804
DA:2606,60
DA:2608,0
DA:2612,20
DA:2615,724
DA:2617,0
DA:2619,0
DA:2623,0
DA:2626,724
DA:2628,0
DA:2630,0
DA:2634,0
DA:2637,724
DA:2639,135
DA:2641,0
DA:2645,45
DA:2648,544
DA:2650,198
DA:2652,132
DA:2656,22
DA:2659,280
DA:2661,210
DA:2663,210
DA:2668,0
DA:2671,2646
DA:2672,2646
DA:2674,2044
DA:2683,84
DA:2684,1872
DA:2686,17
DA:2687,17
DA:2688,51
DA:2690,34
DA:2691,17
DA:2694,193
DA:2696,108
DA:2698,54
DA:2700,27
DA:2702,0
DA:2705,27
DA:2707,27
DA:2708,81
DA:2710,81
DA:2712,27
DA:2713,27
DA:2721,17
DA:2722,1804
DA:2724,83
DA:2725,249
DA:2727,166
DA:2728,83
DA:2731,2915
DA:2733,625
DA:2735,2500
DA:2737,1250
DA:2738,1250
DA:2740,1875
DA:2742,1539
DA:2745,1875
DA:2747,9
DA:2750,1875
DA:2752,1281
DA:2755,2500
DA:2764,83
DA:2765,2208
DA:2766,2608
DA:2768,168
DA:2769,168
DA:2770,504
DA:2772,336
DA:2773,168
DA:2775,84
DA:2779,84
DA:2783,1381
DA:2785,4852
DA:2787,1213
DA:2788,1213
DA:2789,1213
DA:2791,3639
DA:2793,1917
DA:2795,2426
DA:2796,4822
DA:2797,1213
DA:2799,3639
DA:2801,435
DA:2803,2426
DA:2804,4806
DA:2805,1213
DA:2807,3639
DA:2809,1479
DA:2811,2426
DA:2812,4852
DA:2813,1213
DA:2815,3639
DA:2817,1524
DA:2819,2426
DA:2820,4838
DA:2821,1213
DA:2823,2426
DA:2824,1213
DA:2826,2286
DA:2829,2426
DA:2830,1213
DA:2832,1782
DA:2835,2426
DA:2836,2432
DA:2837,2426
DA:2838,2432
DA:2840,3639
DA:2842,1233
DA:2845,8049
DA:2847,496
DA:2849,1984
DA:2851,474
DA:2852,474
DA:2854,1422
DA:2856,282
DA:2859,1422
DA:2861,123
DA:2864,1422
DA:2866,120
DA:2869,1422
DA:2871,93
DA:2874,1422
DA:2876,1197
DA:2879,1422
DA:2881,342
DA:2884,1422
DA:2886,3
DA:2889,88
DA:2891,22
DA:2892,22
DA:2894,66
DA:2895,110
DA:2896,88
DA:2897,110
DA:2901,0
DA:2904,496
DA:2905,496
DA:2907,4852
DA:2917,168
DA:2918,800
DA:2920,69
DA:2922,69
DA:2924,0
DA:2925,0
DA:2926,0
DA:2927,0
DA:2928,0
DA:2941,524
DA:2943,142
DA:2944,71
DA:2946,71
DA:2948,355
DA:2950,0
DA:2951,0
DA:2952,0
DA:2953,0
DA:2954,0
DA:2967,240
DA:2969,577
DA:2971,292
DA:2973,146
DA:2975,73
DA:2977,228
DA:2978,171
DA:2979,228
DA:2983,64
DA:2986,219
DA:2987,73
DA:2989,12
DA:2991,27
DA:2993,3
DA:2995,12
DA:2997,93
DA:2999,360
DA:3000,90
DA:3001,360
DA:3004,0
DA:3006,0
DA:3010,0
DA:3013,3
DA:3014,3
DA:3018,0
DA:3021,721
DA:3022,721
DA:3024,255
DA:3026,85
DA:3028,865
DA:3030,780
DA:3031,19911
DA:3032,780
DA:3034,780
DA:3036,625
DA:3038,625
DA:3039,625
DA:3040,625
DA:3041,625
DA:3042,625
DA:3043,625
DA:3044,625
DA:3045,625
DA:3047,625
DA:3048,625
DA:3049,625
DA:3050,625
DA:3051,625
DA:3052,625
DA:3053,625
DA:3054,625
DA:3055,625
DA:3056,625
DA:3059,85
DA:3061,518
DA:3063,433
DA:3064,433
DA:3066,433
DA:3067,433
DA:3069,433
DA:3071,433
DA:3072,433
DA:3073,433
DA:3074,433
DA:3075,433
DA:3076,433
DA:3077,433
DA:3078,433
DA:3079,433
DA:3080,433
DA:3081,433
DA:3082,433
DA:3083,433
DA:3084,433
DA:3086,433
DA:3088,255
DA:3090,72
DA:3092,216
DA:3093,72
DA:3094,72
DA:3095,72
DA:3096,360
DA:3098,72
DA:3100,72
DA:3102,10
DA:3103,4
DA:3106,146
DA:3108,0
DA:3110,0
DA:3114,14
DA:3116,14
DA:3118,14
DA:3120,14
DA:3122,70
DA:3124,42
DA:3125,56
DA:3127,126
DA:3129,56
DA:3130,14
DA:3131,56
DA:3134,42
DA:3135,56
DA:3137,182
DA:3139,140
DA:3141,28
DA:3142,56
DA:3143,56
DA:3145,112
DA:3147,140
DA:3149,112
DA:3151,112
DA:3153,0
DA:3154,0
DA:3155,0
DA:3158,84
DA:3159,28
DA:3161,56
DA:3162,42
DA:3163,14
DA:3165,3
DA:3167,3
DA:3169,3
DA:3171,5
DA:3173,2
DA:3174,2
DA:3176,2
DA:3178,2
DA:3180,2
DA:3181,2
DA:3182,3
DA:3184,3
DA:3185,3
DA:3189,0
DA:3191,0
DA:3193,0
DA:3195,0
DA:3197,46
DA:3199,46
DA:3200,46
DA:3201,46
DA:3202,46
DA:3203,46
DA:3205,7
DA:3207,7
DA:3208,7
DA:3209,7
DA:3210,7
DA:3211,7
DA:3213,5169
DA:3215,5169
DA:3217,7705
DA:3219,2536
DA:3220,2536
DA:3223,5169
DA:3224,0
DA:3226,973
DA:3228,973
DA:3230,973
DA:3232,381
DA:3233,381
DA:3235,3413
DA:3237,176
DA:3239,1524
DA:3241,71
DA:3242,71
DA:3250,71
DA:3253,1524
DA:3255,0
DA:3257,1524
DA:3259,268
DA:3260,268
DA:3262,134
DA:3264,377
DA:3266,243
DA:3268,710
DA:3271,243
DA:3273,243
DA:3275,426
DA:3276,142
DA:3280,134
DA:3281,134
DA:3283,381
DA:3284,381
DA:3285,381
DA:3287,973
DA:3288,0
DA:3290,392
DA:3292,2943
DA:3294,2551
DA:3296,275
DA:3299,392
DA:3301,207
DA:3303,414
DA:3305,207
DA:3307,130
DA:3310,207
DA:3312,1491
DA:3314,1491
DA:3315,1491
DA:3317,265
DA:3319,265
DA:3321,197
DA:3323,265
DA:3325,2027
DA:3327,2027
DA:3329,222
DA:3331,2027
DA:3333,475
DA:3337,475
DA:3338,475
DA:3341,526
DA:3343,51
DA:3344,51
DA:3345,51
DA:3346,51
DA:3347,51
DA:3348,475
DA:3350,23920
DA:3352,23920
DA:3353,23920
DA:3356,11057
DA:3358,11057
DA:3359,11057
DA:3360,11057
DA:3362,33171
DA:3363,11057
DA:3365,22114
DA:3366,11057
DA:3368,6760
DA:3370,6760
DA:3371,6760
DA:3372,6760
DA:3374,20280
DA:3375,6760
DA:3376,6760
DA:3378,17694
DA:3380,17694
DA:3381,17694
DA:3382,17694
DA:3383,17694
DA:3385,11
DA:3390,11
DA:3392,11
DA:3394,755
DA:3396,755
DA:3397,755
DA:3399,1567
DA:3401,812
DA:3402,2436
DA:3403,812
DA:3404,812
DA:3405,812
DA:3406,812
DA:3407,812
DA:3409,1624
DA:3411,725
DA:3413,174
DA:3415,51
DA:3416,51
DA:3418,357
DA:3420,102
DA:3421,102
DA:3423,204
DA:3425,51
DA:3427,601
DA:3429,224
DA:3431,448
DA:3433,153
DA:3435,346
DA:3437,153
DA:3439,244
DA:3441,51
DA:3443,142
DA:3445,42
DA:3447,114
DA:3449,0
DA:3451,114
DA:3453,39
DA:3455,88
DA:3457,108
DA:3458,36
DA:3461,16
DA:3463,0
DA:3464,0
DA:3467,16
DA:3469,18
DA:3471,0
DA:3475,6
DA:3478,4
DA:3480,6
DA:3481,2
DA:3486,0
DA:3489,224
DA:3490,224
DA:3491,224
DA:3493,102
DA:3495,51
DA:3499,0
DA:3502,102
DA:3503,102
DA:3504,102
DA:3505,102
DA:3507,51
DA:3508,51
DA:3509,72
DA:3511,2
DA:3512,4
DA:3513,4
DA:3515,4
DA:3516,2
DA:3518,2
DA:3520,2
DA:3523,2
DA:3525,2
DA:3526,2
DA:3527,68
DA:3529,68
DA:3530,102
DA:3532,96
DA:3534,102
DA:3536,0
DA:3538,34
DA:3539,34
DA:3542,0
DA:3545,812
DA:3546,812
DA:3547,812
DA:3549,755
DA:3550,0
DA:3552,1342
DA:3554,1342
DA:3556,4034
DA:3558,4
DA:3559,4
DA:3562,4014
DA:3564,1287
DA:3566,2727
DA:3568,1752
DA:3570,975
DA:3572,975
DA:3575,4014
DA:3577,540
DA:3580,1338
DA:3581,0
DA:3583,2059
DA:3585,2059
LF:1846
LH:1548
end_of_record
TN:
SF:/root/project/source/detail/serialization/xlsx_producer.cpp
FN:53,_ZN12_GLOBAL__N_123core_property_namespaceEN4xlnt13core_propertyE
FN:85,_ZN4xlnt6detail13xlsx_producerC2ERKNS_8workbookE
FN:93,_ZN4xlnt6detail13xlsx_producerD2Ev
FN:99,_ZN4xlnt6detail13xlsx_producer5writeERSo
FN:105,_ZN4xlnt6detail13xlsx_producer4openERSo
FN:111,_ZN4xlnt6detail13xlsx_producer8add_cellERKNS_14cell_referenceE
FN:119,_ZN4xlnt6detail13xlsx_producer13add_worksheetERKNSt7__cxx1112basic_stringIcSt11char_traitsIcESaIcEEE
FN:127,_ZN4xlnt6detail13xlsx_producer16populate_archiveEb
FN:173,_ZN4xlnt6detail13xlsx_producer8end_partEv
FN:183,_ZN4xlnt6detail13xlsx_producer10begin_partERKNS_4pathE
FN:196,_ZN4xlnt6detail13xlsx_producer19write_content_typesEv
FN:225,_ZN4xlnt6detail13xlsx_producer14write_propertyERKNSt7__cxx1112basic_stringIcSt11char_traitsIcESaIcEEERKNS_7variantES9_bm
FN:367,_ZN4xlnt6detail13xlsx_producer21write_core_propertiesERKNS_12relationshipE
FN:396,_ZN4xlnt6detail13xlsx_producer25write_extended_propertiesERKNS_12relationshipE
FN:416,_ZN4xlnt6detail13xlsx_producer23write_custom_propertiesERKNS_12relationshipE
FN:435,_ZN4xlnt6detail13xlsx_producer14write_workbookERKNS_12relationshipE
FN:856,_ZN4xlnt6detail13xlsx_producer16write_chartsheetERKNS_12relationshipE
FN:862,_ZN4xlnt6detail13xlsx_producer17write_connectionsERKNS_12relationshipE
FN:868,_ZN4xlnt6detail13xlsx_producer25write_custom_xml_mappingsERKNS_12relationshipE
FN:874,_ZN4xlnt6detail13xlsx_producer17write_dialogsheetERKNS_12relationshipE
FN:880,_ZN4xlnt6detail13xlsx_producer34write_external_workbook_referencesERKNS_12relationshipE
FN:886,_ZN4xlnt6detail13xlsx_producer17write_pivot_tableERKNS_12relationshipE
FN:892,_ZN4xlnt6detail13xlsx_producer15write_rich_textERKNSt7__cxx1112basic_stringIcSt11char_traitsIcESaIcEEERKNS_9rich_textE
FN:993,_ZN4xlnt6detail13xlsx_producer25write_shared_string_tableERKNS_12relationshipE
FN:1039,_ZN4xlnt6detail13xlsx_producer38write_shared_workbook_revision_headersERKNS_12relationshipE
FN:1045,_ZN4xlnt6detail13xlsx_producer21write_shared_workbookERKNS_12relationshipE
FN:1051,_ZN4xlnt6detail13xlsx_producer31write_shared_workbook_user_dataERKNS_12relationshipE
FN:1057,_ZN4xlnt6detail13xlsx_producer10write_fontERKNS_4fontE
FN:1142,_ZN4xlnt6detail13xlsx_producer10write_fillERKNS_4fillE
FN:1220,_ZN4xlnt6detail13xlsx_producer12write_borderERKNS_6borderE
FN:1265,_ZN4xlnt6detail13xlsx_producer12write_stylesERKNS_12relationshipE
FN:1277,_ZZN4xlnt6detail13xlsx_producer12write_stylesERKNS_12relationshipEENKUlRKNSt7__cxx1112basic_stringIcSt11char_traitsIcESaIcEEEE_clESC_
FN:1300,_ZZN4xlnt6detail13xlsx_producer12write_stylesERKNS_12relationshipEENKUlRKNS_13number_formatEE_clES7_
FN:1331,_ZZN4xlnt6detail13xlsx_producer12write_stylesERKNS_12relationshipEENKUlRKNS_4fontEE_clES7_
FN:1783,_ZN4xlnt6detail13xlsx_producer11write_themeERKNS_12relationshipE
FN:2254,_ZN4xlnt6detail13xlsx_producer27write_volatile_dependenciesERKNS_12relationshipE
FN:2260,_ZN4xlnt6detail13xlsx_producer15write_worksheetERKNS_12relationshipE
FN:2271,_ZZN4xlnt6detail13xlsx_producer15write_worksheetERKNS_12relationshipEENKUlRKSt4pairINSt7__cxx1112basic_stringIcSt11char_traitsIcESaIcEEESB_EE_clESE_
FN:2281,_ZZN4xlnt6detail13xlsx_producer15write_worksheetERKNS_12relationshipEENKUlRKNSt7__cxx1112basic_stringIcSt11char_traitsIcESaIcEEEE_clESC_
FN:3141,_ZZN4xlnt6detail13xlsx_producer15write_worksheetERKNS_12relationshipEENKUlRKNS_4pathERKNSt7__cxx1112basic_stringIcSt11char_traitsIcESaIcEEEE_clES7_SF_
FN:3169,_ZN4xlnt6detail13xlsx_producer14write_commentsERKNS_12relationshipENS_9worksheetERKSt6vectorINS_14cell_referenceESaIS7_EE
FN:3228,_ZN4xlnt6detail13xlsx_producer18write_vml_drawingsERKNS_12relationshipENS_9worksheetERKSt6vectorINS_14cell_referenceESaIS7_EE
FN:3365,_ZN4xlnt6detail13xlsx_producer14write_drawingsERKNS_12relationshipENS_9worksheetE
FN:3399,_ZN4xlnt6detail13xlsx_producer21write_custom_propertyEv
FN:3403,_ZN4xlnt6detail13xlsx_producer19write_unknown_partsEv
FN:3407,_ZN4xlnt6detail13xlsx_producer27write_unknown_relationshipsEv
FN:3411,_ZN4xlnt6detail13xlsx_producer11write_imageERKNS_4pathE
FN:3420,_ZN4xlnt6detail13xlsx_producer12write_binaryERKNS_4pathE
FN:3429,_ZNK4xlnt6detail13xlsx_producer10write_boolB5cxx11Eb
FN:3434,_ZN4xlnt6detail13xlsx_producer19write_relationshipsERKSt6vectorINS_12relationshipESaIS3_EERKNS_4pathE
FN:3454,_ZZN4xlnt6detail13xlsx_producer19write_relationshipsERKSt6vectorINS_12relationshipESaIS3_EERKNS_4pathEENKUlRKS3_E_clESC_
FN:3474,_ZN4xlnt6detail13xlsx_producer11write_colorERKNS_5colorE
FN:3501,_ZN4xlnt6detail13xlsx_producer19write_start_elementERKNSt7__cxx1112basic_stringIcSt11char_traitsIcESaIcEEE
FN:3506,_ZN4xlnt6detail13xlsx_producer19write_start_elementERKNSt7__cxx1112basic_stringIcSt11char_traitsIcESaIcEEES9_
FN:3511,_ZN4xlnt6detail13xlsx_producer17write_end_elementERKNSt7__cxx1112basic_stringIcSt11char_traitsIcESaIcEEE
FN:3516,_ZN4xlnt6detail13xlsx_producer17write_end_elementERKNSt7__cxx1112basic_stringIcSt11char_traitsIcESaIcEEES9_
FN:3521,_ZN4xlnt6detail13xlsx_producer15write_namespaceERKNSt7__cxx1112basic_stringIcSt11char_traitsIcESaIcEEES9_
FNDA:34,_ZN4xlnt6detail13xlsx_producer11write_imageERKNS_4pathE
FNDA:56,_ZN4xlnt6detail13xlsx_producer15write_worksheetERKNS_12relationshipE
FNDA:47,_ZN4xlnt6detail13xlsx_producer14write_workbookERKNS_12relationshipE
FNDA:984,_ZZN4xlnt6detail13xlsx_producer19write_relationshipsERKSt6vectorINS_12relationshipESaIS3_EERKNS_4pathEENKUlRKS3_E_clESC_
FNDA:0,_ZN4xlnt6detail13xlsx_producer31write_shared_workbook_user_dataERKNS_12relationshipE
FNDA:0,_ZN4xlnt6detail13xlsx_producer27write_unknown_relationshipsEv
FNDA:24,_ZN4xlnt6detail13xlsx_producer19write_start_elementERKNSt7__cxx1112basic_stringIcSt11char_traitsIcESaIcEEE
FNDA:44,_ZN4xlnt6detail13xlsx_producer11write_themeERKNS_12relationshipE
FNDA:0,_ZN4xlnt6detail13xlsx_producer17write_pivot_tableERKNS_12relationshipE
FNDA:0,_ZN4xlnt6detail13xlsx_producer34write_external_workbook_referencesERKNS_12relationshipE
FNDA:3,_ZN4xlnt6detail13xlsx_producer23write_custom_propertiesERKNS_12relationshipE
FNDA:88,_ZN4xlnt6detail13xlsx_producer12write_borderERKNS_6borderE
FNDA:47,_ZN4xlnt6detail13xlsx_producer16populate_archiveEb
FNDA:2,_ZN4xlnt6detail13xlsx_producer8add_cellERKNS_14cell_referenceE
FNDA:0,_ZN4xlnt6detail13xlsx_producer17write_dialogsheetERKNS_12relationshipE
FNDA:651,_ZN4xlnt6detail13xlsx_producer14write_propertyERKNSt7__cxx1112basic_stringIcSt11char_traitsIcESaIcEEERKNS_7variantES9_bm
FNDA:41577,_ZN4xlnt6detail13xlsx_producer17write_end_elementERKNSt7__cxx1112basic_stringIcSt11char_traitsIcESaIcEEES9_
FNDA:404,_ZN12_GLOBAL__N_123core_property_namespaceEN4xlnt13core_propertyE
FNDA:46,_ZN4xlnt6detail13xlsx_producer5writeERSo
FNDA:2249,_ZNK4xlnt6detail13xlsx_producer10write_boolB5cxx11Eb
FNDA:47,_ZN4xlnt6detail13xlsx_producerC2ERKNS_8workbookE
FNDA:21,_ZZN4xlnt6detail13xlsx_producer12write_stylesERKNS_12relationshipEENKUlRKNS_13number_formatEE_clES7_
FNDA:0,_ZN4xlnt6detail13xlsx_producer38write_shared_workbook_revision_headersERKNS_12relationshipE
FNDA:33,_ZN4xlnt6detail13xlsx_producer25write_shared_string_tableERKNS_12relationshipE
FNDA:107,_ZN4xlnt6detail13xlsx_producer19write_relationshipsERKSt6vectorINS_12relationshipESaIS3_EERKNS_4pathE
FNDA:1,_ZN4xlnt6detail13xlsx_producer4openERSo
FNDA:452,_ZN4xlnt6detail13xlsx_producer15write_rich_textERKNSt7__cxx1112basic_stringIcSt11char_traitsIcESaIcEEERKNS_9rich_textE
FNDA:49,_ZZN4xlnt6detail13xlsx_producer15write_worksheetERKNS_12relationshipEENKUlRKNS_4pathERKNSt7__cxx1112basic_stringIcSt11char_traitsIcESaIcEEEE_clES7_SF_
FNDA:2,_ZN4xlnt6detail13xlsx_producer14write_drawingsERKNS_12relationshipENS_9worksheetE
FNDA:488,_ZN4xlnt6detail13xlsx_producer10begin_partERKNS_4pathE
FNDA:0,_ZN4xlnt6detail13xlsx_producer17write_connectionsERKNS_12relationshipE
FNDA:0,_ZN4xlnt6detail13xlsx_producer21write_custom_propertyEv
FNDA:157,_ZZN4xlnt6detail13xlsx_producer12write_stylesERKNS_12relationshipEENKUlRKNS_4fontEE_clES7_
FNDA:8,_ZN4xlnt6detail13xlsx_producer18write_vml_drawingsERKNS_12relationshipENS_9worksheetERKSt6vectorINS_14cell_referenceESaIS7_EE
FNDA:47,_ZN4xlnt6detail13xlsx_producer19write_content_typesEv
FNDA:44,_ZN4xlnt6detail13xlsx_producer21write_core_propertiesERKNS_12relationshipE
FNDA:56,_ZZN4xlnt6detail13xlsx_producer15write_worksheetERKNS_12relationshipEENKUlRKNSt7__cxx1112basic_stringIcSt11char_traitsIcESaIcEEEE_clESC_
FNDA:47,_ZN4xlnt6detail13xlsx_producerD2Ev
FNDA:206,_ZN4xlnt6detail13xlsx_producer10write_fontERKNS_4fontE
FNDA:227,_ZN4xlnt6detail13xlsx_producer10write_fillERKNS_4fillE
FNDA:618,_ZN4xlnt6detail13xlsx_producer8end_partEv
FNDA:0,_ZN4xlnt6detail13xlsx_producer21write_shared_workbookERKNS_12relationshipE
FNDA:45,_ZN4xlnt6detail13xlsx_producer12write_stylesERKNS_12relationshipE
FNDA:0,_ZN4xlnt6detail13xlsx_producer27write_volatile_dependenciesERKNS_12relationshipE
FNDA:41577,_ZN4xlnt6detail13xlsx_producer19write_start_elementERKNSt7__cxx1112basic_stringIcSt11char_traitsIcESaIcEEES9_
FNDA:602,_ZN4xlnt6detail13xlsx_producer11write_colorERKNS_5colorE
FNDA:24,_ZN4xlnt6detail13xlsx_producer17write_end_elementERKNSt7__cxx1112basic_stringIcSt11char_traitsIcESaIcEEE
FNDA:44,_ZN4xlnt6detail13xlsx_producer25write_extended_propertiesERKNS_12relationshipE
FNDA:1098,_ZN4xlnt6detail13xlsx_producer15write_namespaceERKNSt7__cxx1112basic_stringIcSt11char_traitsIcESaIcEEES9_
FNDA:8,_ZN4xlnt6detail13xlsx_producer14write_commentsERKNS_12relationshipENS_9worksheetERKSt6vectorINS_14cell_referenceESaIS7_EE
FNDA:0,_ZN4xlnt6detail13xlsx_producer16write_chartsheetERKNS_12relationshipE
FNDA:0,_ZN4xlnt6detail13xlsx_producer19write_unknown_partsEv
FNDA:2,_ZN4xlnt6detail13xlsx_producer12write_binaryERKNS_4pathE
FNDA:45,_ZZN4xlnt6detail13xlsx_producer12write_stylesERKNS_12relationshipEENKUlRKNSt7__cxx1112basic_stringIcSt11char_traitsIcESaIcEEEE_clESC_
FNDA:67,_ZZN4xlnt6detail13xlsx_producer15write_worksheetERKNS_12relationshipEENKUlRKSt4pairINSt7__cxx1112basic_stringIcSt11char_traitsIcESaIcEEESB_EE_clESE_
FNDA:0,_ZN4xlnt6detail13xlsx_producer25write_custom_xml_mappingsERKNS_12relationshipE
FNDA:1,_ZN4xlnt6detail13xlsx_producer13add_worksheetERKNSt7__cxx1112basic_stringIcSt11char_traitsIcESaIcEEE
FNF:57
FNH:44
DA:53,404
DA:58,404
DA:59,326
DA:61,164
DA:62,984
DA:64,240
DA:65,228
DA:66,216
DA:67,134
DA:69,590
DA:71,122
DA:73,10
DA:74,60
DA:77,560
DA:78,982
DA:85,47
DA:86,47
DA:87,47
DA:88,47
DA:89,94
DA:91,47
DA:93,47
DA:95,47
DA:96,47
DA:97,47
DA:99,46
DA:101,46
DA:102,46
DA:103,46
DA:105,1
DA:107,1
DA:108,1
DA:109,1
DA:111,2
DA:113,2
DA:114,2
DA:116,2
DA:119,1
DA:121,1
DA:122,1
DA:127,47
DA:129,47
DA:131,47
DA:133,141
DA:134,47
DA:136,217
DA:139,170
DA:141,32
DA:142,32
DA:145,138
DA:147,138
DA:149,44
DA:151,94
DA:153,44
DA:155,50
DA:157,3
DA:159,47
DA:161,47
DA:170,47
DA:171,47
DA:173,618
DA:175,618
DA:177,488
DA:180,618
DA:181,618
DA:183,488
DA:185,488
DA:186,488
DA:187,488
DA:189,488
DA:190,2928
DA:191,488
DA:192,488
DA:196,47
DA:198,47
DA:199,47
DA:201,47
DA:203,188
DA:204,141
DA:206,185
DA:208,414
DA:209,414
DA:210,414
DA:211,552
DA:212,47
DA:214,383
DA:216,1344
DA:217,1008
DA:218,1008
DA:219,1344
DA:220,47
DA:222,141
DA:223,47
DA:225,651
DA:228,651
DA:230,4
DA:231,12
DA:235,647
DA:238,651
DA:240,0
DA:241,0
DA:244,66
DA:245,66
DA:247,0
DA:248,0
DA:249,0
DA:252,66
DA:254,66
DA:256,0
DA:259,66
DA:262,26
DA:263,26
DA:265,0
DA:266,0
DA:267,0
DA:270,26
DA:272,26
DA:274,0
DA:277,26
DA:280,449
DA:281,449
DA:283,6
DA:284,6
DA:285,12
DA:288,1341
DA:290,232
DA:293,449
DA:295,449
DA:297,12
DA:300,449
DA:303,25
DA:304,75
DA:305,25
DA:307,25
DA:310,85
DA:311,255
DA:313,85
DA:314,85
DA:316,230
DA:318,145
DA:321,85
DA:322,126
DA:324,170
DA:325,255
DA:327,230
DA:329,145
DA:331,145
DA:333,336
DA:336,145
DA:338,500
DA:340,45
DA:342,225
DA:345,145
DA:347,336
DA:351,255
DA:353,85
DA:354,85
DA:357,651
DA:359,8
DA:363,647
DA:365,651
DA:367,44
DA:369,132
DA:371,44
DA:372,44
DA:374,132
DA:376,246
DA:378,491
DA:380,289
DA:382,175
DA:383,175
DA:384,202
DA:387,246
DA:389,202
DA:390,404
DA:393,132
DA:394,44
DA:396,44
DA:398,176
DA:399,132
DA:401,44
DA:402,44
DA:404,168
DA:407,489
DA:409,445
DA:410,1335
DA:411,44
DA:413,132
DA:414,44
DA:416,3
DA:418,12
DA:419,12
DA:420,9
DA:422,3
DA:424,7
DA:426,8
DA:427,12
DA:428,3
DA:430,9
DA:431,3
DA:435,47
DA:437,47
DA:438,47
DA:440,103
DA:442,56
DA:444,56
DA:447,56
DA:449,56
DA:451,1
DA:452,1
DA:453,1
DA:454,1
DA:455,1
DA:456,1
DA:457,1
DA:459,56
DA:461,2
DA:462,2
DA:463,2
DA:464,2
DA:465,2
DA:466,2
DA:467,2
DA:469,56
DA:471,3
DA:472,3
DA:473,3
DA:474,3
DA:476,3
DA:477,3
DA:479,4
DA:480,6
DA:482,3
DA:483,3
DA:485,2
DA:487,1
DA:489,4
DA:490,6
DA:493,3
DA:494,3
DA:495,56
DA:497,47
DA:499,0
DA:502,55
DA:503,55
DA:504,55
DA:505,55
DA:506,55
DA:507,55
DA:508,55
DA:510,94
DA:511,94
DA:512,47
DA:514,47
DA:516,36
DA:517,36
DA:518,36
DA:521,47
DA:523,43
DA:525,129
DA:526,86
DA:527,86
DA:528,129
DA:530,86
DA:533,47
DA:535,47
DA:537,0
DA:540,47
DA:542,2
DA:545,47
DA:547,47
DA:549,36
DA:550,36
DA:551,36
DA:552,36
DA:553,36
DA:554,18
DA:555,54
DA:556,36
DA:557,36
DA:558,36
DA:561,47
DA:563,88
DA:564,44
DA:566,44
DA:568,44
DA:570,3
DA:573,44
DA:575,0
DA:578,44
DA:580,0
DA:583,44
DA:585,0
DA:588,44
DA:590,0
DA:593,44
DA:595,0
DA:598,44
DA:600,0
DA:603,44
DA:605,0
DA:608,44
DA:610,132
DA:613,44
DA:615,132
DA:618,44
DA:620,132
DA:623,44
DA:625,132
DA:628,44
DA:630,102
DA:633,88
DA:634,44
DA:635,44
DA:637,47
DA:641,103
DA:643,56
DA:644,56
DA:646,56
DA:647,168
DA:648,112
DA:650,56
DA:652,0
DA:655,168
DA:656,56
DA:657,56
DA:660,47
DA:662,47
DA:664,1
DA:665,7
DA:667,6
DA:668,18
DA:669,6
DA:671,3
DA:674,6
DA:676,18
DA:678,6
DA:679,12
DA:681,2
DA:684,47
DA:686,44
DA:687,88
DA:690,132
DA:691,88
DA:694,47
DA:696,0
DA:698,0
DA:700,0
DA:701,0
DA:702,0
DA:703,0
DA:704,0
DA:705,0
DA:706,0
DA:708,0
DA:711,47
DA:713,20
DA:714,20
DA:715,20
DA:716,20
DA:717,10
DA:718,30
DA:719,20
DA:720,20
DA:721,20
DA:724,47
DA:726,47
DA:727,47
DA:729,232
DA:731,185
DA:738,7
DA:741,179
DA:742,179
DA:745,179
DA:747,1
DA:748,1
DA:752,178
DA:754,178
DA:756,0
DA:757,0
DA:758,0
DA:760,0
DA:761,0
DA:762,0
DA:764,0
DA:765,0
DA:766,0
DA:768,0
DA:769,0
DA:770,0
DA:772,0
DA:773,0
DA:774,0
DA:776,0
DA:777,0
DA:778,0
DA:780,33
DA:781,33
DA:782,33
DA:784,0
DA:785,0
DA:786,0
DA:788,45
DA:789,45
DA:790,45
DA:792,44
DA:793,44
DA:794,44
DA:796,0
DA:797,0
DA:798,0
DA:800,56
DA:801,56
DA:802,56
DA:804,0
DA:805,0
DA:806,0
DA:807,0
DA:808,0
DA:809,0
DA:810,0
DA:811,0
DA:812,0
DA:813,0
DA:814,0
DA:815,0
DA:816,0
DA:817,0
DA:818,0
DA:819,0
DA:820,0
DA:821,0
DA:822,0
DA:823,0
DA:824,0
DA:825,0
DA:826,0
DA:827,0
DA:828,0
DA:829,0
DA:830,0
DA:831,0
DA:832,0
DA:833,0
DA:834,0
DA:835,0
DA:836,0
DA:837,0
DA:838,0
DA:839,0
DA:840,0
DA:841,0
DA:842,0
DA:843,0
DA:844,0
DA:845,0
DA:846,0
DA:847,0
DA:848,0
DA:849,0
DA:851,180
DA:852,47
DA:856,0
DA:858,0
DA:859,0
DA:860,0
DA:862,0
DA:864,0
DA:865,0
DA:866,0
DA:868,0
DA:870,0
DA:871,0
DA:872,0
DA:874,0
DA:876,0
DA:877,0
DA:878,0
DA:880,0
DA:882,0
DA:883,0
DA:884,0
DA:886,0
DA:888,0
DA:889,0
DA:890,0
DA:892,452
DA:894,452
DA:896,436
DA:897,436
DA:898,872
DA:902,32
DA:904,16
DA:906,16
DA:908,16
DA:910,16
DA:912,32
DA:913,32
DA:916,16
DA:918,16
DA:919,48
DA:920,32
DA:923,16
DA:925,16
DA:926,16
DA:927,32
DA:930,16
DA:932,16
DA:933,48
DA:934,32
DA:937,16
DA:939,0
DA:940,0
DA:941,0
DA:944,16
DA:946,0
DA:947,0
DA:948,0
DA:951,32
DA:954,48
DA:955,32
DA:956,16
DA:959,453
DA:961,1
DA:962,2
DA:963,3
DA:964,1
DA:965,1
DA:966,2
DA:967,2
DA:968,452
DA:970,452
DA:972,3
DA:974,3
DA:975,6
DA:977,3
DA:979,2
DA:980,6
DA:983,3
DA:985,0
DA:986,0
DA:989,6
DA:991,452
DA:993,33
DA:995,39
DA:997,66
DA:998,33
DA:1001,33
DA:1003,73
DA:1005,40
DA:1006,40
DA:1008,1785
DA:1010,14362
DA:1012,12617
DA:1013,12617
DA:1015,10734
DA:1018,12617
DA:1021,1745
DA:1022,1745
DA:1026,33
DA:1027,66
DA:1029,469
DA:1031,436
DA:1032,436
DA:1033,872
DA:1036,33
DA:1037,33
DA:1039,0
DA:1041,0
DA:1042,0
DA:1043,0
DA:1045,0
DA:1047,0
DA:1048,0
DA:1049,0
DA:1051,0
DA:1053,0
DA:1054,0
DA:1055,0
DA:1057,206
DA:1059,214
DA:1061,206
DA:1063,206
DA:1065,94
DA:1066,94
DA:1069,206
DA:1071,40
DA:1072,40
DA:1075,206
DA:1077,16
DA:1078,16
DA:1081,206
DA:1083,29
DA:1084,29
DA:1086,60
DA:1088,58
DA:1091,206
DA:1093,8
DA:1094,8
DA:1095,8
DA:1097,202
DA:1099,16
DA:1100,16
DA:1101,16
DA:1104,206
DA:1106,204
DA:1107,612
DA:1108,408
DA:1111,206
DA:1113,196
DA:1114,196
DA:1115,392
DA:1118,206
DA:1120,205
DA:1121,615
DA:1122,410
DA:1125,206
DA:1127,184
DA:1128,552
DA:1129,368
DA:1132,206
DA:1134,185
DA:1135,555
DA:1136,370
DA:1139,206
DA:1140,206
DA:1142,227
DA:1144,235
DA:1146,227
DA:1148,227
DA:1150,227
DA:1152,227
DA:1154,454
DA:1156,227
DA:1158,137
DA:1159,137
DA:1160,274
DA:1163,227
DA:1165,137
DA:1166,137
DA:1167,274
DA:1170,227
DA:1171,227
DA:1172,0
DA:1174,0
DA:1176,0
DA:1177,0
DA:1179,0
DA:1181,0
DA:1184,0
DA:1186,0
DA:1189,0
DA:1191,0
DA:1194,0
DA:1196,0
DA:1199,0
DA:1201,0
DA:1204,0
DA:1206,0
DA:1207,0
DA:1208,0
DA:1209,0
DA:1210,0
DA:1211,0
DA:1212,0
DA:1214,0
DA:1215,0
DA:1217,227
DA:1218,227
DA:1220,88
DA:1222,96
DA:1224,88
DA:1226,88
DA:1228,0
DA:1229,0
DA:1230,0
DA:1232,0
DA:1233,0
DA:1234,0
DA:1237,704
DA:1239,616
DA:1241,435
DA:1243,435
DA:1244,435
DA:1246,435
DA:1248,348
DA:1251,435
DA:1253,116
DA:1254,116
DA:1255,232
DA:1258,435
DA:1259,435
DA:1262,88
DA:1263,88
DA:1265,45
DA:1267,53
DA:1268,53
DA:1269,53
DA:1270,53
DA:1272,90
DA:1273,45
DA:1275,45
DA:1277,45
DA:1278,45
DA:1280,45
DA:1283,0
DA:1284,45
DA:1286,90
DA:1288,50
DA:1289,50
DA:1290,50
DA:1295,45
DA:1297,18
DA:1299,18
DA:1300,21
DA:1302,18
DA:1304,4
DA:1305,2
DA:1307,7
DA:1309,5
DA:1310,4
DA:1311,8
DA:1312,12
DA:1313,8
DA:1316,4
DA:1322,45
DA:1324,45
DA:1326,45
DA:1327,90
DA:1329,45
DA:1331,157
DA:1333,785
DA:1335,314
DA:1336,471
DA:1338,25
DA:1340,182
DA:1342,157
DA:1344,24
DA:1348,50
DA:1351,251
DA:1353,206
DA:1356,90
DA:1361,45
DA:1363,45
DA:1365,45
DA:1366,90
DA:1368,272
DA:1370,227
DA:1373,90
DA:1378,45
DA:1380,45
DA:1382,45
DA:1383,90
DA:1385,133
DA:1387,88
DA:1390,90
DA:1394,45
DA:1396,45
DA:1397,90
DA:1399,275
DA:1401,230
DA:1403,230
DA:1405,230
DA:1407,690
DA:1410,230
DA:1412,690
DA:1415,230
DA:1417,687
DA:1420,230
DA:1422,687
DA:1425,230
DA:1426,230
DA:1428,170
DA:1429,340
DA:1432,230
DA:1433,230
DA:1435,41
DA:1436,82
DA:1439,230
DA:1440,230
DA:1442,12
DA:1443,24
DA:1446,230
DA:1447,230
DA:1449,135
DA:1450,270
DA:1453,230
DA:1454,230
DA:1456,43
DA:1457,86
DA:1460,230
DA:1461,230
DA:1463,0
DA:1464,0
DA:1467,230
DA:1469,0
DA:1472,230
DA:1474,0
DA:1477,230
DA:1479,45
DA:1481,45
DA:1483,45
DA:1485,135
DA:1488,45
DA:1490,3
DA:1493,45
DA:1495,3
DA:1498,45
DA:1500,3
DA:1503,45
DA:1505,3
DA:1508,45
DA:1510,0
DA:1513,90
DA:1516,230
DA:1518,0
DA:1520,0
DA:1521,0
DA:1522,0
DA:1523,0
DA:1526,460
DA:1529,90
DA:1534,45
DA:1535,90
DA:1537,243
DA:1539,198
DA:1541,198
DA:1543,579
DA:1546,198
DA:1548,582
DA:1551,198
DA:1553,546
DA:1556,198
DA:1558,558
DA:1561,198
DA:1563,579
DA:1566,198
DA:1567,198
DA:1569,15
DA:1570,30
DA:1573,198
DA:1574,198
DA:1576,4
DA:1577,8
DA:1580,198
DA:1581,198
DA:1583,91
DA:1584,182
DA:1587,198
DA:1588,198
DA:1590,9
DA:1591,18
DA:1594,198
DA:1596,58
DA:1597,116
DA:1600,198
DA:1602,12
DA:1603,24
DA:1606,198
DA:1608,0
DA:1611,198
DA:1613,0
DA:1616,198
DA:1618,58
DA:1620,58
DA:1622,58
DA:1624,69
DA:1627,58
DA:1629,87
DA:1632,58
DA:1634,15
DA:1637,58
DA:1639,54
DA:1642,58
DA:1644,27
DA:1647,58
DA:1649,24
DA:1652,116
DA:1655,198
DA:1657,1
DA:1659,1
DA:1660,3
DA:1661,3
DA:1662,2
DA:1665,396
DA:1668,45
DA:1671,45
DA:1673,45
DA:1674,90
DA:1675,45
DA:1677,275
DA:1679,230
DA:1681,230
DA:1683,690
DA:1684,460
DA:1686,230
DA:1688,657
DA:1691,230
DA:1693,0
DA:1696,230
DA:1698,492
DA:1701,460
DA:1704,90
DA:1708,45
DA:1709,90
DA:1711,45
DA:1713,0
DA:1715,0
DA:1717,0
DA:1718,0
DA:1721,0
DA:1723,0
DA:1724,0
DA:1727,0
DA:1729,0
DA:1730,0
DA:1733,0
DA:1736,90
DA:1738,90
DA:1739,90
DA:1740,90
DA:1741,90
DA:1742,45
DA:1744,45
DA:1746,2
DA:1747,1
DA:1749,14
DA:1751,13
DA:1752,39
DA:1753,26
DA:1756,2
DA:1757,2
DA:1760,45
DA:1762,45
DA:1764,27
DA:1766,27
DA:1768,54
DA:1769,54
DA:1770,54
DA:1771,27
DA:1772,81
DA:1773,54
DA:1774,54
DA:1777,54
DA:1780,45
DA:1781,45
DA:1783,44
DA:1785,52
DA:1786,52
DA:1788,88
DA:1789,88
DA:1790,88
DA:1792,88
DA:1793,88
DA:1794,44
DA:1804,0
DA:1816,616
DA:1818,572
DA:1820,528
DA:1821,528
DA:1822,1584
DA:1824,528
DA:1826,88
DA:1828,484
DA:1830,88
DA:1833,528
DA:1834,528
DA:1835,528
DA:1837,44
DA:1847,0
DA:1866,188
DA:1868,88
DA:1869,44
DA:1871,132
DA:1873,88
DA:1875,2992
DA:1877,2904
DA:1879,2904
DA:1881,264
DA:1882,792
DA:1884,264
DA:1886,88
DA:1888,220
DA:1890,88
DA:1893,264
DA:1897,2640
DA:1898,7920
DA:1899,7920
DA:1900,5280
DA:1902,2904
DA:1904,176
DA:1907,88
DA:1909,88
DA:1910,88
DA:1912,88
DA:1913,88
DA:1914,88
DA:1915,88
DA:1916,88
DA:1917,88
DA:1919,88
DA:1920,88
DA:1921,88
DA:1923,88
DA:1924,88
DA:1925,88
DA:1926,88
DA:1927,88
DA:1928,88
DA:1929,88
DA:1930,88
DA:1931,88
DA:1932,88
DA:1933,88
DA:1934,88
DA:1935,88
DA:1936,88
DA:1937,88
DA:1939,88
DA:1940,88
DA:1941,88
DA:1942,88
DA:1943,88
DA:1944,88
DA:1945,88
DA:1946,88
DA:1947,88
DA:1948,88
DA:1949,88
DA:1950,88
DA:1951,88
DA:1952,88
DA:1953,88
DA:1955,88
DA:1956,88
DA:1957,88
DA:1958,88
DA:1959,88
DA:1960,88
DA:1961,88
DA:1962,88
DA:1963,88
DA:1964,88
DA:1965,88
DA:1966,88
DA:1967,88
DA:1968,88
DA:1969,88
DA:1971,88
DA:1973,88
DA:1974,88
DA:1975,88
DA:1976,88
DA:1978,88
DA:1980,88
DA:1981,88
DA:1982,88
DA:1984,88
DA:1985,88
DA:1986,88
DA:1987,88
DA:1988,88
DA:1989,88
DA:1990,88
DA:1991,88
DA:1992,88
DA:1993,88
DA:1994,88
DA:1995,88
DA:1996,88
DA:1997,88
DA:1998,88
DA:2000,88
DA:2001,88
DA:2002,88
DA:2003,88
DA:2004,88
DA:2005,88
DA:2006,88
DA:2007,88
DA:2008,88
DA:2009,88
DA:2010,88
DA:2011,88
DA:2012,88
DA:2013,88
DA:2014,88
DA:2016,88
DA:2017,88
DA:2018,88
DA:2019,88
DA:2020,88
DA:2021,88
DA:2022,88
DA:2023,88
DA:2024,88
DA:2025,88
DA:2026,88
DA:2027,88
DA:2028,88
DA:2029,88
DA:2030,88
DA:2032,88
DA:2034,88
DA:2035,88
DA:2036,88
DA:2037,88
DA:2039,88
DA:2040,88
DA:2042,88
DA:2044,88
DA:2045,88
DA:2046,88
DA:2047,88
DA:2048,88
DA:2049,88
DA:2050,88
DA:2051,88
DA:2052,88
DA:2053,88
DA:2054,88
DA:2055,88
DA:2056,88
DA:2057,88
DA:2058,88
DA:2059,88
DA:2060,88
DA:2062,88
DA:2063,88
DA:2064,88
DA:2065,88
DA:2066,88
DA:2067,88
DA:2068,88
DA:2069,88
DA:2070,88
DA:2071,88
DA:2072,88
DA:2073,88
DA:2074,88
DA:2075,88
DA:2076,88
DA:2077,88
DA:2078,88
DA:2080,88
DA:2081,88
DA:2082,88
DA:2083,88
DA:2084,88
DA:2085,88
DA:2086,88
DA:2087,88
DA:2088,88
DA:2089,88
DA:2090,88
DA:2091,88
DA:2092,88
DA:2093,88
DA:2094,88
DA:2095,88
DA:2096,88
DA:2098,88
DA:2100,88
DA:2102,88
DA:2103,88
DA:2104,88
DA:2106,88
DA:2107,88
DA:2108,88
DA:2110,88
DA:2111,88
DA:2112,88
DA:2113,88
DA:2114,88
DA:2115,88
DA:2116,88
DA:2117,88
DA:2118,88
DA:2119,88
DA:2120,88
DA:2121,88
DA:2122,88
DA:2123,88
DA:2124,88
DA:2125,88
DA:2126,88
DA:2128,88
DA:2130,88
DA:2132,88
DA:2133,88
DA:2134,88
DA:2135,88
DA:2136,88
DA:2138,88
DA:2139,88
DA:2140,88
DA:2141,88
DA:2142,88
DA:2143,88
DA:2144,88
DA:2145,88
DA:2146,88
DA:2147,88
DA:2148,88
DA:2150,88
DA:2151,88
DA:2152,88
DA:2154,88
DA:2155,88
DA:2156,88
DA:2157,88
DA:2158,88
DA:2159,88
DA:2160,88
DA:2161,88
DA:2162,88
DA:2163,88
DA:2164,88
DA:2165,88
DA:2166,88
DA:2167,88
DA:2168,88
DA:2169,88
DA:2170,88
DA:2171,88
DA:2173,88
DA:2174,88
DA:2175,88
DA:2176,88
DA:2177,88
DA:2178,88
DA:2179,88
DA:2180,88
DA:2181,88
DA:2182,88
DA:2183,88
DA:2184,88
DA:2185,88
DA:2186,88
DA:2187,88
DA:2188,88
DA:2189,88
DA:2190,88
DA:2192,88
DA:2193,88
DA:2194,88
DA:2195,88
DA:2196,88
DA:2197,88
DA:2198,88
DA:2199,88
DA:2200,88
DA:2201,88
DA:2202,88
DA:2203,88
DA:2205,88
DA:2207,88
DA:2208,88
DA:2209,88
DA:2210,88
DA:2212,88
DA:2214,88
DA:2215,88
DA:2216,88
DA:2218,88
DA:2219,88
DA:2221,88
DA:2222,88
DA:2223,88
DA:2224,88
DA:2225,88
DA:2226,88
DA:2227,88
DA:2228,88
DA:2229,88
DA:2230,88
DA:2231,88
DA:2233,44
DA:2235,88
DA:2236,220
DA:2237,44
DA:2239,44
DA:2241,1
DA:2243,2
DA:2245,1
DA:2247,6
DA:2248,1
DA:2249,1
DA:2250,1
DA:2252,185
DA:2254,0
DA:2256,0
DA:2257,0
DA:2258,0
DA:2260,56
DA:2262,64
DA:2263,64
DA:2264,64
DA:2265,64
DA:2267,56
DA:2268,56
DA:2270,56
DA:2271,67
DA:2272,67
DA:2273,56
DA:2275,56
DA:2277,112
DA:2278,112
DA:2279,56
DA:2281,56
DA:2282,56
DA:2284,56
DA:2286,31
DA:2289,25
DA:2290,217
DA:2292,192
DA:2294,0
DA:2299,25
DA:2300,56
DA:2302,112
DA:2304,62
DA:2305,62
DA:2306,62
DA:2309,56
DA:2311,5
DA:2312,5
DA:2313,5
DA:2315,0
DA:2317,5
DA:2319,0
DA:2321,5
DA:2323,0
DA:2325,5
DA:2327,0
DA:2329,5
DA:2331,0
DA:2333,5
DA:2335,0
DA:2337,5
DA:2339,3
DA:2341,5
DA:2343,6
DA:2345,5
DA:2347,0
DA:2350,10
DA:2351,10
DA:2352,10
DA:2353,5
DA:2355,5
DA:2357,4
DA:2358,12
DA:2359,8
DA:2361,10
DA:2364,56
DA:2365,56
DA:2366,168
DA:2367,56
DA:2369,56
DA:2371,106
DA:2372,53
DA:2374,53
DA:2376,53
DA:2378,3
DA:2381,53
DA:2383,52
DA:2385,103
DA:2386,103
DA:2388,129
DA:2390,52
DA:2391,1
DA:2393,3
DA:2396,53
DA:2398,6
DA:2400,53
DA:2402,9
DA:2405,106
DA:2407,53
DA:2409,3
DA:2410,3
DA:2412,3
DA:2414,9
DA:2417,3
DA:2419,9
DA:2422,3
DA:2424,9
DA:2427,3
DA:2429,9
DA:2432,3
DA:2434,9
DA:2437,6
DA:2440,83
DA:2442,30
DA:2444,30
DA:2446,84
DA:2449,30
DA:2451,30
DA:2452,90
DA:2453,30
DA:2455,30
DA:2457,21
DA:2460,60
DA:2461,53
DA:2463,106
DA:2464,53
DA:2465,53
DA:2467,56
DA:2468,56
DA:2470,56
DA:2472,90
DA:2473,45
DA:2475,56
DA:2477,8
DA:2478,4
DA:2481,56
DA:2482,56
DA:2484,56
DA:2486,62
DA:2487,31
DA:2490,56
DA:2492,56
DA:2493,56
DA:2494,56
DA:2496,1610
DA:2498,1554
DA:2500,1333
DA:2502,15
DA:2503,15
DA:2506,1333
DA:2508,1333
DA:2509,2666
DA:2510,2666
DA:2512,1333
DA:2514,1333
DA:2515,3999
DA:2518,1333
DA:2520,15
DA:2523,1333
DA:2525,3849
DA:2528,1333
DA:2530,6
DA:2533,1333
DA:2535,918
DA:2538,2666
DA:2541,56
DA:2543,30
DA:2546,56
DA:2547,56
DA:2549,56
DA:2550,56
DA:2551,56
DA:2552,56
DA:2553,56
DA:2555,1837
DA:2557,1781
DA:2558,1781
DA:2559,1781
DA:2560,1781
DA:2563,1781
DA:2566,155
DA:2567,155
DA:2569,155
DA:2571,155
DA:2574,5887
DA:2576,31714
DA:2578,27608
DA:2579,27608
DA:2580,27608
DA:2582,6030
DA:2584,21580
DA:2586,2
DA:2589,21578
DA:2590,21578
DA:2592,21578
DA:2594,11214
DA:2599,1781
DA:2601,2838
DA:2602,1419
DA:2604,2838
DA:2605,4257
DA:2606,4257
DA:2608,1419
DA:2610,1283
DA:2612,1283
DA:2614,9
DA:2616,1283
DA:2618,12
DA:2621,1283
DA:2623,1070
DA:2624,3210
DA:2627,1283
DA:2629,18
DA:2632,1283
DA:2634,3114
DA:2637,1283
DA:2639,753
DA:2643,1419
DA:2645,11785
DA:2647,11375
DA:2649,11215
DA:2651,11215
DA:2655,11214
DA:2657,16
DA:2660,11214
DA:2662,20
DA:2665,11214
DA:2669,33642
DA:2671,11214
DA:2673,6
DA:2676,11214
DA:2678,1749
DA:2681,11214
DA:2683,425
DA:2684,425
DA:2686,2
DA:2687,2
DA:2688,2
DA:2690,0
DA:2691,0
DA:2692,0
DA:2694,0
DA:2695,0
DA:2696,0
DA:2698,0
DA:2699,0
DA:2700,0
DA:2702,47
DA:2704,47
DA:2706,10734
DA:2707,10734
DA:2708,10734
DA:2710,6
DA:2711,6
DA:2712,6
DA:2721,11214
DA:2723,30
DA:2726,11214
DA:2728,425
DA:2729,425
DA:2731,2
DA:2732,6
DA:2733,2
DA:2735,0
DA:2736,0
DA:2737,0
DA:2739,0
DA:2740,0
DA:2741,0
DA:2743,0
DA:2744,0
DA:2745,0
DA:2746,0
DA:2747,0
DA:2749,47
DA:2750,47
DA:2751,47
DA:2752,47
DA:2753,47
DA:2755,10734
DA:2756,21468
DA:2757,10734
DA:2759,6
DA:2760,18
DA:2761,6
DA:2764,22428
DA:2768,1419
DA:2769,1419
DA:2771,56
DA:2773,56
DA:2775,1
DA:2776,3
DA:2777,2
DA:2780,56
DA:2782,2
DA:2783,6
DA:2785,4
DA:2787,2
DA:2788,6
DA:2789,4
DA:2790,2
DA:2792,4
DA:2795,56
DA:2797,54
DA:2798,54
DA:2800,54
DA:2802,54
DA:2804,0
DA:2806,0
DA:2808,0
DA:2811,0
DA:2814,54
DA:2816,0
DA:2817,0
DA:2819,0
DA:2821,0
DA:2823,0
DA:2824,0
DA:2825,0
DA:2826,0
DA:2827,0
DA:2828,0
DA:2830,0
DA:2831,0
DA:2834,0
DA:2836,54
DA:2838,56
DA:2840,8
DA:2842,28
DA:2844,20
DA:2845,60
DA:2846,20
DA:2848,32
DA:2849,32
DA:2853,12
DA:2854,12
DA:2856,40
DA:2859,16
DA:2862,56
DA:2864,4
DA:2865,4
DA:2866,8
DA:2867,4
DA:2869,9
DA:2871,4
DA:2873,0
DA:2875,4
DA:2878,56
DA:2880,2
DA:2881,2
DA:2882,2
DA:2884,3
DA:2886,2
DA:2888,3
DA:2890,2
DA:2892,3
DA:2894,2
DA:2896,3
DA:2898,2
DA:2900,3
DA:2902,4
DA:2905,56
DA:2907,49
DA:2909,98
DA:2910,98
DA:2911,98
DA:2912,98
DA:2913,98
DA:2914,147
DA:2916,98
DA:2919,56
DA:2921,8
DA:2922,8
DA:2923,8
DA:2925,24
DA:2927,8
DA:2929,15
DA:2931,8
DA:2933,18
DA:2936,8
DA:2938,9
DA:2941,8
DA:2943,6
DA:2946,8
DA:2948,3
DA:2952,8
DA:2953,8
DA:2955,56
DA:2957,5
DA:2959,5
DA:2961,5
DA:2962,5
DA:2963,5
DA:2964,5
DA:2965,5
DA:2966,5
DA:2968,5
DA:2972,5
DA:2976,20
DA:2978,15
DA:2980,0
DA:2982,0
DA:2983,0
DA:2986,0
DA:2988,0
DA:2989,0
DA:2994,15
DA:2996,8
DA:2999,15
DA:3001,9
DA:3005,15
DA:3007,0
DA:3009,0
DA:3012,0
DA:3014,0
DA:3019,5
DA:3021,12
DA:3024,5
DA:3026,15
DA:3029,5
DA:3031,0
DA:3034,5
DA:3036,0
DA:3039,5
DA:3041,0
DA:3044,5
DA:3046,0
DA:3049,5
DA:3050,5
DA:3052,56
DA:3054,0
DA:3056,0
DA:3057,0
DA:3059,0
DA:3061,0
DA:3062,0
DA:3063,0
DA:3064,0
DA:3065,0
DA:3068,0
DA:3071,56
DA:3073,0
DA:3075,0
DA:3076,0
DA:3078,0
DA:3080,0
DA:3081,0
DA:3082,0
DA:3083,0
DA:3084,0
DA:3087,0
DA:3090,56
DA:3092,46
DA:3094,35
DA:3096,8
DA:3097,24
DA:3098,16
DA:3100,27
DA:3102,2
DA:3103,6
DA:3104,4
DA:3109,56
DA:3111,2
DA:3114,56
DA:3116,56
DA:3118,11
DA:3120,46
DA:3122,36
DA:3125,19
DA:3126,19
DA:3127,19
DA:3129,106
DA:3131,87
DA:3133,19
DA:3134,19
DA:3137,68
DA:3140,38
DA:3141,68
DA:3143,19
DA:3145,1
DA:3146,1
DA:3149,18
DA:3151,18
DA:3153,8
DA:3155,10
DA:3157,8
DA:3159,2
DA:3161,2
DA:3163,20
DA:3165,56
DA:3169,8
DA:3171,10
DA:3173,16
DA:3174,8
DA:3176,8
DA:3178,8
DA:3180,24
DA:3182,16
DA:3183,16
DA:3185,16
DA:3187,8
DA:3188,8
DA:3190,16
DA:3192,8
DA:3194,16
DA:3196,8
DA:3197,8
DA:3198,16
DA:3201,16
DA:3202,8
DA:3204,24
DA:3206,16
DA:3208,16
DA:3209,16
DA:3211,48
DA:3212,16
DA:3213,32
DA:3215,16
DA:3216,16
DA:3217,32
DA:3219,16
DA:3220,16
DA:3222,8
DA:3223,8
DA:3225,8
DA:3226,8
DA:3228,8
DA:3230,11
DA:3231,11
DA:3232,11
DA:3233,11
DA:3235,16
DA:3236,16
DA:3237,16
DA:3238,16
DA:3239,16
DA:3241,16
DA:3242,16
DA:3243,16
DA:3244,8
DA:3246,8
DA:3247,8
DA:3249,16
DA:3251,8
DA:3254,8
DA:3255,8
DA:3257,24
DA:3258,16
DA:3259,16
DA:3261,16
DA:3262,16
DA:3263,16
DA:3264,16
DA:3265,16
DA:3266,16
DA:3267,16
DA:3268,16
DA:3269,16
DA:3270,16
DA:3271,16
DA:3272,16
DA:3273,8
DA:3275,8
DA:3277,24
DA:3279,16
DA:3280,16
DA:3282,16
DA:3283,48
DA:3284,16
DA:3286,16
DA:3288,16
DA:3289,16
DA:3290,16
DA:3291,16
DA:3292,16
DA:3293,16
DA:3294,16
DA:3296,16
DA:3298,128
DA:3300,112
DA:3301,112
DA:3302,112
DA:3303,112
DA:3304,112
DA:3306,48
DA:3307,32
DA:3308,32
DA:3310,32
DA:3311,32
DA:3312,32
DA:3313,32
DA:3314,32
DA:3315,32
DA:3316,32
DA:3317,32
DA:3318,32
DA:3320,32
DA:3321,32
DA:3322,32
DA:3323,32
DA:3325,32
DA:3326,32
DA:3327,32
DA:3329,32
DA:3330,32
DA:3331,32
DA:3332,16
DA:3333,16
DA:3334,32
DA:3335,32
DA:3337,32
DA:3338,32
DA:3339,32
DA:3340,32
DA:3341,32
DA:3342,32
DA:3343,16
DA:3344,16
DA:3345,32
DA:3346,16
DA:3347,16
DA:3348,32
DA:3349,16
DA:3350,16
DA:3351,32
DA:3352,16
DA:3353,16
DA:3354,32
DA:3355,32
DA:3357,16
DA:3359,16
DA:3360,16
DA:3362,8
DA:3363,8
DA:3365,2
DA:3367,4
DA:3368,2
DA:3369,12
DA:3370,2
DA:3372,2
DA:3374,2
DA:3377,2
DA:3379,1
DA:3381,2
DA:3383,1
DA:3385,6
DA:3386,1
DA:3389,0
DA:3391,1
DA:3392,1
DA:3393,1
DA:3395,5
DA:3399,0
DA:3401,0
DA:3403,0
DA:3405,0
DA:3407,0
DA:3409,0
DA:3411,34
DA:3413,34
DA:3415,34
DA:3416,34
DA:3417,34
DA:3418,34
DA:3420,2
DA:3422,2
DA:3424,2
DA:3425,2
DA:3426,2
DA:3427,2
DA:3429,2249
DA:3431,4498
DA:3434,107
DA:3436,107
DA:3438,107
DA:3440,47
DA:3443,107
DA:3444,107
DA:3446,214
DA:3448,214
DA:3449,107
DA:3451,499
DA:3453,392
DA:3454,984
DA:3455,392
DA:3457,392
DA:3459,1176
DA:3460,784
DA:3461,1176
DA:3463,392
DA:3465,32
DA:3468,392
DA:3469,392
DA:3471,107
DA:3472,107
DA:3474,602
DA:3476,602
DA:3478,6
DA:3479,2
DA:3481,600
DA:3483,259
DA:3484,518
DA:3485,259
DA:3487,184
DA:3488,368
DA:3489,184
DA:3491,157
DA:3492,471
DA:3493,157
DA:3495,600
DA:3497,240
DA:3501,24
DA:3503,24
DA:3504,24
DA:3506,41577
DA:3508,41577
DA:3509,41577
DA:3511,24
DA:3513,24
DA:3514,24
DA:3516,41577
DA:3518,41577
DA:3519,41577
DA:3521,1098
DA:3523,1098
DA:3524,1098
LF:2004
LH:1712
end_of_record
TN:
SF:/root/project/source/detail/serialization/xlsx_producer.hpp
FN:169,_ZN4xlnt6detail13xlsx_producer13write_elementIPKcEEvRKNSt7__cxx1112basic_stringIcSt11char_traitsIcESaIcEEESC_T_b
FN:169,_ZN4xlnt6detail13xlsx_producer13write_elementINSt7__cxx1112basic_stringIcSt11char_traitsIcESaIcEEEEEvRKS8_SA_T_b
FN:169,_ZN4xlnt6detail13xlsx_producer13write_elementIiEEvRKNSt7__cxx1112basic_stringIcSt11char_traitsIcESaIcEEESA_T_b
FN:169,_ZN4xlnt6detail13xlsx_producer13write_elementImEEvRKNSt7__cxx1112basic_stringIcSt11char_traitsIcESaIcEEESA_T_b
FN:189,_ZN4xlnt6detail13xlsx_producer15write_attributeINS_17pattern_fill_typeEvEEvRKNSt7__cxx1112basic_stringIcSt11char_traitsIcESaIcEEET_
FN:189,_ZN4xlnt6detail13xlsx_producer15write_attributeINS_11pane_cornerEvEEvRKNSt7__cxx1112basic_stringIcSt11char_traitsIcESaIcEEET_
FN:189,_ZN4xlnt6detail13xlsx_producer15write_attributeINS_20horizontal_alignmentEvEEvRKNSt7__cxx1112basic_stringIcSt11char_traitsIcESaIcEEET_
FN:189,_ZN4xlnt6detail13xlsx_producer15write_attributeINSt7__cxx1112basic_stringIcSt11char_traitsIcESaIcEEEvEEvRKS8_T_
FN:189,_ZN4xlnt6detail13xlsx_producer15write_attributeIPKcvEEvRKNSt7__cxx1112basic_stringIcSt11char_traitsIcESaIcEEET_
FN:189,_ZN4xlnt6detail13xlsx_producer15write_attributeINS_4font15underline_styleEvEEvRKNSt7__cxx1112basic_stringIcSt11char_traitsIcESaIcEEET_
FN:189,_ZN4xlnt6detail13xlsx_producer15write_attributeINS_18vertical_alignmentEvEEvRKNSt7__cxx1112basic_stringIcSt11char_traitsIcESaIcEEET_
FN:189,_ZN4xlnt6detail13xlsx_producer15write_attributeINS_12border_styleEvEEvRKNSt7__cxx1112basic_stringIcSt11char_traitsIcESaIcEEET_
FN:189,_ZN4xlnt6detail13xlsx_producer15write_attributeINS_11orientationEvEEvRKNSt7__cxx1112basic_stringIcSt11char_traitsIcESaIcEEET_
FN:189,_ZN4xlnt6detail13xlsx_producer15write_attributeINS_17relationship_typeEvEEvRKNSt7__cxx1112basic_stringIcSt11char_traitsIcESaIcEEET_
FN:189,_ZN4xlnt6detail13xlsx_producer15write_attributeINS_18gradient_fill_typeEvEEvRKNSt7__cxx1112basic_stringIcSt11char_traitsIcESaIcEEET_
FN:189,_ZN4xlnt6detail13xlsx_producer15write_attributeINS_10pane_stateEvEEvRKNSt7__cxx1112basic_stringIcSt11char_traitsIcESaIcEEET_
FN:195,_ZN4xlnt6detail13xlsx_producer15write_attributeIdLPd0EEEvRKNSt7__cxx1112basic_stringIcSt11char_traitsIcESaIcEEET_
FN:201,_ZN4xlnt6detail13xlsx_producer15write_attributeIjLPj0EEEvRKNSt7__cxx1112basic_stringIcSt11char_traitsIcESaIcEEET_
FN:201,_ZN4xlnt6detail13xlsx_producer15write_attributeImLPm0EEEvRKNSt7__cxx1112basic_stringIcSt11char_traitsIcESaIcEEET_
FN:201,_ZN4xlnt6detail13xlsx_producer15write_attributeIbLPb0EEEvRKNSt7__cxx1112basic_stringIcSt11char_traitsIcESaIcEEET_
FN:201,_ZN4xlnt6detail13xlsx_producer15write_attributeIlLPl0EEEvRKNSt7__cxx1112basic_stringIcSt11char_traitsIcESaIcEEET_
FN:201,_ZN4xlnt6detail13xlsx_producer15write_attributeIiLPi0EEEvRKNSt7__cxx1112basic_stringIcSt11char_traitsIcESaIcEEET_
FN:209,_ZN4xlnt6detail13xlsx_producer15write_attributeIPKcvEEvRKN3xml5qnameET_
FN:209,_ZN4xlnt6detail13xlsx_producer15write_attributeINSt7__cxx1112basic_stringIcSt11char_traitsIcESaIcEEEvEEvRKN3xml5qnameET_
FN:215,_ZN4xlnt6detail13xlsx_producer15write_attributeIdLPd0EEEvRKN3xml5qnameET_
FN:221,_ZN4xlnt6detail13xlsx_producer15write_attributeImLPm0EEEvRKN3xml5qnameET_
FN:228,_ZN4xlnt6detail13xlsx_producer16write_charactersImEEvT_b
FN:228,_ZN4xlnt6detail13xlsx_producer16write_charactersIjEEvT_b
FN:228,_ZN4xlnt6detail13xlsx_producer16write_charactersIiEEvT_b
FN:228,_ZN4xlnt6detail13xlsx_producer16write_charactersIPKcEEvT_b
FN:228,_ZN4xlnt6detail13xlsx_producer16write_charactersINSt7__cxx1112basic_stringIcSt11char_traitsIcESaIcEEEEEvT_b
FNDA:392,_ZN4xlnt6detail13xlsx_producer15write_attributeINS_17relationship_typeEvEEvRKNSt7__cxx1112basic_stringIcSt11char_traitsIcESaIcEEET_
FNDA:274,_ZN4xlnt6detail13xlsx_producer16write_charactersIPKcEEvT_b
FNDA:120,_ZN4xlnt6detail13xlsx_producer15write_attributeIiLPi0EEEvRKNSt7__cxx1112basic_stringIcSt11char_traitsIcESaIcEEET_
FNDA:10734,_ZN4xlnt6detail13xlsx_producer13write_elementImEEvRKNSt7__cxx1112basic_stringIcSt11char_traitsIcESaIcEEESA_T_b
FNDA:282,_ZN4xlnt6detail13xlsx_producer15write_attributeIdLPd0EEEvRKN3xml5qnameET_
FNDA:83,_ZN4xlnt6detail13xlsx_producer15write_attributeINSt7__cxx1112basic_stringIcSt11char_traitsIcESaIcEEEvEEvRKN3xml5qnameET_
FNDA:45,_ZN4xlnt6detail13xlsx_producer13write_elementIiEEvRKNSt7__cxx1112basic_stringIcSt11char_traitsIcESaIcEEESA_T_b
FNDA:71,_ZN4xlnt6detail13xlsx_producer16write_charactersIiEEvT_b
FNDA:1131,_ZN4xlnt6detail13xlsx_producer16write_charactersINSt7__cxx1112basic_stringIcSt11char_traitsIcESaIcEEEEEvT_b
FNDA:621,_ZN4xlnt6detail13xlsx_producer15write_attributeIdLPd0EEEvRKNSt7__cxx1112basic_stringIcSt11char_traitsIcESaIcEEET_
FNDA:0,_ZN4xlnt6detail13xlsx_producer15write_attributeINS_18gradient_fill_typeEvEEvRKNSt7__cxx1112basic_stringIcSt11char_traitsIcESaIcEEET_
FNDA:3,_ZN4xlnt6detail13xlsx_producer15write_attributeINS_10pane_stateEvEEvRKNSt7__cxx1112basic_stringIcSt11char_traitsIcESaIcEEET_
FNDA:26427,_ZN4xlnt6detail13xlsx_producer15write_attributeINSt7__cxx1112basic_stringIcSt11char_traitsIcESaIcEEEvEEvRKS8_T_
FNDA:25,_ZN4xlnt6detail13xlsx_producer15write_attributeImLPm0EEEvRKN3xml5qnameET_
FNDA:5739,_ZN4xlnt6detail13xlsx_producer15write_attributeImLPm0EEEvRKNSt7__cxx1112basic_stringIcSt11char_traitsIcESaIcEEET_
FNDA:4100,_ZN4xlnt6detail13xlsx_producer15write_attributeIjLPj0EEEvRKNSt7__cxx1112basic_stringIcSt11char_traitsIcESaIcEEET_
FNDA:10,_ZN4xlnt6detail13xlsx_producer15write_attributeINS_11pane_cornerEvEEvRKNSt7__cxx1112basic_stringIcSt11char_traitsIcESaIcEEET_
FNDA:24,_ZN4xlnt6detail13xlsx_producer15write_attributeINS_20horizontal_alignmentEvEEvRKNSt7__cxx1112basic_stringIcSt11char_traitsIcESaIcEEET_
FNDA:227,_ZN4xlnt6detail13xlsx_producer15write_attributeINS_17pattern_fill_typeEvEEvRKNSt7__cxx1112basic_stringIcSt11char_traitsIcESaIcEEET_
FNDA:176,_ZN4xlnt6detail13xlsx_producer13write_elementIPKcEEvRKNSt7__cxx1112basic_stringIcSt11char_traitsIcESaIcEEESC_T_b
FNDA:2,_ZN4xlnt6detail13xlsx_producer15write_attributeIbLPb0EEEvRKNSt7__cxx1112basic_stringIcSt11char_traitsIcESaIcEEET_
FNDA:223,_ZN4xlnt6detail13xlsx_producer15write_attributeIPKcvEEvRKN3xml5qnameET_
FNDA:10734,_ZN4xlnt6detail13xlsx_producer16write_charactersImEEvT_b
FNDA:20,_ZN4xlnt6detail13xlsx_producer15write_attributeINS_4font15underline_styleEvEEvRKNSt7__cxx1112basic_stringIcSt11char_traitsIcESaIcEEET_
FNDA:32,_ZN4xlnt6detail13xlsx_producer16write_charactersIjEEvT_b
FNDA:15592,_ZN4xlnt6detail13xlsx_producer15write_attributeIPKcvEEvRKNSt7__cxx1112basic_stringIcSt11char_traitsIcESaIcEEET_
FNDA:74,_ZN4xlnt6detail13xlsx_producer15write_attributeINS_18vertical_alignmentEvEEvRKNSt7__cxx1112basic_stringIcSt11char_traitsIcESaIcEEET_
FNDA:143,_ZN4xlnt6detail13xlsx_producer13write_elementINSt7__cxx1112basic_stringIcSt11char_traitsIcESaIcEEEEEvRKS8_SA_T_b
FNDA:8,_ZN4xlnt6detail13xlsx_producer15write_attributeINS_11orientationEvEEvRKNSt7__cxx1112basic_stringIcSt11char_traitsIcESaIcEEET_
FNDA:116,_ZN4xlnt6detail13xlsx_producer15write_attributeINS_12border_styleEvEEvRKNSt7__cxx1112basic_stringIcSt11char_traitsIcESaIcEEET_
FNDA:2,_ZN4xlnt6detail13xlsx_producer15write_attributeIlLPl0EEEvRKNSt7__cxx1112basic_stringIcSt11char_traitsIcESaIcEEET_
FNF:31
FNH:30
DA:169,11098
DA:171,11098
DA:172,11098
DA:173,11098
DA:174,11098
DA:189,42893
DA:191,42893
DA:192,42893
DA:195,621
DA:197,621
DA:198,621
DA:201,9963
DA:203,9963
DA:204,9963
DA:209,306
DA:211,306
DA:212,306
DA:215,282
DA:217,282
DA:218,282
DA:221,25
DA:223,25
DA:224,25
DA:228,12242
DA:230,12242
DA:232,8
DA:235,12242
DA:236,12242
LF:28
LH:28
end_of_record
TN:
SF:/root/project/source/detail/serialization/zstream.cpp
FN:52,_ZN12_GLOBAL__N_18read_intItEET_RSi
FN:52,_ZN12_GLOBAL__N_18read_intIjEET_RSi
FN:61,_ZN12_GLOBAL__N_19write_intIjEEvRSoT_
FN:61,_ZN12_GLOBAL__N_19write_intIcEEvRSoT_
FN:61,_ZN12_GLOBAL__N_19write_intItEEvRSoT_
FN:66,_ZN12_GLOBAL__N_111read_headerERSib
FN:126,_ZN12_GLOBAL__N_112write_headerERKN4xlnt6detail7zheaderERSob
FN:188,_ZN4xlnt6detail24zip_streambuf_decompressC2ERSiNS0_7zheaderE
FN:237,_ZN4xlnt6detail24zip_streambuf_decompressD2Ev
FN:237,_ZN4xlnt6detail24zip_streambuf_decompressD0Ev
FN:245,_ZN4xlnt6detail24zip_streambuf_decompress7processEv
FN:289,_ZN4xlnt6detail24zip_streambuf_decompress9underflowEv
FN:306,_ZN4xlnt6detail24zip_streambuf_decompress8overflowEi
FN:326,_ZN4xlnt6detail22zip_streambuf_compressC2EPNS0_7zheaderERSo
FN:358,_ZN4xlnt6detail22zip_streambuf_compressD2Ev
FN:358,_ZN4xlnt6detail22zip_streambuf_compressD0Ev
FN:383,_ZN4xlnt6detail22zip_streambuf_compress7processEb
FN:419,_ZN4xlnt6detail22zip_streambuf_compress4syncEv
FN:425,_ZN4xlnt6detail22zip_streambuf_compress9underflowEv
FN:433,_ZN4xlnt6detail22zip_streambuf_compress8overflowEi
FN:444,_ZN4xlnt6detail8ozstreamC2ERSo
FN:453,_ZN4xlnt6detail8ozstreamD2Ev
FN:453,_ZN4xlnt6detail8ozstreamD0Ev
FN:476,_ZN4xlnt6detail8ozstream4openERKNS_4pathE
FN:486,_ZN4xlnt6detail8izstreamC2ERSi
FN:497,_ZN4xlnt6detail8izstreamD0Ev
FN:497,_ZN4xlnt6detail8izstreamD2Ev
FN:501,_ZN4xlnt6detail8izstream19read_central_headerEv
FN:590,_ZNK4xlnt6detail8izstream4openERKNS_4pathE
FN:604,_ZNK4xlnt6detail8izstream4readB5cxx11ERKNS_4pathE
FN:613,_ZNK4xlnt6detail8izstream5filesEv
FN:617,_ZZNK4xlnt6detail8izstream5filesEvENKUlRKSt4pairINSt7__cxx1112basic_stringIcSt11char_traitsIcESaIcEEENS0_7zheaderEEE_clESC_
FN:622,_ZNK4xlnt6detail8izstream8has_fileERKNS_4pathE
FNDA:524,_ZN4xlnt6detail22zip_streambuf_compressC2EPNS0_7zheaderERSo
FNDA:2661,_ZN12_GLOBAL__N_111read_headerERSib
FNDA:118,_ZN4xlnt6detail8izstream19read_central_headerEv
FNDA:256,_ZNK4xlnt6detail8izstream4readB5cxx11ERKNS_4pathE
FNDA:1337,_ZN4xlnt6detail24zip_streambuf_decompressD0Ev
FNDA:488,_ZN4xlnt6detail22zip_streambuf_compress4syncEv
FNDA:47,_ZN4xlnt6detail8ozstreamD2Ev
FNDA:1337,_ZN4xlnt6detail24zip_streambuf_decompressC2ERSiNS0_7zheaderE
FNDA:47,_ZN4xlnt6detail8ozstreamD0Ev
FNDA:524,_ZN4xlnt6detail22zip_streambuf_compressD0Ev
FNDA:1324,_ZZNK4xlnt6detail8izstream5filesEvENKUlRKSt4pairINSt7__cxx1112basic_stringIcSt11char_traitsIcESaIcEEENS0_7zheaderEEE_clESC_
FNDA:2629,_ZNK4xlnt6detail8izstream8has_fileERKNS_4pathE
FNDA:118,_ZN4xlnt6detail8izstreamD2Ev
FNDA:4245,_ZN4xlnt6detail22zip_streambuf_compress8overflowEi
FNDA:8910,_ZN4xlnt6detail24zip_streambuf_decompress9underflowEv
FNDA:96,_ZN4xlnt6detail8izstreamD0Ev
FNDA:524,_ZN4xlnt6detail22zip_streambuf_compressD2Ev
FNDA:0,_ZN4xlnt6detail24zip_streambuf_decompress8overflowEi
FNDA:24395,_ZN12_GLOBAL__N_18read_intItEET_RSi
FNDA:47,_ZN4xlnt6detail8ozstreamC2ERSo
FNDA:7477,_ZN12_GLOBAL__N_19write_intIjEEvRSoT_
FNDA:8910,_ZN4xlnt6detail24zip_streambuf_decompress7processEv
FNDA:29709,_ZN12_GLOBAL__N_19write_intIcEEvRSoT_
FNDA:5256,_ZN4xlnt6detail22zip_streambuf_compress7processEb
FNDA:118,_ZN4xlnt6detail8izstreamC2ERSi
FNDA:1337,_ZNK4xlnt6detail8izstream4openERKNS_4pathE
FNDA:0,_ZN4xlnt6detail22zip_streambuf_compress9underflowEv
FNDA:524,_ZN4xlnt6detail8ozstream4openERKNS_4pathE
FNDA:1572,_ZN12_GLOBAL__N_112write_headerERKN4xlnt6detail7zheaderERSob
FNDA:13646,_ZN12_GLOBAL__N_18read_intIjEET_RSi
FNDA:13335,_ZN12_GLOBAL__N_19write_intItEEvRSoT_
FNDA:118,_ZNK4xlnt6detail8izstream5filesEv
FNDA:1337,_ZN4xlnt6detail24zip_streambuf_decompressD2Ev
FNF:33
FNH:31
DA:52,38041
DA:55,38041
DA:57,38041
DA:61,50521
DA:63,50521
DA:64,50521
DA:66,2661
DA:68,2661
DA:70,2661
DA:73,2661
DA:75,1324
DA:77,0
DA:80,1324
DA:82,1337
DA:84,0
DA:88,2661
DA:89,2661
DA:90,2661
DA:91,2661
DA:92,2661
DA:93,2661
DA:94,2661
DA:95,2661
DA:97,2661
DA:98,2661
DA:100,2661
DA:102,2661
DA:104,1324
DA:105,1324
DA:106,1324
DA:107,1324
DA:108,1324
DA:111,2661
DA:112,2661
DA:114,2661
DA:115,2661
DA:117,2661
DA:119,1324
DA:120,1324
DA:123,2661
DA:124,0
DA:126,1572
DA:128,1572
DA:130,524
DA:131,524
DA:135,1048
DA:138,1572
DA:139,1572
DA:140,1572
DA:141,1572
DA:142,1572
DA:143,1572
DA:144,1572
DA:145,1572
DA:146,1572
DA:147,1572
DA:149,1572
DA:151,524
DA:152,524
DA:153,524
DA:154,524
DA:155,524
DA:158,31281
DA:160,29709
DA:162,1572
DA:188,1337
DA:189,1337
DA:191,1337
DA:192,1337
DA:194,1337
DA:195,1337
DA:196,1337
DA:197,1337
DA:198,1337
DA:200,5348
DA:201,1337
DA:204,1337
DA:206,1337
DA:208,1300
DA:210,37
DA:212,37
DA:216,0
DA:217,0
DA:221,1337
DA:225,1300
DA:228,1300
DA:230,0
DA:234,1337
DA:235,1337
DA:237,2674
DA:238,1337
DA:239,1337
DA:241,1300
DA:243,2674
DA:245,8910
DA:247,8910
DA:249,8910
DA:251,8077
DA:252,8077
DA:254,16819
DA:256,11098
DA:259,6619
DA:260,6619
DA:261,6619
DA:262,6619
DA:263,13238
DA:266,11098
DA:268,11098
DA:270,0
DA:273,11098
DA:276,8077
DA:277,8077
DA:278,8077
DA:282,833
DA:283,833
DA:284,833
DA:285,833
DA:286,833
DA:289,8910
DA:291,8910
DA:292,0
DA:293,8910
DA:294,8910
DA:295,17820
DA:296,8910
DA:297,8910
DA:298,35640
DA:299,8910
DA:300,7711
DA:306,0
DA:308,0
DA:326,524
DA:327,524
DA:329,524
DA:330,524
DA:331,524
DA:335,524
DA:338,524
DA:340,0
DA:341,0
DA:342,0
DA:345,524
DA:346,1572
DA:349,524
DA:351,524
DA:352,524
DA:355,524
DA:356,0
DA:358,1048
DA:359,524
DA:360,524
DA:362,524
DA:363,524
DA:364,524
DA:366,524
DA:367,524
DA:368,524
DA:369,524
DA:370,524
DA:371,524
DA:375,0
DA:376,0
DA:379,524
DA:380,1048
DA:383,5256
DA:385,5256
DA:387,5256
DA:388,5256
DA:390,11832
DA:392,7100
DA:393,7100
DA:395,7100
DA:397,7100
DA:399,0
DA:400,0
DA:401,0
DA:404,7100
DA:405,14200
DA:406,7100
DA:407,7100
DA:411,5256
DA:412,5256
DA:413,10512
DA:414,5256
DA:416,5256
DA:419,488
DA:421,488
DA:422,1
DA:425,0
DA:427,0
DA:433,4245
DA:435,4245
DA:437,4245
DA:438,4245
DA:440,4245
DA:441,4245
DA:444,47
DA:445,47
DA:447,47
DA:449,0
DA:451,47
DA:453,94
DA:456,47
DA:458,571
DA:460,524
DA:463,47
DA:466,47
DA:467,47
DA:468,47
DA:469,47
DA:470,47
DA:471,47
DA:472,47
DA:473,47
DA:474,94
DA:476,524
DA:478,524
DA:479,524
DA:480,524
DA:481,524
DA:483,1048
DA:484,524
DA:486,118
DA:487,118
DA:489,118
DA:491,0
DA:494,118
DA:495,118
DA:497,214
DA:499,214
DA:501,118
DA:505,118
DA:506,118
DA:508,118
DA:509,118
DA:511,118
DA:513,118
DA:515,116
DA:518,118
DA:519,118
DA:521,118
DA:523,0
DA:526,118
DA:528,118
DA:529,118
DA:531,0
DA:534,118
DA:535,118
DA:537,1786373
DA:539,1786373
DA:540,9220
DA:541,2783
DA:542,1795593
DA:544,118
DA:545,118
DA:546,118
DA:550,118
DA:552,0
DA:556,118
DA:558,118
DA:559,118
DA:560,118
DA:562,118
DA:564,0
DA:567,118
DA:568,118
DA:570,118
DA:572,0
DA:575,118
DA:576,118
DA:579,118
DA:581,1442
DA:583,1324
DA:584,1324
DA:585,1324
DA:587,118
DA:588,118
DA:590,1337
DA:592,1337
DA:594,0
DA:597,1337
DA:598,1337
DA:599,1337
DA:601,2674
DA:602,1337
DA:604,256
DA:606,256
DA:607,256
DA:608,256
DA:610,512
DA:611,256
DA:613,118
DA:615,118
DA:616,118
DA:617,1324
DA:619,118
DA:620,0
DA:622,2629
DA:624,2629
LF:299
LH:269
end_of_record
TN:
SF:/root/project/source/detail/time_helpers.hpp
FN:35,_ZN4xlnt6detail14localtime_safeEl
FNDA:3,_ZN4xlnt6detail14localtime_safeEl
FNF:1
FNH:1
DA:35,3
DA:37,3
DA:47,3
DA:48,3
DA:50,3
DA:61,3
LF:6
LH:6
end_of_record
TN:
SF:/root/project/source/detail/unicode.cpp
FN:39,_ZN4xlnt6detail13utf8_to_utf16ERKNSt7__cxx1112basic_stringIcSt11char_traitsIcESaIcEEE
FN:46,_ZN4xlnt6detail13utf8_to_utf32ERKNSt7__cxx1112basic_stringIcSt11char_traitsIcESaIcEEE
FN:53,_ZN4xlnt6detail13utf16_to_utf8ERKNSt7__cxx1112basic_stringIDsSt11char_traitsIDsESaIDsEEE
FN:60,_ZN4xlnt6detail13utf32_to_utf8ERKNSt7__cxx1112basic_stringIDiSt11char_traitsIDiESaIDiEEE
FN:67,_ZN4xlnt6detail14latin1_to_utf8ERKNSt7__cxx1112basic_stringIcSt11char_traitsIcESaIcEEE
FN:87,_ZN4xlnt6detail13string_lengthERKNSt7__cxx1112basic_stringIcSt11char_traitsIcESaIcEEE
FN:99,_ZN4xlnt6detail13utf8_to_utf16B5cxx11ESt17basic_string_viewIDuSt11char_traitsIDuEE
FN:106,_ZN4xlnt6detail13utf8_to_utf32B5cxx11ESt17basic_string_viewIDuSt11char_traitsIDuEE
FN:113,_ZN4xlnt6detail16utf16_to_utf8_u8B5cxx11ESt17basic_string_viewIDsSt11char_traitsIDsEE
FN:120,_ZN4xlnt6detail16utf32_to_utf8_u8B5cxx11ESt17basic_string_viewIDiSt11char_traitsIDiEE
FNDA:1,_ZN4xlnt6detail13utf8_to_utf32B5cxx11ESt17basic_string_viewIDuSt11char_traitsIDuEE
FNDA:0,_ZN4xlnt6detail14latin1_to_utf8ERKNSt7__cxx1112basic_stringIcSt11char_traitsIcESaIcEEE
FNDA:28,_ZN4xlnt6detail13utf8_to_utf16ERKNSt7__cxx1112basic_stringIcSt11char_traitsIcESaIcEEE
FNDA:12,_ZN4xlnt6detail13utf8_to_utf16B5cxx11ESt17basic_string_viewIDuSt11char_traitsIDuEE
FNDA:1,_ZN4xlnt6detail13utf8_to_utf32ERKNSt7__cxx1112basic_stringIcSt11char_traitsIcESaIcEEE
FNDA:1,_ZN4xlnt6detail16utf32_to_utf8_u8B5cxx11ESt17basic_string_viewIDiSt11char_traitsIDiEE
FNDA:307,_ZN4xlnt6detail13utf16_to_utf8ERKNSt7__cxx1112basic_stringIDsSt11char_traitsIDsESaIDsEEE
FNDA:1,_ZN4xlnt6detail16utf16_to_utf8_u8B5cxx11ESt17basic_string_viewIDsSt11char_traitsIDsEE
FNDA:1,_ZN4xlnt6detail13utf32_to_utf8ERKNSt7__cxx1112basic_stringIDiSt11char_traitsIDiESaIDiEEE
FNDA:30,_ZN4xlnt6detail13string_lengthERKNSt7__cxx1112basic_stringIcSt11char_traitsIcESaIcEEE
FNF:10
FNH:9
DA:39,28
DA:41,28
DA:42,28
DA:43,28
DA:44,0
DA:46,1
DA:48,1
DA:49,1
DA:50,1
DA:51,0
DA:53,307
DA:55,307
DA:56,307
DA:57,307
DA:58,0
DA:60,1
DA:62,1
DA:63,1
DA:64,1
DA:65,0
DA:67,0
DA:69,0
DA:71,0
DA:73,0
DA:75,0
DA:79,0
DA:80,0
DA:84,0
DA:85,0
DA:87,30
DA:89,30
DA:90,30
DA:92,3
DA:95,58
DA:99,12
DA:101,12
DA:102,12
DA:103,12
DA:104,0
DA:106,1
DA:108,1
DA:109,1
DA:110,1
DA:111,0
DA:113,1
DA:115,1
DA:116,1
DA:117,1
DA:118,0
DA:120,1
DA:122,1
DA:123,1
DA:124,1
DA:125,0
LF:54
LH:37
end_of_record
TN:
SF:/root/project/source/detail/utils/string_helpers.cpp
FN:29,_ZN4xlnt6detail12split_stringERKNSt7__cxx1112basic_stringIcSt11char_traitsIcESaIcEEEc
FNDA:70,_ZN4xlnt6detail12split_stringERKNSt7__cxx1112basic_stringIcSt11char_traitsIcESaIcEEEc
FNF:1
FNH:1
DA:29,70
DA:31,70
DA:33,70
DA:34,1
DA:36,69
DA:37,69
DA:39,81
DA:41,12
DA:42,12
DA:44,12
DA:45,12
DA:46,12
DA:48,69
DA:50,69
DA:51,0
LF:15
LH:14
end_of_record
TN:
SF:/root/project/source/detail/utils/string_helpers.hpp
FN:65,_ZN4xlnt6detail11to_char_ptrEPKDu
FN:85,_ZN4xlnt6detail14to_string_copyB5cxx11ESt17basic_string_viewIDuSt11char_traitsIDuEE
FN:101,_ZN4xlnt6detail4joinINS_15range_referenceEEENSt7__cxx1112basic_stringIcSt11char_traitsIcESaIcEEERKSt6vectorIT_SaISA_EEc
FN:101,_ZN4xlnt6detail4joinIN17string_test_suite1XEEENSt7__cxx1112basic_stringIcSt11char_traitsIcESaIcEEERKSt6vectorIT_SaISB_EEc
FNDA:7,_ZN4xlnt6detail11to_char_ptrEPKDu
FNDA:8,_ZN4xlnt6detail14to_string_copyB5cxx11ESt17basic_string_viewIDuSt11char_traitsIDuEE
FNDA:30,_ZN4xlnt6detail4joinINS_15range_referenceEEENSt7__cxx1112basic_stringIcSt11char_traitsIcESaIcEEERKSt6vectorIT_SaISA_EEc
FNDA:2,_ZN4xlnt6detail4joinIN17string_test_suite1XEEENSt7__cxx1112basic_stringIcSt11char_traitsIcESaIcEEERKSt6vectorIT_SaISB_EEc
FNF:4
FNH:4
DA:65,7
DA:67,7
DA:85,8
DA:87,24
DA:101,32
DA:103,32
DA:104,71
DA:106,39
DA:107,7
DA:109,39
DA:112,32
DA:113,0
LF:12
LH:11
end_of_record
TN:
SF:/root/project/source/drawing/spreadsheet_drawing.cpp
FN:33,_ZN12_GLOBAL__N_116copy_and_extractERN3xml6parserERNS0_10serializerE
FN:95,_ZN4xlnt7drawing19spreadsheet_drawingC2ERN3xml6parserE
FN:104,_ZN4xlnt7drawing19spreadsheet_drawing9serializeERN3xml10serializerE
FN:111,_ZN4xlnt7drawing19spreadsheet_drawing13get_embed_idsB5cxx11Ev
FNDA:3,_ZN4xlnt7drawing19spreadsheet_drawingC2ERN3xml6parserE
FNDA:3,_ZN4xlnt7drawing19spreadsheet_drawing13get_embed_idsB5cxx11Ev
FNDA:2,_ZN4xlnt7drawing19spreadsheet_drawing9serializeERN3xml10serializerE
FNDA:5,_ZN12_GLOBAL__N_116copy_and_extractERN3xml6parserERNS0_10serializerE
FNF:4
FNH:4
DA:33,5
DA:35,5
DA:36,5
DA:37,219
DA:39,214
DA:41,95
DA:42,95
DA:43,95
DA:44,95
DA:45,95
DA:46,95
DA:47,95
DA:49,12
DA:51,95
DA:52,95
DA:53,95
DA:55,15
DA:56,15
DA:57,15
DA:58,131
DA:60,36
DA:62,95
DA:63,95
DA:64,95
DA:65,95
DA:66,95
DA:67,95
DA:69,0
DA:70,0
DA:71,0
DA:73,0
DA:74,0
DA:76,24
DA:77,24
DA:78,24
DA:80,0
DA:81,0
DA:82,0
DA:85,0
DA:88,5
DA:89,0
DA:95,3
DA:97,3
DA:98,3
DA:99,3
DA:100,3
DA:101,3
DA:104,2
DA:106,2
DA:107,2
DA:108,2
DA:109,2
DA:111,3
DA:113,3
LF:54
LH:44
end_of_record
TN:
SF:/root/project/source/packaging/ext_list.cpp
FN:9,_ZN12_GLOBAL__N_19roundtripERN3xml6parserERNS0_10serializerE
FN:69,_ZN4xlnt8ext_list3extC2ERN3xml6parserERKNSt7__cxx1112basic_stringIcSt11char_traitsIcESaIcEEE
FN:80,_ZN4xlnt8ext_list3extC2ERKNS_3uriERKNSt7__cxx1112basic_stringIcSt11char_traitsIcESaIcEEE
FN:85,_ZN4xlnt8ext_list3ext9serialiseERN3xml10serializerERKNSt7__cxx1112basic_stringIcSt11char_traitsIcESaIcEEE
FN:94,_ZN4xlnt8ext_listC2ERN3xml6parserERKNSt7__cxx1112basic_stringIcSt11char_traitsIcESaIcEEE
FN:104,_ZN4xlnt8ext_list9serializeERN3xml10serializerERKNSt7__cxx1112basic_stringIcSt11char_traitsIcESaIcEEE
FN:114,_ZN4xlnt8ext_list13add_extensionERKNS_3uriERKNSt7__cxx1112basic_stringIcSt11char_traitsIcESaIcEEE
FN:119,_ZNK4xlnt8ext_list13has_extensionERKNS_3uriE
FN:121,_ZZNK4xlnt8ext_list13has_extensionERKNS_3uriEENKUlRKNS0_3extEE_clES6_
FN:124,_ZNK4xlnt8ext_list9extensionERKNS_3uriE
FN:127,_ZZNK4xlnt8ext_list9extensionERKNS_3uriEENKUlRKNS0_3extEE_clES6_
FN:130,_ZNK4xlnt8ext_list10extensionsEv
FN:135,_ZNK4xlnt8ext_listeqERKS0_
FN:140,_ZNK4xlnt8ext_listneERKS0_
FNDA:0,_ZZNK4xlnt8ext_list9extensionERKNS_3uriEENKUlRKNS0_3extEE_clES6_
FNDA:0,_ZNK4xlnt8ext_list13has_extensionERKNS_3uriE
FNDA:0,_ZNK4xlnt8ext_list9extensionERKNS_3uriE
FNDA:0,_ZNK4xlnt8ext_listeqERKS0_
FNDA:0,_ZNK4xlnt8ext_listneERKS0_
FNDA:6,_ZN12_GLOBAL__N_19roundtripERN3xml6parserERNS0_10serializerE
FNDA:0,_ZZNK4xlnt8ext_list13has_extensionERKNS_3uriEENKUlRKNS0_3extEE_clES6_
FNDA:0,_ZN4xlnt8ext_list3extC2ERKNS_3uriERKNSt7__cxx1112basic_stringIcSt11char_traitsIcESaIcEEE
FNDA:4,_ZN4xlnt8ext_listC2ERN3xml6parserERKNSt7__cxx1112basic_stringIcSt11char_traitsIcESaIcEEE
FNDA:2,_ZN4xlnt8ext_list9serializeERN3xml10serializerERKNSt7__cxx1112basic_stringIcSt11char_traitsIcESaIcEEE
FNDA:0,_ZN4xlnt8ext_list13add_extensionERKNS_3uriERKNSt7__cxx1112basic_stringIcSt11char_traitsIcESaIcEEE
FNDA:0,_ZNK4xlnt8ext_list10extensionsEv
FNDA:2,_ZN4xlnt8ext_list3ext9serialiseERN3xml10serializerERKNSt7__cxx1112basic_stringIcSt11char_traitsIcESaIcEEE
FNDA:4,_ZN4xlnt8ext_list3extC2ERN3xml6parserERKNSt7__cxx1112basic_stringIcSt11char_traitsIcESaIcEEE
FNF:14
FNH:5
DA:9,6
DA:11,6
DA:12,6
DA:13,30
DA:15,24
DA:17,12
DA:18,12
DA:19,12
DA:20,12
DA:21,12
DA:23,12
DA:25,12
DA:26,12
DA:27,12
DA:28,12
DA:30,6
DA:31,6
DA:32,6
DA:33,36
DA:35,24
DA:37,12
DA:38,12
DA:39,12
DA:40,12
DA:41,12
DA:42,12
DA:44,0
DA:45,0
DA:46,0
DA:48,0
DA:49,0
DA:51,0
DA:52,0
DA:53,0
DA:55,0
DA:56,0
DA:57,0
DA:60,0
DA:63,6
DA:64,0
DA:69,4
DA:71,4
DA:72,8
DA:73,8
DA:74,4
DA:75,4
DA:76,4
DA:77,4
DA:78,4
DA:80,0
DA:81,0
DA:83,0
DA:85,2
DA:87,2
DA:88,6
DA:89,2
DA:90,2
DA:91,2
DA:92,2
DA:94,4
DA:97,8
DA:99,4
DA:102,4
DA:104,2
DA:106,2
DA:107,4
DA:109,2
DA:111,2
DA:112,2
DA:114,0
DA:116,0
DA:117,0
DA:119,0
DA:121,0
DA:124,0
DA:126,0
DA:127,0
DA:130,0
DA:132,0
DA:135,0
DA:137,0
DA:140,0
DA:142,0
LF:83
LH:53
end_of_record
TN:
SF:/root/project/source/packaging/manifest.cpp
FN:35,_ZN4xlnt8manifest5clearEv
FN:42,_ZNK4xlnt8manifest12canonicalizeERKSt6vectorINS_12relationshipESaIS2_EE
FN:83,_ZNK4xlnt8manifest16has_relationshipERKNS_4pathENS_17relationship_typeE
FN:90,_ZZNK4xlnt8manifest16has_relationshipERKNS_4pathENS_17relationship_typeEENKUlRKSt4pairINSt7__cxx1112basic_stringIcSt11char_traitsIcESaIcEEENS_12relationshipEEE_clESF_
FN:93,_ZNK4xlnt8manifest16has_relationshipERKNS_4pathERKNSt7__cxx1112basic_stringIcSt11char_traitsIcESaIcEEE
FN:103,_ZNK4xlnt8manifest12relationshipERKNS_4pathENS_17relationship_typeE
FN:115,_ZNK4xlnt8manifest13relationshipsERKNS_4pathENS_17relationship_typeE
FN:133,_ZNK4xlnt8manifest12content_typeB5cxx11ERKNS_4pathE
FN:150,_ZN4xlnt8manifest22register_override_typeERKNS_4pathERKNSt7__cxx1112basic_stringIcSt11char_traitsIcESaIcEEE
FN:155,_ZN4xlnt8manifest24unregister_override_typeERKNS_4pathE
FN:160,_ZNK4xlnt8manifest26parts_with_overriden_typesEv
FN:172,_ZNK4xlnt8manifest13relationshipsERKNS_4pathE
FN:189,_ZNK4xlnt8manifest12relationshipERKNS_4pathERKNSt7__cxx1112basic_stringIcSt11char_traitsIcESaIcEEE
FN:207,_ZNK4xlnt8manifest5partsEv
FN:227,_ZN4xlnt8manifest21register_relationshipB5cxx11ERKNS_3uriENS_17relationship_typeES3_NS_11target_modeE
FN:234,_ZN4xlnt8manifest21register_relationshipB5cxx11ERKNS_12relationshipE
FN:240,_ZN4xlnt8manifest23unregister_relationshipERKNS_3uriERKNSt7__cxx1112basic_stringIcSt11char_traitsIcESaIcEEE
FN:275,_ZNK4xlnt8manifest16has_default_typeERKNSt7__cxx1112basic_stringIcSt11char_traitsIcESaIcEEE
FN:280,_ZNK4xlnt8manifest29extensions_with_default_typesB5cxx11Ev
FN:292,_ZNK4xlnt8manifest12default_typeERKNSt7__cxx1112basic_stringIcSt11char_traitsIcESaIcEEE
FN:302,_ZN4xlnt8manifest21register_default_typeERKNSt7__cxx1112basic_stringIcSt11char_traitsIcESaIcEEES8_
FN:307,_ZN4xlnt8manifest23unregister_default_typeERKNSt7__cxx1112basic_stringIcSt11char_traitsIcESaIcEEE
FN:312,_ZNK4xlnt8manifest20next_relationship_idB5cxx11ERKNS_4pathE
FN:327,_ZNK4xlnt8manifest17has_override_typeERKNS_4pathE
FN:332,_ZNK4xlnt8manifest13override_typeB5cxx11ERKNS_4pathE
FN:342,_ZNK4xlnt8manifesteqERKS0_
FN:349,_ZNK4xlnt8manifestneERKS0_
FNDA:47,_ZNK4xlnt8manifest29extensions_with_default_typesB5cxx11Ev
FNDA:261,_ZNK4xlnt8manifest13relationshipsERKNS_4pathENS_17relationship_typeE
FNDA:181,_ZN4xlnt8manifest23unregister_relationshipERKNS_3uriERKNSt7__cxx1112basic_stringIcSt11char_traitsIcESaIcEEE
FNDA:10,_ZN4xlnt8manifest24unregister_override_typeERKNS_4pathE
FNDA:0,_ZNK4xlnt8manifest16has_relationshipERKNS_4pathERKNSt7__cxx1112basic_stringIcSt11char_traitsIcESaIcEEE
FNDA:0,_ZN4xlnt8manifest23unregister_default_typeERKNSt7__cxx1112basic_stringIcSt11char_traitsIcESaIcEEE
FNDA:22,_ZNK4xlnt8manifest5partsEv
FNDA:219,_ZNK4xlnt8manifest12default_typeERKNSt7__cxx1112basic_stringIcSt11char_traitsIcESaIcEEE
FNDA:3031,_ZN4xlnt8manifest21register_relationshipB5cxx11ERKNS_12relationshipE
FNDA:0,_ZNK4xlnt8manifestneERKS0_
FNDA:18901,_ZNK4xlnt8manifest16has_relationshipERKNS_4pathENS_17relationship_typeE
FNDA:1856,_ZN4xlnt8manifest21register_relationshipB5cxx11ERKNS_3uriENS_17relationship_typeES3_NS_11target_modeE
FNDA:281,_ZNK4xlnt8manifest12relationshipERKNS_4pathERKNSt7__cxx1112basic_stringIcSt11char_traitsIcESaIcEEE
FNDA:14,_ZNK4xlnt8manifesteqERKS0_
FNDA:81,_ZNK4xlnt8manifest16has_default_typeERKNSt7__cxx1112basic_stringIcSt11char_traitsIcESaIcEEE
FNDA:330,_ZNK4xlnt8manifest12content_typeB5cxx11ERKNS_4pathE
FNDA:920,_ZNK4xlnt8manifest17has_override_typeERKNS_4pathE
FNDA:1856,_ZNK4xlnt8manifest20next_relationship_idB5cxx11ERKNS_4pathE
FNDA:13364,_ZNK4xlnt8manifest12relationshipERKNS_4pathENS_17relationship_typeE
FNDA:837,_ZNK4xlnt8manifest13relationshipsERKNS_4pathE
FNDA:12742,_ZNK4xlnt8manifest12canonicalizeERKSt6vectorINS_12relationshipESaIS2_EE
FNDA:586,_ZNK4xlnt8manifest13override_typeB5cxx11ERKNS_4pathE
FNDA:23455,_ZZNK4xlnt8manifest16has_relationshipERKNS_4pathENS_17relationship_typeEENKUlRKSt4pairINSt7__cxx1112basic_stringIcSt11char_traitsIcESaIcEEENS_12relationshipEEE_clESF_
FNDA:47,_ZNK4xlnt8manifest26parts_with_overriden_typesEv
FNDA:0,_ZN4xlnt8manifest5clearEv
FNDA:990,_ZN4xlnt8manifest21register_default_typeERKNSt7__cxx1112basic_stringIcSt11char_traitsIcESaIcEEES8_
FNDA:2285,_ZN4xlnt8manifest22register_override_typeERKNS_4pathERKNSt7__cxx1112basic_stringIcSt11char_traitsIcESaIcEEE
FNF:27
FNH:23
DA:35,0
DA:37,0
DA:38,0
DA:39,0
DA:40,0
DA:42,12742
DA:44,12742
DA:46,26043
DA:48,13301
DA:50,12742
DA:54,559
DA:56,13301
DA:58,12742
DA:60,38623
DA:62,25881
DA:64,25881
DA:66,42
DA:67,42
DA:70,25839
DA:71,12742
DA:73,12742
DA:75,38539
DA:77,25797
DA:80,12742
DA:81,12742
DA:83,18901
DA:85,18901
DA:86,18901
DA:88,722
DA:90,41634
DA:93,0
DA:95,0
DA:96,0
DA:98,0
DA:100,0
DA:103,13364
DA:105,13364
DA:107,51084
DA:109,51084
DA:112,0
DA:115,261
DA:117,261
DA:119,261
DA:121,746
DA:123,594
DA:125,241
DA:130,261
DA:131,0
DA:133,330
DA:135,330
DA:137,330
DA:139,250
DA:142,80
DA:144,80
DA:147,0
DA:148,330
DA:150,2285
DA:152,2285
DA:153,2285
DA:155,10
DA:157,10
DA:158,10
DA:160,47
DA:162,47
DA:164,383
DA:166,336
DA:169,47
DA:170,0
DA:172,837
DA:174,837
DA:176,504
DA:179,333
DA:181,1540
DA:183,1207
DA:186,333
DA:187,333
DA:189,281
DA:191,281
DA:193,0
DA:196,1076
DA:198,1076
DA:200,281
DA:204,0
DA:207,22
DA:209,22
DA:211,74
DA:213,52
DA:215,254
DA:217,202
DA:219,186
DA:224,44
DA:225,22
DA:227,1856
DA:230,1856
DA:231,3712
DA:232,1856
DA:234,3031
DA:236,3031
DA:237,3031
DA:240,181
DA:243,181
DA:245,0
DA:248,181
DA:249,181
DA:250,181
DA:251,181
DA:253,537
DA:255,356
DA:258,356
DA:262,227
DA:263,227
DA:264,227
DA:265,227
DA:266,227
DA:267,227
DA:269,356
DA:270,356
DA:272,181
DA:273,0
DA:275,81
DA:277,81
DA:280,47
DA:282,47
DA:284,185
DA:286,138
DA:289,47
DA:290,0
DA:292,219
DA:294,219
DA:296,1
DA:299,218
DA:302,990
DA:304,990
DA:305,990
DA:307,0
DA:309,0
DA:310,0
DA:312,1856
DA:314,2864
DA:316,1352
DA:317,1352
DA:319,3918
DA:321,2566
DA:324,1352
DA:327,920
DA:329,920
DA:332,586
DA:334,586
DA:336,0
DA:339,586
DA:342,14
DA:344,14
DA:345,14
DA:346,28
DA:349,0
DA:351,0
LF:156
LH:131
end_of_record
TN:
SF:/root/project/source/packaging/relationship.cpp
FN:30,_ZN4xlnt12relationshipC2Ev
FN:34,_ZN4xlnt12relationshipC2ERKNSt7__cxx1112basic_stringIcSt11char_traitsIcESaIcEEENS_17relationship_typeERKNS_3uriESC_NS_11target_modeE
FN:40,_ZNK4xlnt12relationship2idB5cxx11Ev
FN:45,_ZNK4xlnt12relationship11target_modeEv
FN:50,_ZNK4xlnt12relationship6sourceEv
FN:55,_ZNK4xlnt12relationship6targetEv
FN:60,_ZNK4xlnt12relationship4typeEv
FN:65,_ZNK4xlnt12relationshipeqERKS0_
FN:74,_ZNK4xlnt12relationshipneERKS0_
FNDA:16584,_ZNK4xlnt12relationship6targetEv
FNDA:101,_ZNK4xlnt12relationshipneERKS0_
FNDA:10624,_ZNK4xlnt12relationship2idB5cxx11Ev
FNDA:3045,_ZN4xlnt12relationshipC2ERKNSt7__cxx1112basic_stringIcSt11char_traitsIcESaIcEEENS_17relationship_typeERKNS_3uriESC_NS_11target_modeE
FNDA:3103,_ZN4xlnt12relationshipC2Ev
FNDA:1088,_ZNK4xlnt12relationship11target_modeEv
FNDA:3875,_ZNK4xlnt12relationship6sourceEv
FNDA:78221,_ZNK4xlnt12relationship4typeEv
FNDA:13464,_ZNK4xlnt12relationshipeqERKS0_
FNF:9
FNH:9
DA:30,3103
DA:32,3103
DA:34,3045
DA:35,3045
DA:36,3045
DA:38,3045
DA:40,10624
DA:42,10624
DA:45,1088
DA:47,1088
DA:50,3875
DA:52,3875
DA:55,16584
DA:57,16584
DA:60,78221
DA:62,78221
DA:65,13464
DA:67,13464
DA:68,12905
DA:69,12905
DA:70,12905
DA:71,26369
DA:74,101
DA:76,101
LF:24
LH:24
end_of_record
TN:
SF:/root/project/source/packaging/uri.cpp
FN:5,_ZN4xlnt3uriC2Ev
FN:9,_ZN4xlnt3uriC2ERKNSt7__cxx1112basic_stringIcSt11char_traitsIcESaIcEEE
FN:14,_ZNK4xlnt3uri9to_stringB5cxx11Ev
FN:19,_ZNK4xlnt3uri4pathEv
FN:24,_ZNK4xlnt3urieqERKS0_
FN:29,_ZNK4xlnt3urineERKS0_
FNDA:6216,_ZN4xlnt3uriC2Ev
FNDA:51888,_ZNK4xlnt3uri9to_stringB5cxx11Ev
FNDA:5017,_ZN4xlnt3uriC2ERKNSt7__cxx1112basic_stringIcSt11char_traitsIcESaIcEEE
FNDA:0,_ZNK4xlnt3urineERKS0_
FNDA:22205,_ZNK4xlnt3uri4pathEv
FNDA:25810,_ZNK4xlnt3urieqERKS0_
FNF:6
FNH:5
DA:5,6216
DA:7,6216
DA:9,5017
DA:10,5017
DA:12,5017
DA:14,51888
DA:16,51888
DA:19,22205
DA:21,22205
DA:24,25810
DA:26,25810
DA:29,0
DA:31,0
LF:13
LH:11
end_of_record
TN:
SF:/root/project/source/styles/alignment.cpp
FN:30,_ZNK4xlnt9alignment4wrapEv
FN:35,_ZN4xlnt9alignment4wrapEb
FN:41,_ZNK4xlnt9alignment6shrinkEv
FN:46,_ZN4xlnt9alignment6shrinkEb
FN:52,_ZNK4xlnt9alignment10horizontalEv
FN:57,_ZN4xlnt9alignment10horizontalENS_20horizontal_alignmentE
FN:63,_ZNK4xlnt9alignment8verticalEv
FN:68,_ZN4xlnt9alignment8verticalENS_18vertical_alignmentE
FN:74,_ZN4xlnt9alignment6indentEi
FN:80,_ZNK4xlnt9alignment6indentEv
FN:85,_ZN4xlnt9alignment8rotationEi
FN:91,_ZNK4xlnt9alignment8rotationEv
FN:96,_ZNK4xlnt9alignmenteqERKS0_
FN:165,_ZNK4xlnt9alignmentneERKS0_
FNDA:13,_ZNK4xlnt9alignmenteqERKS0_
FNDA:138,_ZNK4xlnt9alignment6shrinkEv
FNDA:149,_ZNK4xlnt9alignment4wrapEv
FNDA:176,_ZNK4xlnt9alignment6indentEv
FNDA:41,_ZN4xlnt9alignment6shrinkEb
FNDA:40,_ZN4xlnt9alignment6indentEi
FNDA:241,_ZNK4xlnt9alignment8verticalEv
FNDA:399,_ZN4xlnt9alignment8verticalENS_18vertical_alignmentE
FNDA:0,_ZNK4xlnt9alignmentneERKS0_
FNDA:191,_ZNK4xlnt9alignment10horizontalEv
FNDA:31,_ZN4xlnt9alignment8rotationEi
FNDA:114,_ZN4xlnt9alignment10horizontalENS_20horizontal_alignmentE
FNDA:95,_ZN4xlnt9alignment4wrapEb
FNDA:172,_ZNK4xlnt9alignment8rotationEv
FNF:14
FNH:13
DA:30,149
DA:32,149
DA:35,95
DA:37,95
DA:38,95
DA:41,138
DA:43,138
DA:46,41
DA:48,41
DA:49,41
DA:52,191
DA:54,191
DA:57,114
DA:59,114
DA:60,114
DA:63,241
DA:65,241
DA:68,399
DA:70,399
DA:71,399
DA:74,40
DA:76,40
DA:77,40
DA:80,176
DA:82,176
DA:85,31
DA:87,31
DA:88,31
DA:91,172
DA:93,172
DA:96,13
DA:98,13
DA:100,13
DA:102,0
DA:105,13
DA:107,12
DA:109,0
DA:113,13
DA:115,0
DA:118,13
DA:120,12
DA:122,0
DA:126,13
DA:128,0
DA:131,13
DA:133,12
DA:135,0
DA:139,13
DA:141,0
DA:144,13
DA:146,0
DA:149,13
DA:151,12
DA:153,0
DA:157,13
DA:159,0
DA:162,13
DA:165,0
DA:167,0
LF:59
LH:47
end_of_record
TN:
SF:/root/project/source/styles/border.cpp
FN:32,_ZNK4xlnt6border15border_property5colorEv
FN:37,_ZN4xlnt6border15border_property5colorERKNS_5colorE
FN:43,_ZNK4xlnt6border15border_property5styleEv
FN:48,_ZN4xlnt6border15border_property5styleENS_12border_styleE
FN:54,_ZNK4xlnt6border15border_propertyeqERKS1_
FN:87,_ZNK4xlnt6border15border_propertyneERKS1_
FN:92,_ZN4xlnt6borderC2Ev
FN:96,_ZN4xlnt6border9all_sidesEv
FN:105,_ZNK4xlnt6border4sideENS_11border_sideE
FN:128,_ZN4xlnt6border4sideENS_11border_sideERKNS0_15border_propertyE
FN:158,_ZN4xlnt6border8diagonalENS_18diagonal_directionE
FN:164,_ZNK4xlnt6border8diagonalEv
FN:169,_ZNK4xlnt6bordereqERKS0_
FN:192,_ZNK4xlnt6borderneERKS0_
FNDA:434,_ZN4xlnt6borderC2Ev
FNDA:12086,_ZNK4xlnt6border15border_property5styleEv
FNDA:12086,_ZNK4xlnt6border15border_property5colorEv
FNDA:88,_ZNK4xlnt6border8diagonalEv
FNDA:3845,_ZNK4xlnt6border15border_propertyeqERKS1_
FNDA:258,_ZN4xlnt6border15border_property5colorERKNS_5colorE
FNDA:861,_ZN4xlnt6border9all_sidesEv
FNDA:0,_ZNK4xlnt6borderneERKS0_
FNDA:24936,_ZNK4xlnt6border4sideENS_11border_sideE
FNDA:2151,_ZN4xlnt6border4sideENS_11border_sideERKNS0_15border_propertyE
FNDA:3845,_ZNK4xlnt6border15border_propertyneERKS1_
FNDA:1,_ZN4xlnt6border8diagonalENS_18diagonal_directionE
FNDA:259,_ZN4xlnt6border15border_property5styleENS_12border_styleE
FNDA:773,_ZNK4xlnt6bordereqERKS0_
FNF:14
FNH:13
DA:32,12086
DA:34,12086
DA:37,258
DA:39,258
DA:40,258
DA:43,12086
DA:45,12086
DA:48,259
DA:50,259
DA:51,259
DA:54,3845
DA:56,3845
DA:58,3845
DA:60,0
DA:63,3845
DA:65,0
DA:67,0
DA:71,3845
DA:73,0
DA:76,3845
DA:78,0
DA:80,0
DA:84,3845
DA:87,3845
DA:89,3845
DA:92,434
DA:94,434
DA:96,861
DA:100,869
DA:102,861
DA:105,24936
DA:107,24936
DA:109,4026
DA:110,4026
DA:111,4026
DA:112,4026
DA:113,4030
DA:114,4030
DA:115,4026
DA:116,4026
DA:117,2401
DA:118,2401
DA:119,2401
DA:120,2401
DA:121,4026
DA:122,4026
DA:125,0
DA:128,2151
DA:130,2151
DA:132,431
DA:133,431
DA:134,431
DA:135,430
DA:136,430
DA:137,430
DA:138,430
DA:139,430
DA:140,430
DA:141,430
DA:142,430
DA:143,430
DA:144,0
DA:145,0
DA:146,0
DA:147,0
DA:148,0
DA:149,0
DA:150,430
DA:151,430
DA:152,430
DA:155,2151
DA:158,1
DA:160,1
DA:161,1
DA:164,88
DA:166,88
DA:169,773
DA:171,773
DA:173,6170
DA:175,5399
DA:177,2
DA:180,5397
DA:182,3845
DA:184,0
DA:189,771
DA:192,0
DA:194,0
LF:87
LH:71
end_of_record
TN:
SF:/root/project/source/styles/color.cpp
FN:35,_ZN12_GLOBAL__N_117decode_hex_stringERKNSt7__cxx1112basic_stringIcSt11char_traitsIcESaIcEEE
FN:54,_ZN4xlnt13indexed_colorC2Em
FN:59,_ZNK4xlnt13indexed_color5indexEv
FN:64,_ZN4xlnt13indexed_color5indexEm
FN:71,_ZN4xlnt11theme_colorC2Em
FN:76,_ZNK4xlnt11theme_color5indexEv
FN:81,_ZN4xlnt11theme_color5indexEm
FN:88,_ZNK4xlnt9rgb_color10hex_stringB5cxx11Ev
FN:106,_ZN4xlnt9rgb_colorC2ERKNSt7__cxx1112basic_stringIcSt11char_traitsIcESaIcEEE
FN:111,_ZN4xlnt9rgb_colorC2Ehhhh
FN:116,_ZNK4xlnt9rgb_color3redEv
FN:121,_ZNK4xlnt9rgb_color5greenEv
FN:126,_ZNK4xlnt9rgb_color4blueEv
FN:131,_ZNK4xlnt9rgb_color5alphaEv
FN:136,_ZNK4xlnt9rgb_color3rgbEv
FN:141,_ZNK4xlnt9rgb_color4rgbaEv
FN:148,_ZN4xlnt5color5blackEv
FN:153,_ZN4xlnt5color5whiteEv
FN:158,_ZN4xlnt5color3redEv
FN:163,_ZN4xlnt5color7darkredEv
FN:168,_ZN4xlnt5color4blueEv
FN:173,_ZN4xlnt5color8darkblueEv
FN:178,_ZN4xlnt5color5greenEv
FN:183,_ZN4xlnt5color9darkgreenEv
FN:188,_ZN4xlnt5color6yellowEv
FN:193,_ZN4xlnt5color10darkyellowEv
FN:198,_ZN4xlnt5colorC2Ev
FN:203,_ZN4xlnt5colorC2ERKNS_9rgb_colorE
FN:211,_ZN4xlnt5colorC2ERKNS_13indexed_colorE
FN:219,_ZN4xlnt5colorC2ERKNS_11theme_colorE
FN:227,_ZNK4xlnt5color4typeEv
FN:232,_ZNK4xlnt5color5auto_Ev
FN:237,_ZN4xlnt5color5auto_Eb
FN:242,_ZNK4xlnt5color7indexedEv
FN:248,_ZN4xlnt5color7indexedEv
FN:254,_ZNK4xlnt5color5themeEv
FN:260,_ZN4xlnt5color5themeEv
FN:266,_ZNK4xlnt5color3rgbEv
FN:272,_ZN4xlnt5color3rgbEv
FN:278,_ZNK4xlnt5color8has_tintEv
FN:283,_ZN4xlnt5color4tintEd
FN:288,_ZNK4xlnt5color4tintEv
FN:293,_ZNK4xlnt5color11assert_typeENS_10color_typeE
FN:301,_ZNK4xlnt5coloreqERKS0_
FN:325,_ZNK4xlnt5colorneERKS0_
FNDA:646,_ZNK4xlnt5color11assert_typeENS_10color_typeE
FNDA:600,_ZNK4xlnt5color8has_tintEv
FNDA:4,_ZN4xlnt5color5themeEv
FNDA:999,_ZN4xlnt5colorC2ERKNS_11theme_colorE
FNDA:604,_ZNK4xlnt5color5auto_Ev
FNDA:23,_ZN4xlnt5color3rgbEv
FNDA:1,_ZN4xlnt5color5whiteEv
FNDA:172,_ZNK4xlnt5color3rgbEv
FNDA:184,_ZNK4xlnt5color7indexedEv
FNDA:259,_ZNK4xlnt5color5themeEv
FNDA:475,_ZN4xlnt9rgb_colorC2ERKNSt7__cxx1112basic_stringIcSt11char_traitsIcESaIcEEE
FNDA:1,_ZN4xlnt5color9darkgreenEv
FNDA:1,_ZN4xlnt5color4blueEv
FNDA:0,_ZNK4xlnt9rgb_color3redEv
FNDA:0,_ZNK4xlnt9rgb_color5greenEv
FNDA:0,_ZNK4xlnt9rgb_color4blueEv
FNDA:1,_ZN4xlnt13indexed_color5indexEm
FNDA:3241,_ZN4xlnt9rgb_colorC2Ehhhh
FNDA:9,_ZN4xlnt5color3redEv
FNDA:180,_ZN4xlnt5color4tintEd
FNDA:1204,_ZNK4xlnt13indexed_color5indexEv
FNDA:80,_ZNK4xlnt5color4tintEv
FNDA:1955,_ZNK4xlnt11theme_color5indexEv
FNDA:1342,_ZN4xlnt5colorC2Ev
FNDA:1898,_ZNK4xlnt5coloreqERKS0_
FNDA:3471,_ZN4xlnt13indexed_colorC2Em
FNDA:4,_ZN4xlnt5color5auto_Eb
FNDA:1886,_ZNK4xlnt5colorneERKS0_
FNDA:4,_ZN4xlnt5color7indexedEv
FNDA:1032,_ZNK4xlnt9rgb_color4rgbaEv
FNDA:0,_ZNK4xlnt9rgb_color5alphaEv
FNDA:1986,_ZN4xlnt5colorC2ERKNS_13indexed_colorE
FNDA:0,_ZNK4xlnt9rgb_color3rgbEv
FNDA:475,_ZN12_GLOBAL__N_117decode_hex_stringERKNSt7__cxx1112basic_stringIcSt11char_traitsIcESaIcEEE
FNDA:486,_ZN4xlnt5colorC2ERKNS_9rgb_colorE
FNDA:2,_ZN4xlnt5color8darkblueEv
FNDA:1,_ZN4xlnt11theme_color5indexEm
FNDA:716,_ZNK4xlnt9rgb_color10hex_stringB5cxx11Ev
FNDA:600,_ZNK4xlnt5color4typeEv
FNDA:1,_ZN4xlnt5color10darkyellowEv
FNDA:1,_ZN4xlnt5color7darkredEv
FNDA:3471,_ZN4xlnt11theme_colorC2Em
FNDA:3,_ZN4xlnt5color6yellowEv
FNDA:3,_ZN4xlnt5color5blackEv
FNDA:6,_ZN4xlnt5color5greenEv
FNF:45
FNH:40
DA:35,475
DA:37,475
DA:38,475
DA:40,475
DA:41,475
DA:42,475
DA:43,475
DA:45,475
DA:54,3471
DA:55,3471
DA:57,3471
DA:59,1204
DA:61,1204
DA:64,1
DA:66,1
DA:67,1
DA:71,3471
DA:72,3471
DA:74,3471
DA:76,1955
DA:78,1955
DA:81,1
DA:83,1
DA:84,1
DA:88,1432
DA:91,716
DA:92,716
DA:94,3580
DA:96,8592
DA:98,5728
DA:99,5728
DA:103,716
DA:106,475
DA:107,475
DA:109,475
DA:111,3241
DA:112,3241
DA:114,3241
DA:116,0
DA:118,0
DA:121,0
DA:123,0
DA:126,0
DA:128,0
DA:131,0
DA:133,0
DA:136,0
DA:138,0
DA:141,1032
DA:143,1032
DA:148,3
DA:150,6
DA:153,1
DA:155,2
DA:158,9
DA:160,18
DA:163,1
DA:165,2
DA:168,1
DA:170,2
DA:173,2
DA:175,4
DA:178,6
DA:180,12
DA:183,1
DA:185,2
DA:188,3
DA:190,6
DA:193,1
DA:195,2
DA:198,1342
DA:199,1342
DA:201,1342
DA:203,486
DA:204,486
DA:205,486
DA:206,486
DA:207,486
DA:209,486
DA:211,1986
DA:212,1986
DA:213,1986
DA:214,1986
DA:215,1986
DA:217,1986
DA:219,999
DA:220,999
DA:221,999
DA:222,999
DA:223,999
DA:225,999
DA:227,600
DA:229,600
DA:232,604
DA:234,604
DA:237,4
DA:239,4
DA:240,4
DA:242,184
DA:244,184
DA:245,184
DA:248,4
DA:250,4
DA:251,3
DA:254,259
DA:256,259
DA:257,259
DA:260,4
DA:262,4
DA:263,3
DA:266,172
DA:268,172
DA:269,172
DA:272,23
DA:274,23
DA:275,21
DA:278,600
DA:280,600
DA:283,180
DA:285,180
DA:286,180
DA:288,80
DA:290,80
DA:293,646
DA:295,646
DA:297,4
DA:299,642
DA:301,1898
DA:303,1898
DA:305,26
DA:307,1872
DA:309,0
DA:312,1872
DA:314,509
DA:315,509
DA:316,847
DA:317,847
DA:318,516
DA:319,516
DA:322,0
DA:325,1886
DA:327,1886
LF:142
LH:130
end_of_record
TN:
SF:/root/project/source/styles/conditional_format.cpp
FN:35,_ZN4xlnt9condition16text_starts_withERKNSt7__cxx1112basic_stringIcSt11char_traitsIcESaIcEEE
FN:44,_ZN4xlnt9condition14text_ends_withERKNSt7__cxx1112basic_stringIcSt11char_traitsIcESaIcEEE
FN:53,_ZN4xlnt9condition13text_containsERKNSt7__cxx1112basic_stringIcSt11char_traitsIcESaIcEEE
FN:62,_ZN4xlnt9condition21text_does_not_containERKNSt7__cxx1112basic_stringIcSt11char_traitsIcESaIcEEE
FN:71,_ZN4xlnt18conditional_formatC2EPNS_6detail23conditional_format_implE
FN:76,_ZNK4xlnt18conditional_formateqERKS0_
FN:81,_ZNK4xlnt18conditional_formatneERKS0_
FN:86,_ZNK4xlnt18conditional_format10has_borderEv
FN:91,_ZNK4xlnt18conditional_format6borderEv
FN:96,_ZN4xlnt18conditional_format6borderERKNS_6borderE
FN:102,_ZNK4xlnt18conditional_format8has_fillEv
FN:107,_ZNK4xlnt18conditional_format4fillEv
FN:112,_ZN4xlnt18conditional_format4fillERKNS_4fillE
FN:118,_ZNK4xlnt18conditional_format8has_fontEv
FN:123,_ZNK4xlnt18conditional_format4fontEv
FN:128,_ZN4xlnt18conditional_format4fontERKNS_4fontE
FNDA:1,_ZN4xlnt9condition13text_containsERKNSt7__cxx1112basic_stringIcSt11char_traitsIcESaIcEEE
FNDA:1,_ZNK4xlnt18conditional_format4fillEv
FNDA:2,_ZNK4xlnt18conditional_format8has_fontEv
FNDA:1,_ZNK4xlnt18conditional_formateqERKS0_
FNDA:0,_ZN4xlnt9condition21text_does_not_containERKNSt7__cxx1112basic_stringIcSt11char_traitsIcESaIcEEE
FNDA:1,_ZN4xlnt18conditional_formatC2EPNS_6detail23conditional_format_implE
FNDA:0,_ZN4xlnt9condition14text_ends_withERKNSt7__cxx1112basic_stringIcSt11char_traitsIcESaIcEEE
FNDA:0,_ZN4xlnt9condition16text_starts_withERKNSt7__cxx1112basic_stringIcSt11char_traitsIcESaIcEEE
FNDA:2,_ZNK4xlnt18conditional_format10has_borderEv
FNDA:0,_ZNK4xlnt18conditional_formatneERKS0_
FNDA:1,_ZNK4xlnt18conditional_format4fontEv
FNDA:2,_ZNK4xlnt18conditional_format8has_fillEv
FNDA:1,_ZN4xlnt18conditional_format4fillERKNS_4fillE
FNDA:1,_ZN4xlnt18conditional_format4fontERKNS_4fontE
FNDA:1,_ZN4xlnt18conditional_format6borderERKNS_6borderE
FNDA:1,_ZNK4xlnt18conditional_format6borderEv
FNF:16
FNH:12
DA:35,0
DA:37,0
DA:38,0
DA:39,0
DA:40,0
DA:41,0
DA:42,0
DA:44,0
DA:46,0
DA:47,0
DA:48,0
DA:49,0
DA:50,0
DA:51,0
DA:53,1
DA:55,1
DA:56,1
DA:57,1
DA:58,1
DA:59,1
DA:60,0
DA:62,0
DA:64,0
DA:65,0
DA:66,0
DA:67,0
DA:68,0
DA:69,0
DA:71,1
DA:72,1
DA:74,1
DA:76,1
DA:78,1
DA:81,0
DA:83,0
DA:86,2
DA:88,2
DA:91,1
DA:93,1
DA:96,1
DA:98,1
DA:99,1
DA:102,2
DA:104,2
DA:107,1
DA:109,1
DA:112,1
DA:114,1
DA:115,1
DA:118,2
DA:120,2
DA:123,1
DA:125,1
DA:128,1
DA:130,1
DA:131,1
LF:56
LH:32
end_of_record
TN:
SF:/root/project/source/styles/fill.cpp
FN:34,_ZN4xlnt12pattern_fillC2Ev
FN:38,_ZNK4xlnt12pattern_fill4typeEv
FN:43,_ZN4xlnt12pattern_fill4typeENS_17pattern_fill_typeE
FN:49,_ZNK4xlnt12pattern_fill10foregroundEv
FN:54,_ZN4xlnt12pattern_fill10foregroundERKNS_5colorE
FN:66,_ZNK4xlnt12pattern_fill10backgroundEv
FN:71,_ZN4xlnt12pattern_fill10backgroundERKNS_5colorE
FN:77,_ZNK4xlnt12pattern_filleqERKS0_
FN:113,_ZNK4xlnt12pattern_fillneERKS0_
FN:120,_ZN4xlnt13gradient_fillC2Ev
FN:125,_ZNK4xlnt13gradient_fill4typeEv
FN:130,_ZN4xlnt13gradient_fill4typeENS_18gradient_fill_typeE
FN:136,_ZN4xlnt13gradient_fill6degreeEd
FN:142,_ZNK4xlnt13gradient_fill6degreeEv
FN:147,_ZNK4xlnt13gradient_fill4leftEv
FN:152,_ZN4xlnt13gradient_fill4leftEd
FN:158,_ZNK4xlnt13gradient_fill5rightEv
FN:163,_ZN4xlnt13gradient_fill5rightEd
FN:169,_ZNK4xlnt13gradient_fill3topEv
FN:174,_ZN4xlnt13gradient_fill3topEd
FN:180,_ZNK4xlnt13gradient_fill6bottomEv
FN:185,_ZN4xlnt13gradient_fill6bottomEd
FN:191,_ZN4xlnt13gradient_fill8add_stopEdNS_5colorE
FN:197,_ZN4xlnt13gradient_fill11clear_stopsEv
FN:203,_ZNK4xlnt13gradient_fill5stopsEv
FN:208,_ZNK4xlnt13gradient_filleqERKS0_
FN:248,_ZNK4xlnt13gradient_fillneERKS0_
FN:255,_ZN4xlnt4fill5solidERKNS_5colorE
FN:263,_ZN4xlnt4fillC2Ev
FN:268,_ZN4xlnt4fillC2ERKNS_12pattern_fillE
FN:273,_ZN4xlnt4fillC2ERKNS_13gradient_fillE
FN:278,_ZNK4xlnt4fill4typeEv
FN:283,_ZNK4xlnt4fill13gradient_fillEv
FN:293,_ZNK4xlnt4fill12pattern_fillEv
FN:303,_ZNK4xlnt4filleqERKS0_
FN:318,_ZNK4xlnt4fillneERKS0_
FNDA:3,_ZNK4xlnt4fillneERKS0_
FNDA:968,_ZN4xlnt12pattern_fill4typeENS_17pattern_fill_typeE
FNDA:0,_ZN4xlnt13gradient_fill3topEd
FNDA:1787,_ZNK4xlnt12pattern_fill4typeEv
FNDA:1432,_ZN4xlnt13gradient_fillC2Ev
FNDA:5,_ZN4xlnt4fillC2ERKNS_13gradient_fillE
FNDA:4,_ZNK4xlnt13gradient_fill6degreeEv
FNDA:1576,_ZNK4xlnt4filleqERKS0_
FNDA:0,_ZNK4xlnt12pattern_fillneERKS0_
FNDA:221,_ZN4xlnt12pattern_fill10backgroundERKNS_5colorE
FNDA:2,_ZNK4xlnt13gradient_filleqERKS0_
FNDA:5555,_ZNK4xlnt12pattern_fill10backgroundEv
FNDA:302,_ZN4xlnt12pattern_fill10foregroundERKNS_5colorE
FNDA:4475,_ZNK4xlnt12pattern_fill10foregroundEv
FNDA:1431,_ZN4xlnt12pattern_fillC2Ev
FNDA:12,_ZNK4xlnt4fill13gradient_fillEv
FNDA:1,_ZN4xlnt13gradient_fill6degreeEd
FNDA:0,_ZN4xlnt13gradient_fill8add_stopEdNS_5colorE
FNDA:0,_ZN4xlnt13gradient_fill6bottomEd
FNDA:3,_ZNK4xlnt13gradient_fill5rightEv
FNDA:4953,_ZNK4xlnt4fill4typeEv
FNDA:973,_ZN4xlnt4fillC2ERKNS_12pattern_fillE
FNDA:3,_ZNK4xlnt13gradient_fill3topEv
FNDA:3376,_ZNK4xlnt4fill12pattern_fillEv
FNDA:3,_ZNK4xlnt13gradient_fill4leftEv
FNDA:0,_ZNK4xlnt13gradient_fillneERKS0_
FNDA:3,_ZN4xlnt13gradient_fill4typeENS_18gradient_fill_typeE
FNDA:15,_ZN4xlnt4fill5solidERKNS_5colorE
FNDA:1570,_ZNK4xlnt12pattern_filleqERKS0_
FNDA:455,_ZN4xlnt4fillC2Ev
FNDA:5,_ZNK4xlnt13gradient_fill4typeEv
FNDA:0,_ZN4xlnt13gradient_fill5rightEd
FNDA:2,_ZNK4xlnt13gradient_fill5stopsEv
FNDA:3,_ZNK4xlnt13gradient_fill6bottomEv
FNDA:0,_ZN4xlnt13gradient_fill11clear_stopsEv
FNDA:0,_ZN4xlnt13gradient_fill4leftEd
FNF:36
FNH:28
DA:34,1431
DA:36,1431
DA:38,1787
DA:40,1787
DA:43,968
DA:45,968
DA:46,968
DA:49,4475
DA:51,4475
DA:54,302
DA:56,302
DA:58,302
DA:60,302
DA:63,302
DA:66,5555
DA:68,5555
DA:71,221
DA:73,221
DA:74,221
DA:77,1570
DA:79,1570
DA:81,540
DA:84,1030
DA:86,509
DA:88,0
DA:92,1030
DA:94,0
DA:97,1030
DA:99,509
DA:101,250
DA:105,780
DA:107,0
DA:110,780
DA:113,0
DA:115,0
DA:120,1432
DA:121,1432
DA:123,1432
DA:125,5
DA:127,5
DA:130,3
DA:132,3
DA:133,3
DA:136,1
DA:138,1
DA:139,1
DA:142,4
DA:144,4
DA:147,3
DA:149,3
DA:152,0
DA:154,0
DA:155,0
DA:158,3
DA:160,3
DA:163,0
DA:165,0
DA:166,0
DA:169,3
DA:171,3
DA:174,0
DA:176,0
DA:177,0
DA:180,3
DA:182,3
DA:185,0
DA:187,0
DA:188,0
DA:191,0
DA:193,0
DA:194,0
DA:197,0
DA:199,0
DA:200,0
DA:203,2
DA:205,2
DA:208,2
DA:210,2
DA:212,1
DA:215,1
DA:217,0
DA:220,1
DA:222,0
DA:225,1
DA:227,0
DA:230,1
DA:232,0
DA:235,1
DA:237,0
DA:240,1
DA:242,0
DA:245,1
DA:248,0
DA:250,0
DA:255,15
DA:257,30
DA:258,15
DA:259,15
DA:260,30
DA:263,455
DA:264,455
DA:266,455
DA:268,973
DA:269,973
DA:271,973
DA:273,5
DA:274,5
DA:276,5
DA:278,4953
DA:280,4953
DA:283,12
DA:285,12
DA:287,0
DA:290,12
DA:293,3376
DA:295,3376
DA:297,1
DA:300,3375
DA:303,1576
DA:305,1576
DA:307,4
DA:310,1572
DA:312,2
DA:315,1570
DA:318,3
DA:320,3
LF:126
LH:94
end_of_record
TN:
SF:/root/project/source/styles/font.cpp
FN:31,_ZN12_GLOBAL__N_112Default_NameEv
FN:41,_ZN4xlnt4fontC2Ev
FN:45,_ZN4xlnt4font4boldEb
FN:51,_ZNK4xlnt4font4boldEv
FN:56,_ZN4xlnt4font11superscriptEb
FN:62,_ZNK4xlnt4font11superscriptEv
FN:67,_ZN4xlnt4font9subscriptEb
FN:73,_ZNK4xlnt4font9subscriptEv
FN:78,_ZN4xlnt4font6italicEb
FN:84,_ZNK4xlnt4font6italicEv
FN:89,_ZN4xlnt4font13strikethroughEb
FN:95,_ZNK4xlnt4font13strikethroughEv
FN:100,_ZN4xlnt4font7outlineEb
FN:106,_ZNK4xlnt4font7outlineEv
FN:111,_ZN4xlnt4font6shadowEb
FN:117,_ZNK4xlnt4font6shadowEv
FN:122,_ZN4xlnt4font9underlineENS0_15underline_styleE
FN:128,_ZNK4xlnt4font10underlinedEv
FN:133,_ZNK4xlnt4font9underlineEv
FN:138,_ZNK4xlnt4font8has_sizeEv
FN:143,_ZN4xlnt4font4sizeEd
FN:149,_ZNK4xlnt4font4sizeEv
FN:158,_ZNK4xlnt4font8has_nameEv
FN:163,_ZN4xlnt4font4nameERKNSt7__cxx1112basic_stringIcSt11char_traitsIcESaIcEEE
FN:169,_ZNK4xlnt4font4nameB5cxx11Ev
FN:178,_ZNK4xlnt4font9has_colorEv
FN:183,_ZN4xlnt4font5colorERKNS_5colorE
FN:189,_ZNK4xlnt4font10has_familyEv
FN:194,_ZN4xlnt4font6familyEm
FN:200,_ZNK4xlnt4font11has_charsetEv
FN:205,_ZN4xlnt4font7charsetEm
FN:211,_ZNK4xlnt4font7charsetEv
FN:216,_ZNK4xlnt4font10has_schemeEv
FN:221,_ZN4xlnt4font6schemeERKNSt7__cxx1112basic_stringIcSt11char_traitsIcESaIcEEE
FN:227,_ZNK4xlnt4font5colorEv
FN:232,_ZNK4xlnt4font6familyEv
FN:237,_ZNK4xlnt4font6schemeB5cxx11Ev
FN:242,_ZNK4xlnt4fonteqERKS0_
FNDA:3261,_ZNK4xlnt4font8has_nameEv
FNDA:9,_ZN4xlnt4font11superscriptEb
FNDA:77,_ZN4xlnt4font9underlineENS0_15underline_styleE
FNDA:1966,_ZNK4xlnt4font13strikethroughEv
FNDA:3005,_ZNK4xlnt4font9has_colorEv
FNDA:1966,_ZNK4xlnt4font6familyEv
FNDA:0,_ZNK4xlnt4font7outlineEv
FNDA:3002,_ZNK4xlnt4font10has_familyEv
FNDA:217,_ZNK4xlnt4font10underlinedEv
FNDA:0,_ZN4xlnt4font6shadowEb
FNDA:1688,_ZNK4xlnt4font6shadowEv
FNDA:22,_ZN4xlnt4font13strikethroughEb
FNDA:1969,_ZNK4xlnt4font5colorEv
FNDA:3125,_ZNK4xlnt4font8has_sizeEv
FNDA:1919,_ZNK4xlnt4font6schemeB5cxx11Ev
FNDA:2123,_ZNK4xlnt4font4sizeEv
FNDA:1954,_ZNK4xlnt4font6italicEv
FNDA:1787,_ZNK4xlnt4font9underlineEv
FNDA:0,_ZN4xlnt4font7charsetEm
FNDA:1023,_ZN4xlnt4fontC2Ev
FNDA:0,_ZNK4xlnt4font7charsetEv
FNDA:1014,_ZN4xlnt4font4nameERKNSt7__cxx1112basic_stringIcSt11char_traitsIcESaIcEEE
FNDA:45,_ZN4xlnt4font6italicEb
FNDA:2024,_ZNK4xlnt4font4boldEv
FNDA:2,_ZN12_GLOBAL__N_112Default_NameEv
FNDA:2203,_ZNK4xlnt4font4nameB5cxx11Ev
FNDA:934,_ZN4xlnt4font5colorERKNS_5colorE
FNDA:817,_ZN4xlnt4font6schemeERKNSt7__cxx1112basic_stringIcSt11char_traitsIcESaIcEEE
FNDA:1934,_ZNK4xlnt4font9subscriptEv
FNDA:18,_ZN4xlnt4font9subscriptEb
FNDA:2994,_ZNK4xlnt4font10has_schemeEv
FNDA:158,_ZN4xlnt4font4boldEb
FNDA:1946,_ZNK4xlnt4font11superscriptEv
FNDA:860,_ZN4xlnt4font6familyEm
FNDA:1001,_ZN4xlnt4font4sizeEd
FNDA:1019,_ZNK4xlnt4fonteqERKS0_
FNDA:0,_ZN4xlnt4font7outlineEb
FNDA:2664,_ZNK4xlnt4font11has_charsetEv
FNF:38
FNH:33
DA:31,2
DA:33,2
DA:34,2
DA:41,1023
DA:43,1023
DA:45,158
DA:47,158
DA:48,158
DA:51,2024
DA:53,2024
DA:56,9
DA:58,9
DA:59,9
DA:62,1946
DA:64,1946
DA:67,18
DA:69,18
DA:70,18
DA:73,1934
DA:75,1934
DA:78,45
DA:80,45
DA:81,45
DA:84,1954
DA:86,1954
DA:89,22
DA:91,22
DA:92,22
DA:95,1966
DA:97,1966
DA:100,0
DA:102,0
DA:103,0
DA:106,0
DA:108,0
DA:111,0
DA:113,0
DA:114,0
DA:117,1688
DA:119,1688
DA:122,77
DA:124,77
DA:125,77
DA:128,217
DA:130,217
DA:133,1787
DA:135,1787
DA:138,3125
DA:140,3125
DA:143,1001
DA:145,1001
DA:146,1001
DA:149,2123
DA:151,2123
DA:153,2123
DA:155,0
DA:158,3261
DA:160,3261
DA:163,1014
DA:165,1014
DA:166,1014
DA:169,2203
DA:171,2203
DA:173,2201
DA:175,2
DA:178,3005
DA:180,3005
DA:183,934
DA:185,934
DA:186,934
DA:189,3002
DA:191,3002
DA:194,860
DA:196,860
DA:197,860
DA:200,2664
DA:202,2664
DA:205,0
DA:207,0
DA:208,0
DA:211,0
DA:213,0
DA:216,2994
DA:218,2994
DA:221,817
DA:223,817
DA:224,817
DA:227,1969
DA:229,1969
DA:232,1966
DA:234,1966
DA:237,1919
DA:239,1919
DA:242,1019
DA:245,1019
DA:246,990
DA:248,964
DA:249,964
DA:251,928
DA:252,924
DA:254,924
DA:255,924
DA:257,924
DA:258,924
DA:260,888
DA:261,888
DA:263,888
DA:264,874
DA:265,874
DA:266,870
DA:267,866
DA:268,862
DA:269,844
DA:271,844
LF:114
LH:100
end_of_record
TN:
SF:/root/project/source/styles/format.cpp
FN:35,_ZN4xlnt6formatC2EPNS_6detail11format_implE
FN:40,_ZN4xlnt6format11clear_styleEv
FN:45,_ZN4xlnt6format5styleERKNS_5styleE
FN:51,_ZN4xlnt6format5styleERKNSt7__cxx1112basic_stringIcSt11char_traitsIcESaIcEEE
FN:57,_ZNK4xlnt6format9has_styleEv
FN:62,_ZN4xlnt6format5styleEv
FN:72,_ZNK4xlnt6format5styleEv
FN:82,_ZNK4xlnt6format9alignmentEv
FN:87,_ZN4xlnt6format9alignmentERKNS_9alignmentENS_8optionalIbEE
FN:93,_ZNK4xlnt6format6borderEv
FN:98,_ZN4xlnt6format6borderERKNS_6borderENS_8optionalIbEE
FN:104,_ZNK4xlnt6format4fillEv
FN:109,_ZN4xlnt6format4fillERKNS_4fillENS_8optionalIbEE
FN:115,_ZNK4xlnt6format4fontEv
FN:120,_ZN4xlnt6format4fontERKNS_4fontENS_8optionalIbEE
FN:126,_ZNK4xlnt6format13number_formatEv
FN:139,_ZZNK4xlnt6format13number_formatEvENKUlRKNS_13number_formatEE_clES3_
FN:152,_ZN4xlnt6format13number_formatERKNS_13number_formatENS_8optionalIbEE
FN:158,_ZNK4xlnt6format10protectionEv
FN:163,_ZN4xlnt6format10protectionERKNS_10protectionENS_8optionalIbEE
FN:169,_ZNK4xlnt6format17alignment_appliedEv
FN:176,_ZNK4xlnt6format14border_appliedEv
FN:183,_ZNK4xlnt6format12fill_appliedEv
FN:190,_ZNK4xlnt6format12font_appliedEv
FN:197,_ZNK4xlnt6format21number_format_appliedEv
FN:204,_ZNK4xlnt6format18protection_appliedEv
FN:211,_ZNK4xlnt6format12pivot_buttonEv
FN:216,_ZN4xlnt6format12pivot_buttonEb
FN:221,_ZNK4xlnt6format12quote_prefixEv
FN:226,_ZN4xlnt6format12quote_prefixEb
FNDA:1,_ZNK4xlnt6format14border_appliedEv
FNDA:1,_ZNK4xlnt6format21number_format_appliedEv
FNDA:1,_ZNK4xlnt6format10protectionEv
FNDA:0,_ZN4xlnt6format12quote_prefixEb
FNDA:1,_ZN4xlnt6format9alignmentERKNS_9alignmentENS_8optionalIbEE
FNDA:535,_ZN4xlnt6format4fontERKNS_4fontENS_8optionalIbEE
FNDA:17,_ZNK4xlnt6format13number_formatEv
FNDA:0,_ZNK4xlnt6format12pivot_buttonEv
FNDA:1,_ZN4xlnt6format10protectionERKNS_10protectionENS_8optionalIbEE
FNDA:0,_ZNK4xlnt6format12quote_prefixEv
FNDA:34,_ZZNK4xlnt6format13number_formatEvENKUlRKNS_13number_formatEE_clES3_
FNDA:1,_ZNK4xlnt6format12fill_appliedEv
FNDA:511,_ZN4xlnt6format6borderERKNS_6borderENS_8optionalIbEE
FNDA:1,_ZNK4xlnt6format6borderEv
FNDA:7,_ZNK4xlnt6format4fontEv
FNDA:261,_ZN4xlnt6format5styleERKNS_5styleE
FNDA:17,_ZNK4xlnt6format9has_styleEv
FNDA:1,_ZNK4xlnt6format18protection_appliedEv
FNDA:513,_ZN4xlnt6format4fillERKNS_4fillENS_8optionalIbEE
FNDA:0,_ZN4xlnt6format12pivot_buttonEb
FNDA:2,_ZN4xlnt6format11clear_styleEv
FNDA:1,_ZNK4xlnt6format9alignmentEv
FNDA:250,_ZN4xlnt6format5styleERKNSt7__cxx1112basic_stringIcSt11char_traitsIcESaIcEEE
FNDA:1,_ZNK4xlnt6format12font_appliedEv
FNDA:0,_ZNK4xlnt6format5styleEv
FNDA:1,_ZNK4xlnt6format17alignment_appliedEv
FNDA:532,_ZN4xlnt6format13number_formatERKNS_13number_formatENS_8optionalIbEE
FNDA:3,_ZNK4xlnt6format4fillEv
FNDA:4707,_ZN4xlnt6formatC2EPNS_6detail11format_implE
FNDA:6,_ZN4xlnt6format5styleEv
FNF:30
FNH:25
DA:35,4707
DA:36,4707
DA:38,4707
DA:40,2
DA:42,2
DA:43,2
DA:45,261
DA:47,261
DA:48,261
DA:51,250
DA:53,250
DA:54,250
DA:57,17
DA:59,17
DA:62,6
DA:64,6
DA:66,0
DA:69,6
DA:72,0
DA:74,0
DA:76,0
DA:79,0
DA:82,1
DA:84,1
DA:87,1
DA:89,1
DA:90,1
DA:93,1
DA:95,1
DA:98,511
DA:100,511
DA:101,511
DA:104,3
DA:106,3
DA:109,513
DA:111,513
DA:112,513
DA:115,7
DA:117,7
DA:120,535
DA:122,535
DA:123,535
DA:126,17
DA:128,17
DA:130,17
DA:132,17
DA:134,19
DA:137,15
DA:138,15
DA:139,34
DA:141,34
DA:143,15
DA:145,15
DA:149,0
DA:152,532
DA:154,532
DA:155,532
DA:158,1
DA:160,1
DA:163,1
DA:165,1
DA:166,1
DA:169,1
DA:171,1
DA:172,1
DA:173,1
DA:176,1
DA:178,1
DA:179,1
DA:180,1
DA:183,1
DA:185,1
DA:186,1
DA:187,1
DA:190,1
DA:192,1
DA:193,1
DA:194,1
DA:197,1
DA:199,1
DA:200,1
DA:201,1
DA:204,1
DA:206,1
DA:207,1
DA:208,1
DA:211,0
DA:213,0
DA:216,0
DA:218,0
DA:219,0
DA:221,0
DA:223,0
DA:226,0
DA:228,0
DA:229,0
LF:96
LH:80
end_of_record
TN:
SF:/root/project/source/styles/number_format.cpp
FN:37,_ZN12_GLOBAL__N_115builtin_formatsEv
FN:94,_ZN4xlnt13number_format7generalEv
FN:99,_ZN4xlnt13number_format4textEv
FN:104,_ZN4xlnt13number_format6numberEv
FN:109,_ZN4xlnt13number_format9number_00Ev
FN:114,_ZN4xlnt13number_format23number_comma_separated1Ev
FN:119,_ZN4xlnt13number_format10percentageEv
FN:124,_ZN4xlnt13number_format13percentage_00Ev
FN:129,_ZN4xlnt13number_format14date_yyyymmdd2Ev
FN:135,_ZN4xlnt13number_format11date_yymmddEv
FN:141,_ZN4xlnt13number_format13date_ddmmyyyyEv
FN:147,_ZN4xlnt13number_format13date_dmyslashEv
FN:153,_ZN4xlnt13number_format13date_dmyminusEv
FN:159,_ZN4xlnt13number_format12date_dmminusEv
FN:165,_ZN4xlnt13number_format12date_myminusEv
FN:171,_ZN4xlnt13number_format11date_xlsx14Ev
FN:176,_ZN4xlnt13number_format11date_xlsx15Ev
FN:181,_ZN4xlnt13number_format11date_xlsx16Ev
FN:186,_ZN4xlnt13number_format11date_xlsx17Ev
FN:191,_ZN4xlnt13number_format11date_xlsx22Ev
FN:196,_ZN4xlnt13number_format13date_datetimeEv
FN:202,_ZN4xlnt13number_format10date_time1Ev
FN:207,_ZN4xlnt13number_format10date_time2Ev
FN:212,_ZN4xlnt13number_format10date_time3Ev
FN:217,_ZN4xlnt13number_format10date_time4Ev
FN:222,_ZN4xlnt13number_format10date_time5Ev
FN:227,_ZN4xlnt13number_format10date_time6Ev
FN:232,_ZN4xlnt13number_formatC2Ev
FN:237,_ZN4xlnt13number_formatC2Em
FN:242,_ZN4xlnt13number_formatC2ERKNSt7__cxx1112basic_stringIcSt11char_traitsIcESaIcEEE
FN:247,_ZN4xlnt13number_formatC2ERKNSt7__cxx1112basic_stringIcSt11char_traitsIcESaIcEEEm
FN:252,_ZN4xlnt13number_format17is_builtin_formatEm
FN:257,_ZN4xlnt13number_format15from_builtin_idEm
FN:267,_ZNK4xlnt13number_format13format_stringB5cxx11Ev
FN:272,_ZN4xlnt13number_format13format_stringERKNSt7__cxx1112basic_stringIcSt11char_traitsIcESaIcEEE
FN:287,_ZN4xlnt13number_format13format_stringERKNSt7__cxx1112basic_stringIcSt11char_traitsIcESaIcEEEm
FN:293,_ZNK4xlnt13number_format6has_idEv
FN:298,_ZN4xlnt13number_format2idEm
FN:303,_ZNK4xlnt13number_format2idEv
FN:313,_ZNK4xlnt13number_format14is_date_formatEv
FN:338,_ZNK4xlnt13number_format6formatERKNSt7__cxx1112basic_stringIcSt11char_traitsIcESaIcEEE
FN:343,_ZNK4xlnt13number_format6formatB5cxx11EdNS_8calendarE
FN:348,_ZNK4xlnt13number_formateqERKS0_
FN:353,_ZNK4xlnt13number_formatneERKS0_
FNDA:1,_ZN4xlnt13number_format9number_00Ev
FNDA:3,_ZN4xlnt13number_format12date_dmminusEv
FNDA:1,_ZN4xlnt13number_format6numberEv
FNDA:1,_ZN4xlnt13number_format10date_time3Ev
FNDA:1,_ZN4xlnt13number_format12date_myminusEv
FNDA:15,_ZN4xlnt13number_format15from_builtin_idEm
FNDA:1,_ZN4xlnt13number_format13date_dmyminusEv
FNDA:1,_ZN4xlnt13number_format23number_comma_separated1Ev
FNDA:2,_ZN4xlnt13number_format10date_time4Ev
FNDA:32,_ZN4xlnt13number_format17is_builtin_formatEm
FNDA:1,_ZN4xlnt13number_format13percentage_00Ev
FNDA:1,_ZN4xlnt13number_format10date_time1Ev
FNDA:5,_ZN4xlnt13number_format10date_time6Ev
FNDA:3431,_ZNK4xlnt13number_format13format_stringB5cxx11Ev
FNDA:1,_ZN4xlnt13number_format11date_xlsx22Ev
FNDA:108,_ZN4xlnt13number_format13format_stringERKNSt7__cxx1112basic_stringIcSt11char_traitsIcESaIcEEE
FNDA:1,_ZN4xlnt13number_format11date_xlsx15Ev
FNDA:1959,_ZNK4xlnt13number_format2idEv
FNDA:720,_ZN12_GLOBAL__N_115builtin_formatsEv
FNDA:219,_ZNK4xlnt13number_format6formatB5cxx11EdNS_8calendarE
FNDA:7,_ZN4xlnt13number_format13date_datetimeEv
FNDA:5,_ZN4xlnt13number_format10percentageEv
FNDA:503,_ZN4xlnt13number_format7generalEv
FNDA:250,_ZN4xlnt13number_formatC2Ev
FNDA:3,_ZN4xlnt13number_format14date_yyyymmdd2Ev
FNDA:380,_ZN4xlnt13number_formatC2ERKNSt7__cxx1112basic_stringIcSt11char_traitsIcESaIcEEEm
FNDA:1,_ZN4xlnt13number_format10date_time5Ev
FNDA:1,_ZN4xlnt13number_format4textEv
FNDA:1,_ZN4xlnt13number_format11date_xlsx14Ev
FNDA:40,_ZNK4xlnt13number_formateqERKS0_
FNDA:1,_ZN4xlnt13number_format11date_xlsx17Ev
FNDA:5,_ZN4xlnt13number_format10date_time2Ev
FNDA:4,_ZNK4xlnt13number_format14is_date_formatEv
FNDA:22,_ZN4xlnt13number_formatC2ERKNSt7__cxx1112basic_stringIcSt11char_traitsIcESaIcEEE
FNDA:6,_ZN4xlnt13number_format13date_ddmmyyyyEv
FNDA:1,_ZN4xlnt13number_format11date_yymmddEv
FNDA:0,_ZNK4xlnt13number_formatneERKS0_
FNDA:84,_ZNK4xlnt13number_format6formatERKNSt7__cxx1112basic_stringIcSt11char_traitsIcESaIcEEE
FNDA:380,_ZN4xlnt13number_format13format_stringERKNSt7__cxx1112basic_stringIcSt11char_traitsIcESaIcEEEm
FNDA:44,_ZN4xlnt13number_format2idEm
FNDA:2,_ZN4xlnt13number_formatC2Em
FNDA:1,_ZN4xlnt13number_format13date_dmyslashEv
FNDA:1,_ZN4xlnt13number_format11date_xlsx16Ev
FNDA:2748,_ZNK4xlnt13number_format6has_idEv
FNF:44
FNH:43
DA:37,720
DA:39,720
DA:41,720
DA:44,0
DA:45,0
DA:46,0
DA:47,0
DA:48,0
DA:49,0
DA:50,0
DA:51,0
DA:52,0
DA:53,0
DA:54,0
DA:55,0
DA:56,0
DA:57,0
DA:58,0
DA:59,0
DA:60,0
DA:61,0
DA:62,0
DA:63,0
DA:64,0
DA:65,0
DA:66,0
DA:69,0
DA:70,0
DA:71,0
DA:72,0
DA:74,0
DA:75,0
DA:76,0
DA:77,0
DA:78,136
DA:80,132
DA:82,128
DA:83,256
DA:84,128
DA:85,4
DA:87,720
DA:88,4
DA:94,503
DA:96,503
DA:99,1
DA:101,1
DA:104,1
DA:106,1
DA:109,1
DA:111,1
DA:114,1
DA:116,1
DA:119,5
DA:121,5
DA:124,1
DA:126,1
DA:129,3
DA:131,5
DA:132,3
DA:135,1
DA:137,3
DA:138,1
DA:141,6
DA:143,8
DA:144,6
DA:147,1
DA:149,3
DA:150,1
DA:153,1
DA:155,3
DA:156,1
DA:159,3
DA:161,5
DA:162,3
DA:165,1
DA:167,3
DA:168,1
DA:171,1
DA:173,1
DA:176,1
DA:178,1
DA:181,1
DA:183,1
DA:186,1
DA:188,1
DA:191,1
DA:193,1
DA:196,7
DA:198,9
DA:199,7
DA:202,1
DA:204,1
DA:207,5
DA:209,5
DA:212,1
DA:214,1
DA:217,2
DA:219,2
DA:222,1
DA:224,1
DA:227,5
DA:229,5
DA:232,250
DA:233,250
DA:235,250
DA:237,2
DA:238,2
DA:240,2
DA:242,22
DA:243,22
DA:245,22
DA:247,380
DA:249,380
DA:250,380
DA:252,32
DA:254,32
DA:257,15
DA:259,15
DA:261,0
DA:264,15
DA:267,3431
DA:269,3431
DA:272,108
DA:274,108
DA:275,108
DA:277,3512
DA:279,3418
DA:281,14
DA:282,14
DA:285,108
DA:287,380
DA:289,380
DA:290,380
DA:291,380
DA:293,2748
DA:295,2748
DA:298,44
DA:300,44
DA:301,44
DA:303,1959
DA:305,1959
DA:307,2
DA:310,1957
DA:313,4
DA:315,4
DA:316,4
DA:317,4
DA:319,4
DA:320,4
DA:322,8
DA:324,4
DA:326,4
DA:329,4
DA:331,1
DA:335,8
DA:336,4
DA:338,84
DA:340,84
DA:343,219
DA:345,219
DA:348,40
DA:350,40
DA:353,0
DA:355,0
LF:164
LH:130
end_of_record
TN:
SF:/root/project/source/styles/protection.cpp
FN:30,_ZN4xlnt10protection20unlocked_and_visibleEv
FN:35,_ZN4xlnt10protection18locked_and_visibleEv
FN:40,_ZN4xlnt10protection19unlocked_and_hiddenEv
FN:45,_ZN4xlnt10protection17locked_and_hiddenEv
FN:50,_ZN4xlnt10protectionC2Ev
FN:55,_ZNK4xlnt10protection6lockedEv
FN:60,_ZN4xlnt10protection6lockedEb
FN:66,_ZNK4xlnt10protection6hiddenEv
FN:71,_ZN4xlnt10protection6hiddenEb
FN:77,_ZNK4xlnt10protectioneqERKS0_
FN:82,_ZNK4xlnt10protectionneERKS0_
FNDA:0,_ZNK4xlnt10protectionneERKS0_
FNDA:1,_ZN4xlnt10protection17locked_and_hiddenEv
FNDA:1,_ZN4xlnt10protection18locked_and_visibleEv
FNDA:5,_ZNK4xlnt10protection6hiddenEv
FNDA:27,_ZN4xlnt10protectionC2Ev
FNDA:1,_ZN4xlnt10protection19unlocked_and_hiddenEv
FNDA:5,_ZNK4xlnt10protection6lockedEv
FNDA:1,_ZN4xlnt10protection20unlocked_and_visibleEv
FNDA:25,_ZN4xlnt10protection6hiddenEb
FNDA:13,_ZNK4xlnt10protectioneqERKS0_
FNDA:25,_ZN4xlnt10protection6lockedEb
FNF:11
FNH:10
DA:30,1
DA:32,1
DA:35,1
DA:37,1
DA:40,1
DA:42,1
DA:45,1
DA:47,1
DA:50,27
DA:51,27
DA:53,27
DA:55,5
DA:57,5
DA:60,25
DA:62,25
DA:63,25
DA:66,5
DA:68,5
DA:71,25
DA:73,25
DA:74,25
DA:77,13
DA:79,13
DA:82,0
DA:84,0
LF:25
LH:23
end_of_record
TN:
SF:/root/project/source/styles/style.cpp
FN:38,_ZN12_GLOBAL__N_118find_number_formatERSt6vectorIN4xlnt13number_formatESaIS2_EEm
FN:42,_ZZN12_GLOBAL__N_118find_number_formatERSt6vectorIN4xlnt13number_formatESaIS2_EEmENKUlRKS2_E_clES7_
FN:49,_ZN4xlnt5styleC2EPNS_6detail10style_implE
FN:54,_ZNK4xlnt5style6hiddenEv
FN:59,_ZN4xlnt5style6hiddenEb
FN:65,_ZNK4xlnt5style10builtin_idEv
FN:70,_ZNK4xlnt5style7builtinEv
FN:75,_ZNK4xlnt5style4nameB5cxx11Ev
FN:80,_ZN4xlnt5style4nameERKNSt7__cxx1112basic_stringIcSt11char_traitsIcESaIcEEE
FN:86,_ZNK4xlnt5style14custom_builtinEv
FN:91,_ZNK4xlnt5styleeqERKS0_
FN:96,_ZNK4xlnt5styleneERKS0_
FN:101,_ZNK4xlnt5style9alignmentEv
FN:106,_ZN4xlnt5style9alignmentERKNS_9alignmentENS_8optionalIbEE
FN:114,_ZNK4xlnt5style6borderEv
FN:119,_ZN4xlnt5style6borderERKNS_6borderENS_8optionalIbEE
FN:127,_ZNK4xlnt5style4fillEv
FN:132,_ZN4xlnt5style4fillERKNS_4fillENS_8optionalIbEE
FN:140,_ZNK4xlnt5style4fontEv
FN:145,_ZN4xlnt5style4fontERKNS_4fontENS_8optionalIbEE
FN:153,_ZNK4xlnt5style13number_formatEv
FN:166,_ZN4xlnt5style13number_formatERKNS_13number_formatENS_8optionalIbEE
FN:187,_ZNK4xlnt5style10protectionEv
FN:192,_ZN4xlnt5style10protectionERKNS_10protectionENS_8optionalIbEE
FN:200,_ZNK4xlnt5style17alignment_appliedEv
FN:207,_ZNK4xlnt5style14border_appliedEv
FN:214,_ZNK4xlnt5style12fill_appliedEv
FN:221,_ZNK4xlnt5style12font_appliedEv
FN:228,_ZNK4xlnt5style21number_format_appliedEv
FN:235,_ZNK4xlnt5style18protection_appliedEv
FN:242,_ZNK4xlnt5style12pivot_buttonEv
FN:247,_ZN4xlnt5style12pivot_buttonEb
FN:252,_ZNK4xlnt5style12quote_prefixEv
FN:257,_ZN4xlnt5style12quote_prefixEb
FNDA:520,_ZN12_GLOBAL__N_118find_number_formatERSt6vectorIN4xlnt13number_formatESaIS2_EEm
FNDA:0,_ZNK4xlnt5style7builtinEv
FNDA:0,_ZN4xlnt5style6hiddenEb
FNDA:1158,_ZN4xlnt5styleC2EPNS_6detail10style_implE
FNDA:0,_ZN4xlnt5style10protectionERKNS_10protectionENS_8optionalIbEE
FNDA:0,_ZNK4xlnt5style10protectionEv
FNDA:0,_ZN4xlnt5style4nameERKNSt7__cxx1112basic_stringIcSt11char_traitsIcESaIcEEE
FNDA:0,_ZNK4xlnt5styleneERKS0_
FNDA:0,_ZNK4xlnt5style14border_appliedEv
FNDA:262,_ZN4xlnt5style4fillERKNS_4fillENS_8optionalIbEE
FNDA:261,_ZNK4xlnt5style6borderEv
FNDA:4,_ZNK4xlnt5styleeqERKS0_
FNDA:0,_ZNK4xlnt5style9alignmentEv
FNDA:261,_ZNK4xlnt5style4fillEv
FNDA:291,_ZZN12_GLOBAL__N_118find_number_formatERSt6vectorIN4xlnt13number_formatESaIS2_EEmENKUlRKS2_E_clES7_
FNDA:2,_ZNK4xlnt5style12quote_prefixEv
FNDA:0,_ZNK4xlnt5style10builtin_idEv
FNDA:1,_ZN4xlnt5style12pivot_buttonEb
FNDA:0,_ZNK4xlnt5style18protection_appliedEv
FNDA:2,_ZNK4xlnt5style21number_format_appliedEv
FNDA:0,_ZNK4xlnt5style14custom_builtinEv
FNDA:267,_ZNK4xlnt5style13number_formatEv
FNDA:270,_ZNK4xlnt5style4nameB5cxx11Ev
FNDA:0,_ZNK4xlnt5style12font_appliedEv
FNDA:0,_ZNK4xlnt5style17alignment_appliedEv
FNDA:2,_ZNK4xlnt5style12pivot_buttonEv
FNDA:260,_ZNK4xlnt5style4fontEv
FNDA:1,_ZN4xlnt5style12quote_prefixEb
FNDA:0,_ZNK4xlnt5style12fill_appliedEv
FNDA:0,_ZN4xlnt5style9alignmentERKNS_9alignmentENS_8optionalIbEE
FNDA:251,_ZN4xlnt5style6borderERKNS_6borderENS_8optionalIbEE
FNDA:257,_ZN4xlnt5style13number_formatERKNS_13number_formatENS_8optionalIbEE
FNDA:0,_ZNK4xlnt5style6hiddenEv
FNDA:251,_ZN4xlnt5style4fontERKNS_4fontENS_8optionalIbEE
FNF:34
FNH:18
DA:38,520
DA:41,520
DA:42,811
DA:49,1158
DA:50,1158
DA:52,1158
DA:54,0
DA:56,0
DA:59,0
DA:61,0
DA:62,0
DA:65,0
DA:67,0
DA:70,0
DA:72,0
DA:75,270
DA:77,270
DA:80,0
DA:82,0
DA:83,0
DA:86,0
DA:88,0
DA:91,4
DA:93,4
DA:96,0
DA:98,0
DA:101,0
DA:103,0
DA:106,0
DA:108,0
DA:109,0
DA:111,0
DA:114,261
DA:116,261
DA:119,251
DA:121,251
DA:122,251
DA:124,251
DA:127,261
DA:129,261
DA:132,262
DA:134,262
DA:135,262
DA:137,262
DA:140,260
DA:142,260
DA:145,251
DA:147,251
DA:148,251
DA:150,251
DA:153,267
DA:155,267
DA:156,267
DA:158,267
DA:160,0
DA:163,534
DA:166,257
DA:168,257
DA:170,257
DA:172,4
DA:173,4
DA:175,253
DA:176,506
DA:178,252
DA:181,257
DA:182,257
DA:184,257
DA:185,257
DA:187,0
DA:189,0
DA:192,0
DA:194,0
DA:195,0
DA:197,0
DA:200,0
DA:202,0
DA:203,0
DA:204,0
DA:207,0
DA:209,0
DA:210,0
DA:211,0
DA:214,0
DA:216,0
DA:217,0
DA:218,0
DA:221,0
DA:223,0
DA:224,0
DA:225,0
DA:228,2
DA:230,2
DA:231,2
DA:232,2
DA:235,0
DA:237,0
DA:238,0
DA:239,0
DA:242,2
DA:244,2
DA:247,1
DA:249,1
DA:250,1
DA:252,2
DA:254,2
DA:257,1
DA:259,1
DA:260,1
LF:108
LH:59
end_of_record
TN:
SF:/root/project/source/utils/date.cpp
FN:36,_ZN4xlnt4dateC2Eiii
FN:41,_ZN4xlnt4date11from_numberEiNS_8calendarE
FN:77,_ZNK4xlnt4dateeqERKS0_
FN:82,_ZNK4xlnt4dateneERKS0_
FN:87,_ZNK4xlnt4date9to_numberENS_8calendarE
FN:116,_ZN4xlnt4date5todayEv
FN:130,_ZNK4xlnt4date7weekdayEv
FN:161,_ZNK4xlnt4date8get_yearEv
FN:172,_ZNK4xlnt4date9get_monthEv
FN:182,_ZNK4xlnt4date7get_dayEv
FNDA:1,_ZNK4xlnt4dateneERKS0_
FNDA:27,_ZNK4xlnt4date9to_numberENS_8calendarE
FNDA:51,_ZNK4xlnt4date9get_monthEv
FNDA:87,_ZN4xlnt4dateC2Eiii
FNDA:51,_ZNK4xlnt4date7get_dayEv
FNDA:7,_ZNK4xlnt4date7weekdayEv
FNDA:50,_ZN4xlnt4date11from_numberEiNS_8calendarE
FNDA:5,_ZNK4xlnt4dateeqERKS0_
FNDA:51,_ZNK4xlnt4date8get_yearEv
FNDA:3,_ZN4xlnt4date5todayEv
FNF:10
FNH:10
DA:36,87
DA:37,87
DA:39,87
DA:41,50
DA:43,50
DA:45,50
DA:47,1
DA:50,50
DA:52,1
DA:53,1
DA:54,1
DA:56,1
DA:58,49
DA:60,17
DA:63,49
DA:64,49
DA:65,49
DA:66,49
DA:67,49
DA:68,49
DA:69,49
DA:70,49
DA:71,49
DA:72,49
DA:74,49
DA:77,5
DA:79,5
DA:82,1
DA:84,1
DA:87,27
DA:89,27
DA:91,1
DA:94,26
DA:96,1
DA:99,25
DA:100,25
DA:101,25
DA:103,25
DA:105,1
DA:108,25
DA:110,1
DA:113,24
DA:116,3
DA:118,3
DA:120,3
DA:122,3
DA:126,0
DA:128,3
DA:130,7
DA:132,7
DA:134,6
DA:135,6
DA:136,6
DA:137,6
DA:138,6
DA:144,6
DA:146,6
DA:148,6
DA:152,0
DA:157,1
DA:161,51
DA:163,51
DA:165,1
DA:169,50
DA:172,51
DA:174,51
DA:176,1
DA:179,50
DA:182,51
DA:184,51
DA:186,1
DA:189,50
LF:72
LH:70
end_of_record
TN:
SF:/root/project/source/utils/datetime.cpp
FN:36,_ZN12_GLOBAL__N_14fillERKNSt7__cxx1112basic_stringIcSt11char_traitsIcESaIcEEEm
FN:50,_ZN4xlnt8datetime11from_numberEdNS_8calendarE
FN:58,_ZNK4xlnt8datetimeeqERKS0_
FN:70,_ZNK4xlnt8datetimeneERKS0_
FN:75,_ZNK4xlnt8datetime9to_numberENS_8calendarE
FN:86,_ZNK4xlnt8datetime9to_stringB5cxx11Ev
FN:116,_ZN4xlnt8datetime3nowEv
FN:121,_ZN4xlnt8datetime5todayEv
FN:126,_ZN4xlnt8datetimeC2Eiiiiiii
FN:131,_ZN4xlnt8datetimeC2ERKNS_4dateERKNS_4timeE
FN:146,_ZNK4xlnt8datetime7weekdayEv
FN:158,_ZNK4xlnt8datetime8get_yearEv
FN:168,_ZNK4xlnt8datetime9get_monthEv
FN:178,_ZNK4xlnt8datetime7get_dayEv
FN:188,_ZNK4xlnt8datetime8get_hourEv
FN:198,_ZNK4xlnt8datetime10get_minuteEv
FN:208,_ZNK4xlnt8datetime10get_secondEv
FN:218,_ZNK4xlnt8datetime15get_microsecondEv
FN:228,_ZN4xlnt8datetime15from_iso_stringERKNSt7__cxx1112basic_stringIcSt11char_traitsIcESaIcEEE
FN:287,_ZNK4xlnt8datetime13to_iso_stringB5cxx11Ev
FNDA:531,_ZNK4xlnt8datetime13to_iso_stringB5cxx11Ev
FNDA:35,_ZNK4xlnt8datetime9get_monthEv
FNDA:1,_ZNK4xlnt8datetimeeqERKS0_
FNDA:48,_ZNK4xlnt8datetime10get_minuteEv
FNDA:30,_ZNK4xlnt8datetime7get_dayEv
FNDA:35,_ZNK4xlnt8datetime15get_microsecondEv
FNDA:720,_ZN4xlnt8datetimeC2Eiiiiiii
FNDA:3,_ZNK4xlnt8datetime9to_stringB5cxx11Ev
FNDA:33,_ZN4xlnt8datetime15from_iso_stringERKNSt7__cxx1112basic_stringIcSt11char_traitsIcESaIcEEE
FNDA:50,_ZN4xlnt8datetimeC2ERKNS_4dateERKNS_4timeE
FNDA:39,_ZNK4xlnt8datetime10get_secondEv
FNDA:77,_ZNK4xlnt8datetime8get_hourEv
FNDA:47,_ZN4xlnt8datetime11from_numberEdNS_8calendarE
FNDA:2654,_ZN12_GLOBAL__N_14fillERKNSt7__cxx1112basic_stringIcSt11char_traitsIcESaIcEEEm
FNDA:39,_ZNK4xlnt8datetime8get_yearEv
FNDA:3,_ZNK4xlnt8datetime7weekdayEv
FNDA:0,_ZNK4xlnt8datetimeneERKS0_
FNDA:3,_ZN4xlnt8datetime5todayEv
FNDA:8,_ZNK4xlnt8datetime9to_numberENS_8calendarE
FNDA:0,_ZN4xlnt8datetime3nowEv
FNF:20
FNH:18
DA:36,2654
DA:38,2654
DA:40,1580
DA:43,2148
DA:50,47
DA:52,47
DA:53,47
DA:55,94
DA:58,1
DA:60,1
DA:61,1
DA:62,1
DA:63,1
DA:64,1
DA:65,1
DA:66,1
DA:67,2
DA:70,0
DA:72,0
DA:75,8
DA:77,8
DA:79,1
DA:82,7
DA:83,7
DA:86,3
DA:88,3
DA:90,1
DA:94,2
DA:95,2
DA:96,2
DA:97,2
DA:98,2
DA:99,2
DA:100,2
DA:101,2
DA:102,2
DA:103,2
DA:104,2
DA:106,2
DA:108,2
DA:109,2
DA:112,2
DA:113,2
DA:116,0
DA:118,0
DA:121,3
DA:123,3
DA:126,720
DA:127,720
DA:129,720
DA:131,50
DA:132,50
DA:133,50
DA:134,50
DA:135,50
DA:136,50
DA:138,50
DA:140,50
DA:141,50
DA:142,50
DA:144,50
DA:146,3
DA:148,3
DA:150,2
DA:154,1
DA:158,39
DA:160,39
DA:162,1
DA:165,38
DA:168,35
DA:170,35
DA:172,1
DA:175,34
DA:178,30
DA:180,30
DA:182,1
DA:185,29
DA:188,77
DA:190,77
DA:192,1
DA:195,76
DA:198,48
DA:200,48
DA:202,1
DA:205,47
DA:208,39
DA:210,39
DA:212,1
DA:215,38
DA:218,35
DA:220,35
DA:222,1
DA:225,34
DA:228,33
DA:230,33
DA:232,33
DA:233,33
DA:234,33
DA:235,33
DA:236,33
DA:237,33
DA:238,33
DA:239,33
DA:240,33
DA:241,33
DA:242,33
DA:243,33
DA:244,33
DA:245,33
DA:246,33
DA:247,33
DA:248,33
DA:249,33
DA:250,33
DA:253,6
DA:254,6
DA:257,33
DA:258,33
DA:259,33
DA:261,33
DA:263,6
DA:264,6
DA:266,12
DA:268,6
DA:269,6
DA:272,12
DA:274,6
DA:275,6
DA:279,33
DA:281,1
DA:284,64
DA:287,531
DA:289,531
DA:291,1
DA:295,530
DA:296,530
DA:297,530
DA:298,530
DA:299,530
DA:300,530
DA:301,530
DA:302,530
DA:303,530
DA:304,530
DA:305,530
DA:307,530
DA:309,2
DA:310,2
DA:313,530
DA:315,530
DA:316,530
LF:151
LH:147
end_of_record
TN:
SF:/root/project/source/utils/exceptions.cpp
FN:30,_ZN4xlnt9exceptionC2ERKNSt7__cxx1112basic_stringIcSt11char_traitsIcESaIcEEE
FN:36,_ZN4xlnt9exceptionD0Ev
FN:36,_ZN4xlnt9exceptionD2Ev
FN:38,_ZN4xlnt9exception7messageERKNSt7__cxx1112basic_stringIcSt11char_traitsIcESaIcEEE
FN:43,_ZN4xlnt9exception7messageB5cxx11Ev
FN:48,_ZN4xlnt21unhandled_switch_caseC2Ev
FN:53,_ZN4xlnt21unhandled_switch_caseD0Ev
FN:53,_ZN4xlnt21unhandled_switch_caseD2Ev
FN:57,_ZN4xlnt19invalid_sheet_titleC2ERKNSt7__cxx1112basic_stringIcSt11char_traitsIcESaIcEEE
FN:62,_ZN4xlnt19invalid_sheet_titleD0Ev
FN:62,_ZN4xlnt19invalid_sheet_titleD2Ev
FN:66,_ZN4xlnt20invalid_column_indexC2Ev
FN:71,_ZN4xlnt20invalid_column_indexD0Ev
FN:71,_ZN4xlnt20invalid_column_indexD2Ev
FN:75,_ZN4xlnt17invalid_data_typeC2Ev
FN:80,_ZN4xlnt17invalid_data_typeD0Ev
FN:80,_ZN4xlnt17invalid_data_typeD2Ev
FN:84,_ZN4xlnt12invalid_fileC2ERKNSt7__cxx1112basic_stringIcSt11char_traitsIcESaIcEEE
FN:89,_ZN4xlnt12invalid_fileD0Ev
FN:89,_ZN4xlnt12invalid_fileD2Ev
FN:93,_ZN4xlnt22invalid_cell_referenceC2ENS_8column_tEj
FN:99,_ZN4xlnt22invalid_cell_referenceC2ERKNSt7__cxx1112basic_stringIcSt11char_traitsIcESaIcEEE
FN:104,_ZN4xlnt22invalid_cell_referenceD0Ev
FN:104,_ZN4xlnt22invalid_cell_referenceD2Ev
FN:108,_ZN4xlnt17illegal_characterC2Ec
FN:113,_ZN4xlnt17illegal_characterD0Ev
FN:113,_ZN4xlnt17illegal_characterD2Ev
FN:117,_ZN4xlnt17invalid_parameterC2EPKc
FN:122,_ZN4xlnt17invalid_parameterD0Ev
FN:122,_ZN4xlnt17invalid_parameterD2Ev
FN:126,_ZN4xlnt17invalid_attributeC2EPKc
FN:131,_ZN4xlnt17invalid_attributeD0Ev
FN:131,_ZN4xlnt17invalid_attributeD2Ev
FN:135,_ZN4xlnt13key_not_foundC2Ev
FN:140,_ZN4xlnt13key_not_foundD2Ev
FN:140,_ZN4xlnt13key_not_foundD0Ev
FN:144,_ZN4xlnt21no_visible_worksheetsC2Ev
FN:149,_ZN4xlnt21no_visible_worksheetsD0Ev
FN:149,_ZN4xlnt21no_visible_worksheetsD2Ev
FN:153,_ZN4xlnt11unsupportedC2ERKNSt7__cxx1112basic_stringIcSt11char_traitsIcESaIcEEE
FN:158,_ZN4xlnt11unsupportedD2Ev
FN:158,_ZN4xlnt11unsupportedD0Ev
FNDA:0,_ZN4xlnt17invalid_parameterD0Ev
FNDA:22,_ZN4xlnt13key_not_foundD2Ev
FNDA:0,_ZN4xlnt9exception7messageB5cxx11Ev
FNDA:0,_ZN4xlnt19invalid_sheet_titleD0Ev
FNDA:0,_ZN4xlnt17invalid_data_typeD0Ev
FNDA:0,_ZN4xlnt21unhandled_switch_caseD2Ev
FNDA:0,_ZN4xlnt21unhandled_switch_caseD0Ev
FNDA:10,_ZN4xlnt17invalid_parameterC2EPKc
FNDA:4,_ZN4xlnt20invalid_column_indexC2Ev
FNDA:26,_ZN4xlnt17invalid_attributeC2EPKc
FNDA:2,_ZN4xlnt17invalid_data_typeC2Ev
FNDA:154,_ZN4xlnt9exception7messageERKNSt7__cxx1112basic_stringIcSt11char_traitsIcESaIcEEE
FNDA:1,_ZN4xlnt22invalid_cell_referenceC2ENS_8column_tEj
FNDA:0,_ZN4xlnt21no_visible_worksheetsD0Ev
FNDA:0,_ZN4xlnt17illegal_characterD0Ev
FNDA:0,_ZN4xlnt21no_visible_worksheetsD2Ev
FNDA:154,_ZN4xlnt9exceptionC2ERKNSt7__cxx1112basic_stringIcSt11char_traitsIcESaIcEEE
FNDA:10,_ZN4xlnt22invalid_cell_referenceC2ERKNSt7__cxx1112basic_stringIcSt11char_traitsIcESaIcEEE
FNDA:1,_ZN4xlnt12invalid_fileC2ERKNSt7__cxx1112basic_stringIcSt11char_traitsIcESaIcEEE
FNDA:11,_ZN4xlnt19invalid_sheet_titleC2ERKNSt7__cxx1112basic_stringIcSt11char_traitsIcESaIcEEE
FNDA:265,_ZN4xlnt9exceptionD2Ev
FNDA:0,_ZN4xlnt22invalid_cell_referenceD0Ev
FNDA:0,_ZN4xlnt9exceptionD0Ev
FNDA:2,_ZN4xlnt12invalid_fileD2Ev
FNDA:0,_ZN4xlnt20invalid_column_indexD0Ev
FNDA:0,_ZN4xlnt13key_not_foundD0Ev
FNDA:58,_ZN4xlnt17illegal_characterD2Ev
FNDA:0,_ZN4xlnt12invalid_fileD0Ev
FNDA:29,_ZN4xlnt17illegal_characterC2Ec
FNDA:2,_ZN4xlnt17invalid_data_typeD2Ev
FNDA:13,_ZN4xlnt13key_not_foundC2Ev
FNDA:0,_ZN4xlnt21no_visible_worksheetsC2Ev
FNDA:0,_ZN4xlnt21unhandled_switch_caseC2Ev
FNDA:0,_ZN4xlnt11unsupportedD2Ev
FNDA:0,_ZN4xlnt11unsupportedC2ERKNSt7__cxx1112basic_stringIcSt11char_traitsIcESaIcEEE
FNDA:8,_ZN4xlnt20invalid_column_indexD2Ev
FNDA:0,_ZN4xlnt17invalid_attributeD0Ev
FNDA:0,_ZN4xlnt11unsupportedD0Ev
FNDA:14,_ZN4xlnt22invalid_cell_referenceD2Ev
FNDA:47,_ZN4xlnt17invalid_attributeD2Ev
FNDA:18,_ZN4xlnt17invalid_parameterD2Ev
FNDA:22,_ZN4xlnt19invalid_sheet_titleD2Ev
FNF:42
FNH:22
DA:30,154
DA:31,154
DA:33,154
DA:34,154
DA:36,265
DA:38,154
DA:40,154
DA:41,154
DA:43,0
DA:45,0
DA:48,0
DA:49,0
DA:51,0
DA:53,0
DA:55,0
DA:57,11
DA:58,22
DA:60,11
DA:62,22
DA:64,22
DA:66,4
DA:67,8
DA:69,4
DA:71,8
DA:73,8
DA:75,2
DA:76,4
DA:78,2
DA:80,2
DA:82,2
DA:84,1
DA:85,2
DA:87,1
DA:89,2
DA:91,2
DA:93,1
DA:95,3
DA:97,1
DA:99,10
DA:100,30
DA:102,10
DA:104,14
DA:106,14
DA:108,29
DA:109,87
DA:111,29
DA:113,58
DA:115,58
DA:117,10
DA:118,20
DA:120,10
DA:122,18
DA:124,18
DA:126,26
DA:127,52
DA:129,26
DA:131,47
DA:133,47
DA:135,13
DA:136,26
DA:138,13
DA:140,22
DA:142,22
DA:144,0
DA:145,0
DA:147,0
DA:149,0
DA:151,0
DA:153,0
DA:154,0
DA:156,0
DA:158,0
DA:160,0
LF:73
LH:56
end_of_record
TN:
SF:/root/project/source/utils/path.cpp
FN:76,_ZN12_GLOBAL__N_116system_separatorEv
FN:81,_ZN12_GLOBAL__N_17is_rootERKNSt7__cxx1112basic_stringIcSt11char_traitsIcESaIcEEE
FN:86,_ZN12_GLOBAL__N_111is_absoluteERKNSt7__cxx1112basic_stringIcSt11char_traitsIcESaIcEEE
FN:93,_ZN12_GLOBAL__N_110split_pathERKNSt7__cxx1112basic_stringIcSt11char_traitsIcESaIcEEEc
FN:130,_ZN12_GLOBAL__N_111file_existsERKNSt7__cxx1112basic_stringIcSt11char_traitsIcESaIcEEE
FN:136,_ZN12_GLOBAL__N_116directory_existsERKNSt7__cxx1112basic_stringIcSt11char_traitsIcESaIcEEE
FN:147,_ZN4xlnt4path16system_separatorEv
FN:152,_ZN4xlnt4pathC2Ev
FN:156,_ZN4xlnt4pathC2ERKNSt7__cxx1112basic_stringIcSt11char_traitsIcESaIcEEE
FN:161,_ZN4xlnt4pathC2ERKNSt7__cxx1112basic_stringIcSt11char_traitsIcESaIcEEEc
FN:178,_ZN4xlnt4pathC2ESt17basic_string_viewIDuSt11char_traitsIDuEE
FN:184,_ZN4xlnt4pathC2ESt17basic_string_viewIDuSt11char_traitsIDuEEc
FN:194,_ZNK4xlnt4path11is_relativeEv
FN:199,_ZNK4xlnt4path11is_absoluteEv
FN:204,_ZNK4xlnt4path7is_rootEv
FN:209,_ZNK4xlnt4path6parentEv
FN:232,_ZNK4xlnt4path8filenameB5cxx11Ev
FN:238,_ZNK4xlnt4path9extensionB5cxx11Ev
FN:246,_ZNK4xlnt4path15split_extensionB5cxx11Ev
FN:256,_ZNK4xlnt4path6stringB5cxx11Ev
FN:281,_ZNK4xlnt4path5splitB5cxx11Ev
FN:286,_ZNK4xlnt4path7resolveERKS0_
FN:311,_ZNK4xlnt4path6existsEv
FN:316,_ZNK4xlnt4path12is_directoryEv
FN:325,_ZNK4xlnt4path7is_fileEv
FN:336,_ZNK4xlnt4path13read_contentsB5cxx11Ev
FN:351,_ZNK4xlnt4path6appendERKNSt7__cxx1112basic_stringIcSt11char_traitsIcESaIcEEE
FN:366,_ZNK4xlnt4path6appendESt17basic_string_viewIDuSt11char_traitsIDuEE
FN:372,_ZNK4xlnt4path6appendERKS0_
FN:384,_ZNK4xlnt4path15guess_separatorEv
FN:391,_ZNK4xlnt4path11relative_toERKS0_
FN:414,_ZNK4xlnt4patheqERKS0_
FN:419,_ZNK4xlnt4pathneERKS0_
FNDA:3,_ZN12_GLOBAL__N_116directory_existsERKNSt7__cxx1112basic_stringIcSt11char_traitsIcESaIcEEE
FNDA:0,_ZN4xlnt4pathC2ESt17basic_string_viewIDuSt11char_traitsIDuEEc
FNDA:110870,_ZN4xlnt4pathC2ERKNSt7__cxx1112basic_stringIcSt11char_traitsIcESaIcEEE
FNDA:160,_ZNK4xlnt4path9extensionB5cxx11Ev
FNDA:1,_ZNK4xlnt4path6appendESt17basic_string_viewIDuSt11char_traitsIDuEE
FNDA:119890,_ZNK4xlnt4path6stringB5cxx11Ev
FNDA:2474,_ZNK4xlnt4path11relative_toERKS0_
FNDA:34201,_ZN12_GLOBAL__N_110split_pathERKNSt7__cxx1112basic_stringIcSt11char_traitsIcESaIcEEEc
FNDA:8,_ZNK4xlnt4path15split_extensionB5cxx11Ev
FNDA:2299,_ZN12_GLOBAL__N_17is_rootERKNSt7__cxx1112basic_stringIcSt11char_traitsIcESaIcEEE
FNDA:1235,_ZNK4xlnt4path7resolveERKS0_
FNDA:4593,_ZN12_GLOBAL__N_111is_absoluteERKNSt7__cxx1112basic_stringIcSt11char_traitsIcESaIcEEE
FNDA:14126,_ZNK4xlnt4path6appendERKS0_
FNDA:4593,_ZNK4xlnt4path11is_absoluteEv
FNDA:5,_ZNK4xlnt4path7is_fileEv
FNDA:0,_ZNK4xlnt4path13read_contentsB5cxx11Ev
FNDA:35402,_ZN4xlnt4pathC2Ev
FNDA:100768,_ZN12_GLOBAL__N_116system_separatorEv
FNDA:2299,_ZNK4xlnt4path7is_rootEv
FNDA:34201,_ZNK4xlnt4path5splitB5cxx11Ev
FNDA:100768,_ZNK4xlnt4path15guess_separatorEv
FNDA:53178,_ZNK4xlnt4patheqERKS0_
FNDA:7,_ZN4xlnt4pathC2ESt17basic_string_viewIDuSt11char_traitsIDuEE
FNDA:2299,_ZNK4xlnt4path6parentEv
FNDA:5,_ZNK4xlnt4path6existsEv
FNDA:62881,_ZNK4xlnt4path6appendERKNSt7__cxx1112basic_stringIcSt11char_traitsIcESaIcEEE
FNDA:0,_ZN4xlnt4pathC2ERKNSt7__cxx1112basic_stringIcSt11char_traitsIcESaIcEEEc
FNDA:100768,_ZN4xlnt4path16system_separatorEv
FNDA:5,_ZN12_GLOBAL__N_111file_existsERKNSt7__cxx1112basic_stringIcSt11char_traitsIcESaIcEEE
FNDA:0,_ZNK4xlnt4pathneERKS0_
FNDA:3,_ZNK4xlnt4path12is_directoryEv
FNDA:2474,_ZNK4xlnt4path11is_relativeEv
FNDA:1447,_ZNK4xlnt4path8filenameB5cxx11Ev
FNF:33
FNH:29
DA:76,100768
DA:78,100768
DA:81,2299
DA:83,2299
DA:86,4593
DA:88,4593
DA:93,34201
DA:95,34201
DA:96,34201
DA:97,34201
DA:99,71003
DA:101,36802
DA:102,36802
DA:104,36802
DA:105,36802
DA:106,36802
DA:109,34201
DA:111,33178
DA:114,34201
DA:115,0
DA:130,5
DA:133,5
DA:136,3
DA:139,3
DA:147,100768
DA:149,100768
DA:152,35402
DA:154,35402
DA:156,110870
DA:158,110870
DA:159,110870
DA:161,0
DA:162,0
DA:164,0
DA:165,0
DA:167,0
DA:169,0
DA:171,0
DA:175,0
DA:178,7
DA:179,7
DA:182,7
DA:184,0
DA:185,0
DA:188,0
DA:194,2474
DA:196,2474
DA:199,4593
DA:201,4593
DA:204,2299
DA:206,2299
DA:209,2299
DA:211,2299
DA:213,2156
DA:215,2156
DA:217,2156
DA:219,298
DA:222,2007
DA:224,4443
DA:226,2436
DA:229,2007
DA:230,2156
DA:232,1447
DA:234,1447
DA:235,2894
DA:236,1447
DA:238,160
DA:240,160
DA:241,160
DA:243,320
DA:244,160
DA:246,8
DA:248,8
DA:249,8
DA:251,16
DA:252,8
DA:256,119890
DA:258,119890
DA:281,34201
DA:283,34201
DA:286,1235
DA:288,1235
DA:290,336
DA:293,899
DA:295,2780
DA:297,1881
DA:299,2
DA:300,2
DA:303,1879
DA:304,899
DA:306,899
DA:307,899
DA:311,5
DA:313,5
DA:316,3
DA:321,3
DA:325,5
DA:330,5
DA:336,0
DA:341,0
DA:343,0
DA:344,0
DA:346,0
DA:347,0
DA:351,62881
DA:353,62881
DA:355,62881
DA:357,32787
DA:360,62881
DA:362,62881
DA:363,0
DA:366,1
DA:368,1
DA:372,14126
DA:374,14126
DA:376,41503
DA:378,27377
DA:379,14126
DA:381,14126
DA:382,0
DA:384,100768
DA:386,100768
DA:387,0
DA:388,0
DA:391,2474
DA:393,2474
DA:395,1406
DA:396,1406
DA:397,1406
DA:399,3371
DA:401,1965
DA:404,1406
DA:406,3915
DA:408,2509
DA:411,1406
DA:412,1406
DA:414,53178
DA:416,53178
DA:419,0
DA:421,0
LF:140
LH:116
end_of_record
TN:
SF:/root/project/source/utils/time.cpp
FN:34,_ZN4xlnt4time11from_numberEd
FN:72,_ZN4xlnt4timeC2Eiiii
FN:77,_ZNK4xlnt4timeeqERKS0_
FN:83,_ZNK4xlnt4timeneERKS0_
FN:88,_ZN4xlnt4timeC2ERKNSt7__cxx1112basic_stringIcSt11char_traitsIcESaIcEEE
FN:134,_ZNK4xlnt4time9to_numberEv
FN:147,_ZN4xlnt4time3nowEv
FNDA:26,_ZNK4xlnt4time9to_numberEv
FNDA:92,_ZN4xlnt4timeC2Eiiii
FNDA:3,_ZNK4xlnt4timeeqERKS0_
FNDA:0,_ZN4xlnt4time3nowEv
FNDA:8,_ZN4xlnt4timeC2ERKNSt7__cxx1112basic_stringIcSt11char_traitsIcESaIcEEE
FNDA:0,_ZNK4xlnt4timeneERKS0_
FNDA:50,_ZN4xlnt4time11from_numberEd
FNF:7
FNH:5
DA:34,50
DA:36,50
DA:39,50
DA:41,50
DA:42,50
DA:43,50
DA:44,50
DA:45,50
DA:46,50
DA:47,50
DA:48,50
DA:50,50
DA:52,12
DA:53,12
DA:55,12
DA:57,1
DA:58,1
DA:61,1
DA:63,1
DA:64,1
DA:69,50
DA:72,92
DA:73,92
DA:75,92
DA:77,3
DA:79,3
DA:80,6
DA:83,0
DA:85,0
DA:88,8
DA:90,8
DA:91,8
DA:92,8
DA:93,8
DA:94,8
DA:95,8
DA:96,8
DA:97,8
DA:98,8
DA:99,8
DA:100,8
DA:103,6
DA:104,6
DA:106,8
DA:107,8
DA:108,8
DA:110,8
DA:112,6
DA:113,6
DA:115,12
DA:117,6
DA:118,6
DA:121,12
DA:123,6
DA:124,6
DA:128,8
DA:130,1
DA:132,7
DA:134,26
DA:136,26
DA:137,26
DA:138,26
DA:139,26
DA:140,26
DA:141,26
DA:142,26
DA:144,26
DA:147,0
DA:149,0
DA:151,0
DA:153,0
DA:157,0
DA:159,0
LF:73
LH:65
end_of_record
TN:
SF:/root/project/source/utils/timedelta.cpp
FN:32,_ZN4xlnt9timedeltaC2Ev
FN:37,_ZN4xlnt9timedeltaC2Eiiiii
FN:42,_ZNK4xlnt9timedelta9to_numberEv
FN:56,_ZN4xlnt9timedelta11from_numberEd
FNDA:3,_ZN4xlnt9timedeltaC2Ev
FNDA:7,_ZNK4xlnt9timedelta9to_numberEv
FNDA:3,_ZN4xlnt9timedelta11from_numberEd
FNDA:9,_ZN4xlnt9timedeltaC2Eiiiii
FNF:4
FNH:4
DA:32,3
DA:33,3
DA:35,3
DA:37,9
DA:38,9
DA:40,9
DA:42,7
DA:44,7
DA:45,7
DA:46,7
DA:47,7
DA:48,7
DA:49,7
DA:50,7
DA:51,7
DA:53,7
DA:56,3
DA:58,3
DA:60,3
DA:61,3
DA:63,3
DA:64,3
DA:65,3
DA:66,3
DA:67,3
DA:68,3
DA:69,3
DA:70,3
DA:72,3
DA:74,1
DA:75,1
DA:77,1
DA:79,1
DA:80,1
DA:83,1
DA:85,1
DA:86,1
DA:88,1
DA:90,1
DA:91,1
DA:97,3
LF:41
LH:41
end_of_record
TN:
SF:/root/project/source/utils/variant.cpp
FN:30,_ZN4xlnt7variantC2Ev
FN:35,_ZN4xlnt7variantC2ERKNSt7__cxx1112basic_stringIcSt11char_traitsIcESaIcEEE
FN:41,_ZN4xlnt7variantC2EPKc
FN:46,_ZN4xlnt7variantC2Ei
FN:52,_ZN4xlnt7variantC2Eb
FN:58,_ZN4xlnt7variantC2ERKNS_8datetimeE
FN:65,_ZN4xlnt7variant25construct_vector_internalISt16initializer_listIiEEEvRKT_
FN:65,_ZN4xlnt7variant25construct_vector_internalISt6vectorIPKcSaIS4_EEEEvRKT_
FN:65,_ZN4xlnt7variant25construct_vector_internalISt6vectorIS0_SaIS0_EEEEvRKT_
FN:65,_ZN4xlnt7variant25construct_vector_internalISt16initializer_listINSt7__cxx1112basic_stringIcSt11char_traitsIcESaIcEEEEEEvRKT_
FN:65,_ZN4xlnt7variant25construct_vector_internalISt6vectorINSt7__cxx1112basic_stringIcSt11char_traitsIcESaIcEEESaIS8_EEEEvRKT_
FN:65,_ZN4xlnt7variant25construct_vector_internalISt6vectorIiSaIiEEEEvRKT_
FN:65,_ZN4xlnt7variant25construct_vector_internalISt16initializer_listIPKcEEEvRKT_
FN:74,_ZN4xlnt7variantC2ERKSt16initializer_listIiE
FN:80,_ZN4xlnt7variantC2ERKSt6vectorIiSaIiEE
FN:86,_ZN4xlnt7variantC2ERKSt16initializer_listIPKcE
FN:92,_ZN4xlnt7variantC2ERKSt6vectorIPKcSaIS3_EE
FN:98,_ZN4xlnt7variantC2ERKSt16initializer_listINSt7__cxx1112basic_stringIcSt11char_traitsIcESaIcEEEE
FN:104,_ZN4xlnt7variantC2ERKSt6vectorINSt7__cxx1112basic_stringIcSt11char_traitsIcESaIcEEESaIS7_EE
FN:110,_ZN4xlnt7variantC2ERKSt6vectorIS0_SaIS0_EE
FN:116,_ZNK4xlnt7varianteqERKS0_
FN:138,_ZNK4xlnt7variantneERKS0_
FN:143,_ZNK4xlnt7variant2isENS0_4typeE
FN:149,_ZNK4xlnt7variant3getINSt7__cxx1112basic_stringIcSt11char_traitsIcESaIcEEEEET_v
FN:155,_ZNK4xlnt7variant3getIbEET_v
FN:161,_ZNK4xlnt7variant3getIiEET_v
FN:167,_ZNK4xlnt7variant3getINS_8datetimeEEET_v
FN:173,_ZNK4xlnt7variant3getISt6vectorIS0_SaIS0_EEEET_v
FN:179,_ZNK4xlnt7variant19get_vector_internalINSt7__cxx1112basic_stringIcSt11char_traitsIcESaIcEEEEESt6vectorIT_SaIS9_EEv
FN:179,_ZNK4xlnt7variant19get_vector_internalINS_8datetimeEEESt6vectorIT_SaIS4_EEv
FN:179,_ZNK4xlnt7variant19get_vector_internalIbEESt6vectorIT_SaIS3_EEv
FN:179,_ZNK4xlnt7variant19get_vector_internalIiEESt6vectorIT_SaIS3_EEv
FN:192,_ZNK4xlnt7variant3getISt6vectorIbSaIbEEEET_v
FN:198,_ZNK4xlnt7variant3getISt6vectorIiSaIiEEEET_v
FN:204,_ZNK4xlnt7variant3getISt6vectorINSt7__cxx1112basic_stringIcSt11char_traitsIcESaIcEEESaIS8_EEEET_v
FN:210,_ZNK4xlnt7variant3getISt6vectorINS_8datetimeESaIS3_EEEET_v
FN:215,_ZNK4xlnt7variant10value_typeEv
FNDA:700,_ZN4xlnt7variant25construct_vector_internalISt6vectorIS0_SaIS0_EEEEvRKT_
FNDA:25,_ZNK4xlnt7variant3getINS_8datetimeEEET_v
FNDA:700,_ZN4xlnt7variantC2ERKSt6vectorIS0_SaIS0_EE
FNDA:0,_ZN4xlnt7variant25construct_vector_internalISt16initializer_listINSt7__cxx1112basic_stringIcSt11char_traitsIcESaIcEEEEEEvRKT_
FNDA:992,_ZNK4xlnt7variant10value_typeEv
FNDA:77,_ZNK4xlnt7variant3getIiEET_v
FNDA:0,_ZNK4xlnt7variant19get_vector_internalIbEESt6vectorIT_SaIS3_EEv
FNDA:317,_ZN4xlnt7variant25construct_vector_internalISt6vectorINSt7__cxx1112basic_stringIcSt11char_traitsIcESaIcEEESaIS8_EEEEvRKT_
FNDA:106,_ZNK4xlnt7varianteqERKS0_
FNDA:1,_ZN4xlnt7variant25construct_vector_internalISt6vectorIiSaIiEEEEvRKT_
FNDA:1,_ZNK4xlnt7variant3getISt6vectorINSt7__cxx1112basic_stringIcSt11char_traitsIcESaIcEEESaIS8_EEEET_v
FNDA:85,_ZNK4xlnt7variant3getISt6vectorIS0_SaIS0_EEEET_v
FNDA:252,_ZN4xlnt7variant25construct_vector_internalISt16initializer_listIPKcEEEvRKT_
FNDA:4059,_ZN4xlnt7variantC2ERKNSt7__cxx1112basic_stringIcSt11char_traitsIcESaIcEEE
FNDA:0,_ZNK4xlnt7variantneERKS0_
FNDA:503,_ZN4xlnt7variantC2ERKNS_8datetimeE
FNDA:0,_ZNK4xlnt7variant3getISt6vectorINS_8datetimeESaIS3_EEEET_v
FNDA:1,_ZN4xlnt7variantC2Ev
FNDA:1,_ZNK4xlnt7variant19get_vector_internalIiEESt6vectorIT_SaIS3_EEv
FNDA:558,_ZNK4xlnt7variant3getINSt7__cxx1112basic_stringIcSt11char_traitsIcESaIcEEEEET_v
FNDA:66,_ZNK4xlnt7variant3getIbEET_v
FNDA:0,_ZNK4xlnt7variant3getISt6vectorIbSaIbEEEET_v
FNDA:0,_ZN4xlnt7variantC2ERKSt16initializer_listINSt7__cxx1112basic_stringIcSt11char_traitsIcESaIcEEEE
FNDA:1,_ZNK4xlnt7variant19get_vector_internalINSt7__cxx1112basic_stringIcSt11char_traitsIcESaIcEEEEESt6vectorIT_SaIS9_EEv
FNDA:1,_ZNK4xlnt7variant3getISt6vectorIiSaIiEEEET_v
FNDA:0,_ZNK4xlnt7variant19get_vector_internalINS_8datetimeEEESt6vectorIT_SaIS4_EEv
FNDA:317,_ZN4xlnt7variantC2ERKSt6vectorINSt7__cxx1112basic_stringIcSt11char_traitsIcESaIcEEESaIS7_EE
FNDA:252,_ZN4xlnt7variantC2ERKSt16initializer_listIPKcE
FNDA:906,_ZN4xlnt7variantC2Ei
FNDA:0,_ZN4xlnt7variantC2ERKSt6vectorIPKcSaIS3_EE
FNDA:1,_ZN4xlnt7variant25construct_vector_internalISt16initializer_listIiEEEvRKT_
FNDA:1,_ZN4xlnt7variantC2ERKSt6vectorIiSaIiEE
FNDA:1006,_ZN4xlnt7variantC2Eb
FNDA:1,_ZN4xlnt7variantC2ERKSt16initializer_listIiE
FNDA:6,_ZNK4xlnt7variant2isENS0_4typeE
FNDA:0,_ZN4xlnt7variant25construct_vector_internalISt6vectorIPKcSaIS4_EEEEvRKT_
FNDA:2097,_ZN4xlnt7variantC2EPKc
FNF:37
FNH:28
DA:30,1
DA:31,1
DA:33,1
DA:35,4059
DA:36,4059
DA:37,4059
DA:39,4059
DA:41,2097
DA:42,2097
DA:44,2097
DA:46,906
DA:47,906
DA:48,906
DA:50,906
DA:52,1006
DA:53,1006
DA:54,1006
DA:56,1006
DA:58,503
DA:59,503
DA:60,503
DA:62,503
DA:65,1271
DA:67,1271
DA:68,3308
DA:70,2037
DA:72,1271
DA:74,1
DA:75,1
DA:77,1
DA:78,1
DA:80,1
DA:81,1
DA:83,1
DA:84,1
DA:86,252
DA:87,252
DA:89,252
DA:90,252
DA:92,0
DA:93,0
DA:95,0
DA:96,0
DA:98,0
DA:99,0
DA:101,0
DA:102,0
DA:104,317
DA:105,317
DA:107,317
DA:108,317
DA:110,700
DA:111,700
DA:113,700
DA:114,700
DA:116,106
DA:118,106
DA:120,0
DA:122,106
DA:124,4
DA:125,4
DA:126,12
DA:128,12
DA:129,90
DA:131,90
DA:132,0
DA:133,0
DA:135,0
DA:138,0
DA:140,0
DA:143,6
DA:145,6
DA:149,558
DA:151,558
DA:155,66
DA:157,66
DA:161,77
DA:163,77
DA:167,25
DA:169,25
DA:173,85
DA:175,85
DA:179,2
DA:182,2
DA:183,2
DA:184,10
DA:186,8
DA:188,2
DA:189,0
DA:192,0
DA:194,0
DA:198,1
DA:200,1
DA:204,1
DA:206,1
DA:210,0
DA:212,0
DA:215,992
DA:217,992
LF:99
LH:80
end_of_record
TN:
SF:/root/project/source/workbook/named_range.cpp
FN:95,_ZNK4xlnt11named_range4nameB5cxx11Ev
FN:100,_ZNK4xlnt11named_range7targetsEv
FN:105,_ZN4xlnt11named_rangeC2Ev
FN:109,_ZN4xlnt11named_rangeC2ERKS0_
FN:114,_ZN4xlnt11named_rangeC2ERKNSt7__cxx1112basic_stringIcSt11char_traitsIcESaIcEEERKSt6vectorISt4pairINS_9worksheetENS_15range_referenceEESaISD_EE
FN:119,_ZN4xlnt11named_rangeaSERKS0_
FN:127,_ZNK4xlnt11named_rangeeqERKS0_
FN:133,_ZNK4xlnt11named_rangeneERKS0_
FNDA:0,_ZNK4xlnt11named_rangeeqERKS0_
FNDA:10,_ZN4xlnt11named_rangeC2Ev
FNDA:7,_ZNK4xlnt11named_range7targetsEv
FNDA:10,_ZN4xlnt11named_rangeaSERKS0_
FNDA:0,_ZN4xlnt11named_rangeC2ERKS0_
FNDA:0,_ZNK4xlnt11named_rangeneERKS0_
FNDA:0,_ZNK4xlnt11named_range4nameB5cxx11Ev
FNDA:10,_ZN4xlnt11named_rangeC2ERKNSt7__cxx1112basic_stringIcSt11char_traitsIcESaIcEEERKSt6vectorISt4pairINS_9worksheetENS_15range_referenceEESaISD_EE
FNF:8
FNH:4
DA:95,0
DA:97,0
DA:100,7
DA:102,7
DA:105,10
DA:107,10
DA:109,0
DA:111,0
DA:112,0
DA:114,10
DA:115,10
DA:117,10
DA:119,10
DA:121,10
DA:122,10
DA:124,10
DA:127,0
DA:129,0
DA:130,0
DA:133,0
DA:135,0
LF:21
LH:11
end_of_record
TN:
SF:/root/project/source/workbook/streaming_workbook_reader.cpp
FN:40,_ZN4xlnt25streaming_workbook_readerC2Ev
FN:44,_ZN4xlnt25streaming_workbook_readerD2Ev
FN:49,_ZN4xlnt25streaming_workbook_reader5closeEv
FN:58,_ZN4xlnt25streaming_workbook_reader8has_cellEv
FN:63,_ZN4xlnt25streaming_workbook_reader9read_cellEv
FN:68,_ZN4xlnt25streaming_workbook_reader13has_worksheetERKNSt7__cxx1112basic_stringIcSt11char_traitsIcESaIcEEE
FN:74,_ZN4xlnt25streaming_workbook_reader15begin_worksheetERKNSt7__cxx1112basic_stringIcSt11char_traitsIcESaIcEEE
FN:115,_ZN4xlnt25streaming_workbook_reader13end_worksheetEv
FN:120,_ZN4xlnt25streaming_workbook_reader4openERKSt6vectorIhSaIhEE
FN:127,_ZN4xlnt25streaming_workbook_reader4openERKNSt7__cxx1112basic_stringIcSt11char_traitsIcESaIcEEE
FN:143,_ZN4xlnt25streaming_workbook_reader4openERKNS_4pathE
FN:150,_ZN4xlnt25streaming_workbook_reader4openERSi
FN:161,_ZN4xlnt25streaming_workbook_reader4openEOSt10unique_ptrISt15basic_streambufIcSt11char_traitsIcEESt14default_deleteIS5_EE
FN:168,_ZN4xlnt25streaming_workbook_reader12sheet_titlesB5cxx11Ev
FNDA:3,_ZN4xlnt25streaming_workbook_reader13has_worksheetERKNSt7__cxx1112basic_stringIcSt11char_traitsIcESaIcEEE
FNDA:3,_ZN4xlnt25streaming_workbook_reader4openERSi
FNDA:3,_ZN4xlnt25streaming_workbook_readerD2Ev
FNDA:145,_ZN4xlnt25streaming_workbook_reader9read_cellEv
FNDA:147,_ZN4xlnt25streaming_workbook_reader8has_cellEv
FNDA:1,_ZN4xlnt25streaming_workbook_reader13end_worksheetEv
FNDA:0,_ZN4xlnt25streaming_workbook_reader4openERKSt6vectorIhSaIhEE
FNDA:3,_ZN4xlnt25streaming_workbook_reader5closeEv
FNDA:3,_ZN4xlnt25streaming_workbook_reader15begin_worksheetERKNSt7__cxx1112basic_stringIcSt11char_traitsIcESaIcEEE
FNDA:0,_ZN4xlnt25streaming_workbook_reader4openERKNSt7__cxx1112basic_stringIcSt11char_traitsIcESaIcEEE
FNDA:4,_ZN4xlnt25streaming_workbook_reader12sheet_titlesB5cxx11Ev
FNDA:3,_ZN4xlnt25streaming_workbook_reader4openERKNS_4pathE
FNDA:3,_ZN4xlnt25streaming_workbook_readerC2Ev
FNDA:0,_ZN4xlnt25streaming_workbook_reader4openEOSt10unique_ptrISt15basic_streambufIcSt11char_traitsIcEESt14default_deleteIS5_EE
FNF:14
FNH:11
DA:40,3
DA:42,3
DA:44,3
DA:46,3
DA:47,3
DA:49,3
DA:51,3
DA:53,3
DA:54,3
DA:56,3
DA:58,147
DA:60,147
DA:63,145
DA:65,145
DA:68,3
DA:70,3
DA:71,6
DA:72,3
DA:74,3
DA:76,3
DA:78,0
DA:81,3
DA:82,3
DA:83,3
DA:84,3
DA:85,3
DA:87,12
DA:89,3
DA:90,3
DA:91,3
DA:92,3
DA:93,3
DA:94,3
DA:95,3
DA:97,3
DA:99,6
DA:101,3
DA:103,3
DA:107,3
DA:109,0
DA:112,3
DA:113,6
DA:115,1
DA:117,1
DA:120,0
DA:122,0
DA:123,0
DA:124,0
DA:125,0
DA:127,0
DA:129,0
DA:130,0
DA:131,0
DA:132,0
DA:143,3
DA:145,3
DA:146,3
DA:147,3
DA:148,3
DA:150,3
DA:152,3
DA:153,3
DA:154,3
DA:156,3
DA:157,3
DA:158,3
DA:159,3
DA:161,0
DA:163,0
DA:164,0
DA:165,0
DA:166,0
DA:168,4
DA:170,4
LF:74
LH:57
end_of_record
TN:
SF:/root/project/source/workbook/streaming_workbook_writer.cpp
FN:41,_ZN4xlnt25streaming_workbook_writerC2Ev
FN:45,_ZN4xlnt25streaming_workbook_writerD2Ev
FN:50,_ZN4xlnt25streaming_workbook_writer5closeEv
FN:59,_ZN4xlnt25streaming_workbook_writer8add_cellERKNS_14cell_referenceE
FN:64,_ZN4xlnt25streaming_workbook_writer13add_worksheetERKNSt7__cxx1112basic_stringIcSt11char_traitsIcESaIcEEE
FN:69,_ZN4xlnt25streaming_workbook_writer4openERSt6vectorIhSaIhEE
FN:76,_ZN4xlnt25streaming_workbook_writer4openERKNSt7__cxx1112basic_stringIcSt11char_traitsIcESaIcEEE
FN:92,_ZN4xlnt25streaming_workbook_writer4openERKNS_4pathE
FN:99,_ZN4xlnt25streaming_workbook_writer4openERSo
FNDA:1,_ZN4xlnt25streaming_workbook_writer4openERSo
FNDA:0,_ZN4xlnt25streaming_workbook_writer4openERKNS_4pathE
FNDA:1,_ZN4xlnt25streaming_workbook_writer5closeEv
FNDA:1,_ZN4xlnt25streaming_workbook_writer4openERKNSt7__cxx1112basic_stringIcSt11char_traitsIcESaIcEEE
FNDA:2,_ZN4xlnt25streaming_workbook_writer8add_cellERKNS_14cell_referenceE
FNDA:0,_ZN4xlnt25streaming_workbook_writer4openERSt6vectorIhSaIhEE
FNDA:1,_ZN4xlnt25streaming_workbook_writer13add_worksheetERKNSt7__cxx1112basic_stringIcSt11char_traitsIcESaIcEEE
FNDA:1,_ZN4xlnt25streaming_workbook_writerC2Ev
FNDA:1,_ZN4xlnt25streaming_workbook_writerD2Ev
FNF:9
FNH:7
DA:41,1
DA:43,1
DA:45,1
DA:47,1
DA:48,1
DA:50,1
DA:52,1
DA:54,1
DA:55,1
DA:57,1
DA:59,2
DA:61,2
DA:64,1
DA:66,1
DA:69,0
DA:71,0
DA:72,0
DA:73,0
DA:74,0
DA:76,1
DA:78,1
DA:79,1
DA:80,1
DA:81,1
DA:92,0
DA:94,0
DA:95,0
DA:96,0
DA:97,0
DA:99,1
DA:101,1
DA:102,1
DA:103,1
DA:104,2
DA:105,1
DA:106,1
DA:107,1
LF:37
LH:27
end_of_record
TN:
SF:/root/project/source/workbook/workbook.cpp
FN:69,_ZN12_GLOBAL__N_14keysINSt7__cxx1112basic_stringIcSt11char_traitsIcESaIcEEEEESt6vectorIT_SaIS8_EERKS7_ISt4pairIS8_N4xlnt7variantEESaISE_EE
FN:69,_ZN12_GLOBAL__N_14keysIN4xlnt13core_propertyEEESt6vectorIT_SaIS4_EERKS3_ISt4pairIS4_NS1_7variantEESaIS9_EE
FN:69,_ZN12_GLOBAL__N_14keysIN4xlnt17extended_propertyEEESt6vectorIT_SaIS4_EERKS3_ISt4pairIS4_NS1_7variantEESaIS9_EE
FN:83,_ZN12_GLOBAL__N_18containsIN4xlnt17extended_propertyEEEbRKSt6vectorISt4pairIT_NS1_7variantEESaIS7_EES5_
FN:83,_ZN12_GLOBAL__N_18containsINSt7__cxx1112basic_stringIcSt11char_traitsIcESaIcEEEEEbRKSt6vectorISt4pairIT_N4xlnt7variantEESaISC_EES9_
FN:83,_ZN12_GLOBAL__N_18containsIN4xlnt13core_propertyEEEbRKSt6vectorISt4pairIT_NS1_7variantEESaIS7_EES5_
FN:96,_ZN12_GLOBAL__N_112default_pathEN4xlnt17relationship_typeEm
FN:178,_ZN12_GLOBAL__N_112content_typeEN4xlnt17relationship_typeE
FN:263,_ZNK4xlnt8workbook17has_core_propertyENS_13core_propertyE
FN:268,_ZNK4xlnt8workbook15core_propertiesEv
FN:273,_ZNK4xlnt8workbook13core_propertyENS_13core_propertyE
FN:286,_ZN4xlnt8workbook13core_propertyENS_13core_propertyERKNS_7variantE
FN:302,_ZNK4xlnt8workbook21has_extended_propertyENS_17extended_propertyE
FN:307,_ZNK4xlnt8workbook19extended_propertiesEv
FN:312,_ZN4xlnt8workbook17extended_propertyENS_17extended_propertyERKNS_7variantE
FN:328,_ZNK4xlnt8workbook17extended_propertyENS_17extended_propertyE
FN:341,_ZNK4xlnt8workbook19has_custom_propertyERKNSt7__cxx1112basic_stringIcSt11char_traitsIcESaIcEEE
FN:346,_ZNK4xlnt8workbook17custom_propertiesB5cxx11Ev
FN:351,_ZN4xlnt8workbook15custom_propertyERKNSt7__cxx1112basic_stringIcSt11char_traitsIcESaIcEEERKNS_7variantE
FN:367,_ZNK4xlnt8workbook15custom_propertyERKNSt7__cxx1112basic_stringIcSt11char_traitsIcESaIcEEE
FN:380,_ZN4xlnt8workbook8abs_pathERKNSt7__cxx1112basic_stringIcSt11char_traitsIcESaIcEEE
FN:385,_ZN4xlnt8workbook13arch_id_flagsEm
FN:390,_ZN4xlnt8workbook5emptyEv
FN:503,_ZN4xlnt8workbookC2Ev
FN:509,_ZN4xlnt8workbookC2ERKNS_4pathE
FN:516,_ZN4xlnt8workbook9constructINSt7__cxx1112basic_stringIcSt11char_traitsIcESaIcEEEEEvRKNS_4pathERKT_
FN:516,_ZN4xlnt8workbook9constructISt17basic_string_viewIDuSt11char_traitsIDuEEEEvRKNS_4pathERKT_
FN:522,_ZN4xlnt8workbookC2ERKNS_4pathERKNSt7__cxx1112basic_stringIcSt11char_traitsIcESaIcEEE
FN:528,_ZN4xlnt8workbookC2ERKNS_4pathESt17basic_string_viewIDuSt11char_traitsIDuEE
FN:534,_ZN4xlnt8workbookC2ERSi
FN:541,_ZN4xlnt8workbook9constructISt17basic_string_viewIDuSt11char_traitsIDuEEEEvRSiRKT_
FN:541,_ZN4xlnt8workbook9constructINSt7__cxx1112basic_stringIcSt11char_traitsIcESaIcEEEEEvRSiRKT_
FN:547,_ZN4xlnt8workbookC2ERSiRKNSt7__cxx1112basic_stringIcSt11char_traitsIcESaIcEEE
FN:553,_ZN4xlnt8workbookC2ERSiSt17basic_string_viewIDuSt11char_traitsIDuEE
FN:559,_ZN4xlnt8workbookC2ESt10shared_ptrINS_6detail13workbook_implEE
FN:564,_ZN4xlnt8workbookC2ESt8weak_ptrINS_6detail13workbook_implEE
FN:569,_ZN4xlnt8workbook8set_implESt10shared_ptrINS_6detail13workbook_implEE
FN:579,_ZN4xlnt8workbook21register_package_partENS_17relationship_typeE
FN:590,_ZN4xlnt8workbook22register_workbook_partENS_17relationship_typeE
FN:604,_ZN4xlnt8workbook23register_worksheet_partENS_9worksheetENS_17relationship_typeE
FN:679,_ZNK4xlnt8workbook14sheet_by_titleERKNSt7__cxx1112basic_stringIcSt11char_traitsIcESaIcEEE
FN:692,_ZN4xlnt8workbook14sheet_by_titleERKNSt7__cxx1112basic_stringIcSt11char_traitsIcESaIcEEE
FN:705,_ZN4xlnt8workbook14sheet_by_indexEm
FN:722,_ZNK4xlnt8workbook14sheet_by_indexEm
FN:738,_ZN4xlnt8workbook11sheet_by_idEm
FN:751,_ZNK4xlnt8workbook11sheet_by_idEm
FN:764,_ZNK4xlnt8workbook21sheet_hidden_by_indexEm
FN:774,_ZN4xlnt8workbook12active_sheetEv
FN:778,_ZN4xlnt8workbook12active_sheetEm
FN:784,_ZNK4xlnt8workbook15has_named_rangeERKNSt7__cxx1112basic_stringIcSt11char_traitsIcESaIcEEE
FN:796,_ZN4xlnt8workbook12create_sheetEv
FN:816,_ZZN4xlnt8workbook12create_sheetEvENKUlRKNS_4pathEE_clES3_
FN:817,_ZZZN4xlnt8workbook12create_sheetEvENKUlRKNS_4pathEE_clES3_ENKUlRKNS_12relationshipEE_clES7_
FN:843,_ZN4xlnt8workbook10copy_sheetENS_9worksheetE
FN:856,_ZN4xlnt8workbook10copy_sheetENS_9worksheetEm
FN:875,_ZNK4xlnt8workbook5indexENS_9worksheetE
FN:887,_ZN4xlnt8workbook18create_named_rangeERKNSt7__cxx1112basic_stringIcSt11char_traitsIcESaIcEEENS_9worksheetES8_
FN:892,_ZN4xlnt8workbook18create_named_rangeERKNSt7__cxx1112basic_stringIcSt11char_traitsIcESaIcEEENS_9worksheetERKNS_15range_referenceE
FN:897,_ZN4xlnt8workbook18remove_named_rangeERKNSt7__cxx1112basic_stringIcSt11char_traitsIcESaIcEEE
FN:911,_ZN4xlnt8workbook11named_rangeERKNSt7__cxx1112basic_stringIcSt11char_traitsIcESaIcEEE
FN:924,_ZN4xlnt8workbook4loadERSi
FN:947,_ZN4xlnt8workbook4loadERKSt6vectorIhSaIhEE
FN:960,_ZN4xlnt8workbook13load_internalISt17basic_string_viewIDuSt11char_traitsIDuEEEEvRKT_
FN:960,_ZN4xlnt8workbook13load_internalINSt7__cxx1112basic_stringIcSt11char_traitsIcESaIcEEEEEvRKT_
FN:966,_ZN4xlnt8workbook13load_internalISt17basic_string_viewIDuSt11char_traitsIDuEEEEvRKT_S8_
FN:966,_ZN4xlnt8workbook13load_internalINSt7__cxx1112basic_stringIcSt11char_traitsIcESaIcEEEEEvRKT_SA_
FN:971,_ZN4xlnt8workbook4loadERKNSt7__cxx1112basic_stringIcSt11char_traitsIcESaIcEEE
FN:976,_ZN4xlnt8workbook4loadERKNS_4pathE
FN:989,_ZN4xlnt8workbook4loadERKNSt7__cxx1112basic_stringIcSt11char_traitsIcESaIcEEES8_
FN:995,_ZN4xlnt8workbook13load_internalINSt7__cxx1112basic_stringIcSt11char_traitsIcESaIcEEEEEvRKNS_4pathERKT_
FN:995,_ZN4xlnt8workbook13load_internalISt17basic_string_viewIDuSt11char_traitsIDuEEEEvRKNS_4pathERKT_
FN:1008,_ZN4xlnt8workbook4loadERKNS_4pathERKNSt7__cxx1112basic_stringIcSt11char_traitsIcESaIcEEE
FN:1014,_ZN4xlnt8workbook4loadERKNS_4pathESt17basic_string_viewIDuSt11char_traitsIDuEE
FN:1021,_ZN4xlnt8workbook13load_internalINSt7__cxx1112basic_stringIcSt11char_traitsIcESaIcEEEEEvRKSt6vectorIhSaIhEERKT_
FN:1021,_ZN4xlnt8workbook13load_internalISt17basic_string_viewIDuSt11char_traitsIDuEEEEvRKSt6vectorIhSaIhEERKT_
FN:1033,_ZN4xlnt8workbook4loadERKSt6vectorIhSaIhEERKNSt7__cxx1112basic_stringIcSt11char_traitsIcESaIcEEE
FN:1039,_ZN4xlnt8workbook4loadERKSt6vectorIhSaIhEESt17basic_string_viewIDuSt11char_traitsIDuEE
FN:1046,_ZN4xlnt8workbook13load_internalISt17basic_string_viewIDuSt11char_traitsIDuEEEEvRSiRKT_
FN:1046,_ZN4xlnt8workbook13load_internalINSt7__cxx1112basic_stringIcSt11char_traitsIcESaIcEEEEEvRSiRKT_
FN:1053,_ZN4xlnt8workbook4loadERSiRKNSt7__cxx1112basic_stringIcSt11char_traitsIcESaIcEEE
FN:1059,_ZN4xlnt8workbook4loadERSiSt17basic_string_viewIDuSt11char_traitsIDuEE
FN:1065,_ZNK4xlnt8workbook4saveERSt6vectorIhSaIhEE
FN:1073,_ZNK4xlnt8workbook13save_internalISt17basic_string_viewIDuSt11char_traitsIDuEEEEvRSt6vectorIhSaIhEERKT_
FN:1073,_ZNK4xlnt8workbook13save_internalINSt7__cxx1112basic_stringIcSt11char_traitsIcESaIcEEEEEvRSt6vectorIhSaIhEERKT_
FN:1080,_ZNK4xlnt8workbook4saveERSt6vectorIhSaIhEERKNSt7__cxx1112basic_stringIcSt11char_traitsIcESaIcEEE
FN:1086,_ZNK4xlnt8workbook4saveERSt6vectorIhSaIhEESt17basic_string_viewIDuSt11char_traitsIDuEE
FN:1093,_ZNK4xlnt8workbook13save_internalISt17basic_string_viewIDuSt11char_traitsIDuEEEEvRKT_
FN:1093,_ZNK4xlnt8workbook13save_internalINSt7__cxx1112basic_stringIcSt11char_traitsIcESaIcEEEEEvRKT_
FN:1099,_ZNK4xlnt8workbook13save_internalINSt7__cxx1112basic_stringIcSt11char_traitsIcESaIcEEEEEvRKT_SA_
FN:1099,_ZNK4xlnt8workbook13save_internalISt17basic_string_viewIDuSt11char_traitsIDuEEEEvRKT_S8_
FN:1104,_ZNK4xlnt8workbook4saveERKNSt7__cxx1112basic_stringIcSt11char_traitsIcESaIcEEE
FN:1109,_ZNK4xlnt8workbook4saveERKNSt7__cxx1112basic_stringIcSt11char_traitsIcESaIcEEES8_
FN:1114,_ZNK4xlnt8workbook4saveERKNS_4pathE
FN:1122,_ZNK4xlnt8workbook13save_internalINSt7__cxx1112basic_stringIcSt11char_traitsIcESaIcEEEEEvRKNS_4pathERKT_
FN:1122,_ZNK4xlnt8workbook13save_internalISt17basic_string_viewIDuSt11char_traitsIDuEEEEvRKNS_4pathERKT_
FN:1129,_ZNK4xlnt8workbook4saveERKNS_4pathERKNSt7__cxx1112basic_stringIcSt11char_traitsIcESaIcEEE
FN:1135,_ZNK4xlnt8workbook4saveERKNS_4pathESt17basic_string_viewIDuSt11char_traitsIDuEE
FN:1141,_ZNK4xlnt8workbook4saveERSo
FN:1148,_ZNK4xlnt8workbook13save_internalINSt7__cxx1112basic_stringIcSt11char_traitsIcESaIcEEEEEvRSoRKT_
FN:1148,_ZNK4xlnt8workbook13save_internalISt17basic_string_viewIDuSt11char_traitsIDuEEEEvRSoRKT_
FN:1154,_ZNK4xlnt8workbook4saveERSoRKNSt7__cxx1112basic_stringIcSt11char_traitsIcESaIcEEE
FN:1160,_ZNK4xlnt8workbook4saveERSoSt17basic_string_viewIDuSt11char_traitsIDuEE
FN:1197,_ZNK4xlnt8workbook4saveESt17basic_string_viewIDuSt11char_traitsIDuEE
FN:1202,_ZNK4xlnt8workbook4saveESt17basic_string_viewIDuSt11char_traitsIDuEES4_
FN:1207,_ZN4xlnt8workbook4loadESt17basic_string_viewIDuSt11char_traitsIDuEE
FN:1212,_ZN4xlnt8workbook4loadESt17basic_string_viewIDuSt11char_traitsIDuEES4_
FN:1218,_ZN4xlnt8workbook12remove_sheetENS_9worksheetE
FN:1221,_ZZN4xlnt8workbook12remove_sheetENS_9worksheetEENKUlRNS_6detail14worksheet_implEE_clES4_
FN:1248,_ZN4xlnt8workbook12create_sheetEm
FN:1267,_ZN4xlnt8workbook21create_sheet_with_relERKNSt7__cxx1112basic_stringIcSt11char_traitsIcESaIcEEERKNS_12relationshipE
FN:1285,_ZN4xlnt8workbook5beginEv
FN:1290,_ZN4xlnt8workbook3endEv
FN:1295,_ZNK4xlnt8workbook5beginEv
FN:1300,_ZNK4xlnt8workbook3endEv
FN:1305,_ZNK4xlnt8workbook6cbeginEv
FN:1310,_ZNK4xlnt8workbook4cendEv
FN:1315,_ZNK4xlnt8workbook12sheet_titlesB5cxx11Ev
FN:1327,_ZNK4xlnt8workbook11sheet_countEv
FN:1332,_ZN4xlnt8workbookixERKNSt7__cxx1112basic_stringIcSt11char_traitsIcESaIcEEE
FN:1337,_ZN4xlnt8workbookixEm
FN:1342,_ZN4xlnt8workbook5clearEv
FN:1348,_ZNK4xlnt8workbook7compareERKS0_b
FN:1360,_ZNK4xlnt8workbookeqERKS0_
FN:1365,_ZNK4xlnt8workbookneERKS0_
FN:1370,_ZN4xlnt8workbook4swapERS0_
FN:1375,_ZNK4xlnt8workbook5cloneENS0_12clone_methodE
FN:1402,_ZNK4xlnt8workbook9has_themeEv
FN:1407,_ZNK4xlnt8workbook5themeEv
FN:1412,_ZN4xlnt8workbook5themeERKNS_5themeE
FN:1418,_ZNK4xlnt8workbook12named_rangesEv
FN:1433,_ZN4xlnt8workbook13create_formatEb
FN:1439,_ZNK4xlnt8workbook9has_styleERKNSt7__cxx1112basic_stringIcSt11char_traitsIcESaIcEEE
FN:1444,_ZN4xlnt8workbook12clear_stylesEv
FN:1446,_ZZN4xlnt8workbook12clear_stylesEvENKUlNS_4cellEE_clES1_
FN:1449,_ZN4xlnt8workbook20default_slicer_styleERKNSt7__cxx1112basic_stringIcSt11char_traitsIcESaIcEEE
FN:1454,_ZNK4xlnt8workbook20default_slicer_styleB5cxx11Ev
FN:1459,_ZN4xlnt8workbook18enable_known_fontsEv
FN:1464,_ZN4xlnt8workbook19disable_known_fontsEv
FN:1469,_ZNK4xlnt8workbook19known_fonts_enabledEv
FN:1474,_ZN4xlnt8workbook13clear_formatsEv
FN:1476,_ZZN4xlnt8workbook13clear_formatsEvENKUlNS_4cellEE_clES1_
FN:1479,_ZN4xlnt8workbook14apply_to_cellsESt8functionIFvNS_4cellEEE
FN:1496,_ZN4xlnt8workbook6formatEm
FN:1501,_ZNK4xlnt8workbook6formatEm
FN:1506,_ZN4xlnt8workbook8manifestEv
FN:1511,_ZNK4xlnt8workbook8manifestEv
FN:1516,_ZNK4xlnt8workbook14shared_stringsEm
FN:1527,_ZN4xlnt8workbook14shared_stringsEv
FN:1532,_ZNK4xlnt8workbook14shared_stringsEv
FN:1537,_ZN4xlnt8workbook17add_shared_stringERKNS_9rich_textEb
FN:1558,_ZNK4xlnt8workbook8containsERKNSt7__cxx1112basic_stringIcSt11char_traitsIcESaIcEEE
FN:1568,_ZN4xlnt8workbook9thumbnailERKSt6vectorIhSaIhEERKNSt7__cxx1112basic_stringIcSt11char_traitsIcESaIcEEESD_
FN:1582,_ZNK4xlnt8workbook9thumbnailEv
FN:1588,_ZNK4xlnt8workbook8binariesB5cxx11Ev
FN:1593,_ZN4xlnt8workbook12create_styleERKNSt7__cxx1112basic_stringIcSt11char_traitsIcESaIcEEE
FN:1598,_ZN4xlnt8workbook20create_builtin_styleEm
FN:1603,_ZN4xlnt8workbook5styleERKNSt7__cxx1112basic_stringIcSt11char_traitsIcESaIcEEE
FN:1608,_ZNK4xlnt8workbook5styleERKNSt7__cxx1112basic_stringIcSt11char_traitsIcESaIcEEE
FN:1613,_ZNK4xlnt8workbook9base_dateEv
FN:1618,_ZN4xlnt8workbook9base_dateENS_8calendarE
FN:1623,_ZNK4xlnt8workbook9has_titleEv
FN:1628,_ZNK4xlnt8workbook5titleB5cxx11Ev
FN:1633,_ZN4xlnt8workbook5titleERKNSt7__cxx1112basic_stringIcSt11char_traitsIcESaIcEEE
FN:1638,_ZN4xlnt8workbook4implEv
FN:1643,_ZNK4xlnt8workbook4implEv
FN:1648,_ZNK4xlnt8workbook8has_viewEv
FN:1653,_ZNK4xlnt8workbook4viewEv
FN:1663,_ZN4xlnt8workbook4viewERKNS_13workbook_viewE
FN:1668,_ZNK4xlnt8workbook13has_code_nameEv
FN:1673,_ZNK4xlnt8workbook9code_nameB5cxx11Ev
FN:1683,_ZN4xlnt8workbook9code_nameERKNSt7__cxx1112basic_stringIcSt11char_traitsIcESaIcEEE
FN:1688,_ZNK4xlnt8workbook16has_file_versionEv
FN:1693,_ZNK4xlnt8workbook8app_nameB5cxx11Ev
FN:1698,_ZNK4xlnt8workbook11last_editedEv
FN:1703,_ZNK4xlnt8workbook13lowest_editedEv
FN:1708,_ZNK4xlnt8workbook9rup_buildEv
FN:1713,_ZNK4xlnt8workbook26has_calculation_propertiesEv
FN:1718,_ZNK4xlnt8workbook22calculation_propertiesEv
FN:1723,_ZN4xlnt8workbook22calculation_propertiesERKNS_22calculation_propertiesE
FN:1728,_ZN4xlnt8workbook24garbage_collect_formulaeEv
FN:1759,_ZN4xlnt8workbook23update_sheet_propertiesEv
FN:1775,_ZN4xlnt12_GLOBAL__N_113needs_reorderERKSt13unordered_mapINSt7__cxx1112basic_stringIcSt11char_traitsIcESaIcEEES7_St4hashIS7_ESt8equal_toIS7_ESaISt4pairIKS7_S7_EEERKSt6vectorIS7_SaIS7_EERSL_
FN:1796,_ZN4xlnt12_GLOBAL__N_113rel_id_sorterclERKNS_12relationshipES4_
FN:1808,_ZN4xlnt8workbook21reorder_relationshipsEv
FN:1829,_ZZN4xlnt8workbook21reorder_relationshipsEvENKUlvE_clEv
FN:1834,_ZZN4xlnt8workbook21reorder_relationshipsEvENKUlRKNS_12relationshipEE_clES3_
FNDA:171,_ZZN4xlnt8workbook21reorder_relationshipsEvENKUlvE_clEv
FNDA:76,_ZN4xlnt8workbook4loadERSi
FNDA:10,_ZN4xlnt8workbook13load_internalINSt7__cxx1112basic_stringIcSt11char_traitsIcESaIcEEEEEvRKT_
FNDA:0,_ZNK4xlnt8workbook19known_fonts_enabledEv
FNDA:28,_ZNK4xlnt8workbook13save_internalINSt7__cxx1112basic_stringIcSt11char_traitsIcESaIcEEEEEvRKT_
FNDA:10,_ZN4xlnt8workbook4loadERSiSt17basic_string_viewIDuSt11char_traitsIDuEE
FNDA:1,_ZN4xlnt8workbook13load_internalISt17basic_string_viewIDuSt11char_traitsIDuEEEEvRKT_
FNDA:7,_ZNK4xlnt8workbookeqERKS0_
FNDA:0,_ZNK4xlnt8workbook13save_internalISt17basic_string_viewIDuSt11char_traitsIDuEEEEvRKT_S8_
FNDA:2,_ZN4xlnt8workbook18remove_named_rangeERKNSt7__cxx1112basic_stringIcSt11char_traitsIcESaIcEEE
FNDA:28,_ZNK4xlnt8workbook4saveERKNSt7__cxx1112basic_stringIcSt11char_traitsIcESaIcEEE
FNDA:0,_ZNK4xlnt8workbook4saveESt17basic_string_viewIDuSt11char_traitsIDuEES4_
FNDA:0,_ZNK4xlnt8workbook9has_titleEv
FNDA:2,_ZN4xlnt8workbookC2ERKNS_4pathESt17basic_string_viewIDuSt11char_traitsIDuEE
FNDA:42,_ZNK4xlnt8workbook4saveERSo
FNDA:323,_ZNK4xlnt8workbook11sheet_countEv
FNDA:0,_ZN4xlnt8workbook21create_sheet_with_relERKNSt7__cxx1112basic_stringIcSt11char_traitsIcESaIcEEERKNS_12relationshipE
FNDA:0,_ZN4xlnt8workbook11sheet_by_idEm
FNDA:1147,_ZNK4xlnt8workbook3endEv
FNDA:1,_ZNK4xlnt8workbook13save_internalISt17basic_string_viewIDuSt11char_traitsIDuEEEEvRSoRKT_
FNDA:1,_ZNK4xlnt8workbook13save_internalISt17basic_string_viewIDuSt11char_traitsIDuEEEEvRKNS_4pathERKT_
FNDA:0,_ZNK4xlnt8workbook9thumbnailEv
FNDA:44,_ZNK4xlnt8workbook15core_propertiesEv
FNDA:157,_ZN4xlnt8workbook12active_sheetEv
FNDA:0,_ZNK4xlnt8workbook20default_slicer_styleB5cxx11Ev
FNDA:0,_ZN4xlnt8workbook9constructINSt7__cxx1112basic_stringIcSt11char_traitsIcESaIcEEEEEvRSiRKT_
FNDA:11915,_ZN4xlnt8workbook22register_workbook_partENS_17relationship_typeE
FNDA:290,_ZZN4xlnt8workbook12create_sheetEvENKUlRKNS_4pathEE_clES3_
FNDA:129,_ZN4xlnt8workbookixEm
FNDA:2,_ZN4xlnt8workbookixERKNSt7__cxx1112basic_stringIcSt11char_traitsIcESaIcEEE
FNDA:289,_ZN4xlnt8workbook21reorder_relationshipsEv
FNDA:3,_ZNK4xlnt8workbook13save_internalINSt7__cxx1112basic_stringIcSt11char_traitsIcESaIcEEEEEvRKNS_4pathERKT_
FNDA:325,_ZN4xlnt8workbook5beginEv
FNDA:3,_ZNK4xlnt8workbook4saveERSoRKNSt7__cxx1112basic_stringIcSt11char_traitsIcESaIcEEE
FNDA:616,_ZNK4xlnt8workbook12sheet_titlesB5cxx11Ev
FNDA:1108,_ZNK4xlnt8workbook14sheet_by_indexEm
FNDA:0,_ZN4xlnt8workbook8abs_pathERKNSt7__cxx1112basic_stringIcSt11char_traitsIcESaIcEEE
FNDA:3,_ZNK4xlnt8workbook17custom_propertiesB5cxx11Ev
FNDA:18,_ZN4xlnt8workbook24garbage_collect_formulaeEv
FNDA:0,_ZN4xlnt8workbook14shared_stringsEv
FNDA:11020,_ZN4xlnt8workbook17add_shared_stringERKNS_9rich_textEb
FNDA:0,_ZNK4xlnt8workbook13save_internalINSt7__cxx1112basic_stringIcSt11char_traitsIcESaIcEEEEEvRSt6vectorIhSaIhEERKT_
FNDA:0,_ZNK4xlnt8workbook4saveERSt6vectorIhSaIhEERKNSt7__cxx1112basic_stringIcSt11char_traitsIcESaIcEEE
FNDA:1,_ZN4xlnt8workbook12clear_stylesEv
FNDA:88,_ZNK4xlnt8workbook22calculation_propertiesEv
FNDA:2,_ZN4xlnt8workbook4loadESt17basic_string_viewIDuSt11char_traitsIDuEES4_
FNDA:95,_ZN4xlnt8workbook9base_dateENS_8calendarE
FNDA:11624,_ZN4xlnt8workbook8set_implESt10shared_ptrINS_6detail13workbook_implEE
FNDA:1,_ZN4xlnt8workbook12create_sheetEm
FNDA:1,_ZN4xlnt8workbookC2ERSiSt17basic_string_viewIDuSt11char_traitsIDuEE
FNDA:1156,_ZNK4xlnt8workbook6cbeginEv
FNDA:678,_ZNK4xlnt8workbook21has_extended_propertyENS_17extended_propertyE
FNDA:1,_ZN4xlnt8workbook4loadESt17basic_string_viewIDuSt11char_traitsIDuEE
FNDA:1,_ZN4xlnt8workbook9constructISt17basic_string_viewIDuSt11char_traitsIDuEEEEvRSiRKT_
FNDA:1,_ZN4xlnt8workbook13clear_formatsEv
FNDA:7,_ZN4xlnt8workbook18create_named_rangeERKNSt7__cxx1112basic_stringIcSt11char_traitsIcESaIcEEENS_9worksheetES8_
FNDA:1,_ZNK4xlnt8workbook21sheet_hidden_by_indexEm
FNDA:289,_ZN4xlnt8workbook12create_sheetEv
FNDA:1,_ZNK4xlnt8workbook13save_internalISt17basic_string_viewIDuSt11char_traitsIDuEEEEvRKT_
FNDA:3,_ZNK4xlnt8workbook4saveERKNS_4pathERKNSt7__cxx1112basic_stringIcSt11char_traitsIcESaIcEEE
FNDA:47583,_ZN4xlnt8workbook8manifestEv
FNDA:96,_ZNK4xlnt8workbook4viewEv
FNDA:6,_ZN4xlnt8workbook4loadERKNS_4pathESt17basic_string_viewIDuSt11char_traitsIDuEE
FNDA:23,_ZN4xlnt8workbook4loadERKSt6vectorIhSaIhEE
FNDA:299,_ZN4xlnt8workbook14sheet_by_indexEm
FNDA:1,_ZN4xlnt8workbook10copy_sheetENS_9worksheetEm
FNDA:100,_ZNK4xlnt8workbook8has_viewEv
FNDA:445,_ZNK4xlnt8workbook17extended_propertyENS_17extended_propertyE
FNDA:250,_ZN4xlnt8workbook9thumbnailERKSt6vectorIhSaIhEERKNSt7__cxx1112basic_stringIcSt11char_traitsIcESaIcEEESD_
FNDA:289,_ZN4xlnt12_GLOBAL__N_113needs_reorderERKSt13unordered_mapINSt7__cxx1112basic_stringIcSt11char_traitsIcESaIcEEES7_St4hashIS7_ESt8equal_toIS7_ESaISt4pairIKS7_S7_EEERKSt6vectorIS7_SaIS7_EERSL_
FNDA:2,_ZN4xlnt8workbook4loadERKSt6vectorIhSaIhEESt17basic_string_viewIDuSt11char_traitsIDuEE
FNDA:0,_ZN12_GLOBAL__N_18containsIN4xlnt13core_propertyEEEbRKSt6vectorISt4pairIT_NS1_7variantEESaIS7_EES5_
FNDA:176,_ZN4xlnt8workbook4implEv
FNDA:3,_ZN4xlnt8workbook4loadERKSt6vectorIhSaIhEERKNSt7__cxx1112basic_stringIcSt11char_traitsIcESaIcEEE
FNDA:47,_ZNK4xlnt8workbook13has_code_nameEv
FNDA:0,_ZN4xlnt8workbook9code_nameERKNSt7__cxx1112basic_stringIcSt11char_traitsIcESaIcEEE
FNDA:1,_ZNK4xlnt8workbook4saveESt17basic_string_viewIDuSt11char_traitsIDuEE
FNDA:44,_ZNK4xlnt8workbook19extended_propertiesEv
FNDA:195,_ZN4xlnt8workbook5clearEv
FNDA:1431,_ZN4xlnt8workbook13core_propertyENS_13core_propertyERKNS_7variantE
FNDA:556,_ZN4xlnt8workbook13create_formatEb
FNDA:0,_ZNK4xlnt8workbook9code_nameB5cxx11Ev
FNDA:331,_ZN4xlnt8workbook22calculation_propertiesERKNS_22calculation_propertiesE
FNDA:12,_ZN4xlnt8workbook4loadERSiRKNSt7__cxx1112basic_stringIcSt11char_traitsIcESaIcEEE
FNDA:3885,_ZN4xlnt8workbook17extended_propertyENS_17extended_propertyERKNS_7variantE
FNDA:8,_ZN4xlnt8workbook12remove_sheetENS_9worksheetE
FNDA:1,_ZNK4xlnt8workbook4saveERSoSt17basic_string_viewIDuSt11char_traitsIDuEE
FNDA:0,_ZN4xlnt8workbook5titleERKNSt7__cxx1112basic_stringIcSt11char_traitsIcESaIcEEE
FNDA:2,_ZN4xlnt8workbook14apply_to_cellsESt8functionIFvNS_4cellEEE
FNDA:0,_ZNK4xlnt8workbook11sheet_by_idEm
FNDA:2,_ZN4xlnt8workbook11named_rangeERKNSt7__cxx1112basic_stringIcSt11char_traitsIcESaIcEEE
FNDA:133,_ZZZN4xlnt8workbook12create_sheetEvENKUlRKNS_4pathEE_clES3_ENKUlRKNS_12relationshipEE_clES7_
FNDA:1,_ZN4xlnt8workbookC2ERSi
FNDA:13,_ZNK4xlnt8workbook4saveERSt6vectorIhSaIhEE
FNDA:10,_ZN4xlnt8workbook4loadERKNSt7__cxx1112basic_stringIcSt11char_traitsIcESaIcEEE
FNDA:47,_ZNK4xlnt8workbook16has_file_versionEv
FNDA:4,_ZNK4xlnt8workbookneERKS0_
FNDA:43,_ZNK4xlnt8workbook11last_editedEv
FNDA:243,_ZN4xlnt8workbookC2Ev
FNDA:0,_ZN4xlnt8workbook13load_internalINSt7__cxx1112basic_stringIcSt11char_traitsIcESaIcEEEEEvRKT_SA_
FNDA:9,_ZN4xlnt8workbook13load_internalINSt7__cxx1112basic_stringIcSt11char_traitsIcESaIcEEEEEvRKNS_4pathERKT_
FNDA:202,_ZNK4xlnt8workbook13core_propertyENS_13core_propertyE
FNDA:251,_ZN4xlnt8workbook20create_builtin_styleEm
FNDA:58,_ZNK4xlnt8workbook14sheet_by_titleERKNSt7__cxx1112basic_stringIcSt11char_traitsIcESaIcEEE
FNDA:43,_ZNK4xlnt8workbook13lowest_editedEv
FNDA:0,_ZNK4xlnt8workbook8binariesB5cxx11Ev
FNDA:44,_ZN12_GLOBAL__N_14keysIN4xlnt17extended_propertyEEESt6vectorIT_SaIS4_EERKS3_ISt4pairIS4_NS1_7variantEESaIS9_EE
FNDA:1,_ZNK4xlnt8workbook5styleERKNSt7__cxx1112basic_stringIcSt11char_traitsIcESaIcEEE
FNDA:316,_ZN4xlnt8workbook23update_sheet_propertiesEv
FNDA:338,_ZNK4xlnt8workbook8containsERKNSt7__cxx1112basic_stringIcSt11char_traitsIcESaIcEEE
FNDA:66,_ZNK4xlnt8workbook14shared_stringsEv
FNDA:47,_ZNK4xlnt8workbook26has_calculation_propertiesEv
FNDA:7,_ZN4xlnt8workbook18create_named_rangeERKNSt7__cxx1112basic_stringIcSt11char_traitsIcESaIcEEENS_9worksheetERKNS_15range_referenceE
FNDA:43,_ZNK4xlnt8workbook8app_nameB5cxx11Ev
FNDA:61,_ZNK4xlnt8workbook9base_dateEv
FNDA:1,_ZNK4xlnt8workbook19has_custom_propertyERKNSt7__cxx1112basic_stringIcSt11char_traitsIcESaIcEEE
FNDA:250,_ZN4xlnt8workbook5emptyEv
FNDA:3,_ZNK4xlnt8workbook5indexENS_9worksheetE
FNDA:882,_ZN4xlnt8workbook6formatEm
FNDA:1148,_ZNK4xlnt8workbook4cendEv
FNDA:2,_ZN4xlnt8workbook20default_slicer_styleERKNSt7__cxx1112basic_stringIcSt11char_traitsIcESaIcEEE
FNDA:47,_ZNK4xlnt8workbook12named_rangesEv
FNDA:0,_ZN4xlnt8workbookC2ERSiRKNSt7__cxx1112basic_stringIcSt11char_traitsIcESaIcEEE
FNDA:859,_ZNK4xlnt8workbook8manifestEv
FNDA:29,_ZNK4xlnt8workbook4saveERKNS_4pathE
FNDA:9,_ZN4xlnt8workbook4loadERKNS_4pathERKNSt7__cxx1112basic_stringIcSt11char_traitsIcESaIcEEE
FNDA:1,_ZN4xlnt8workbookC2ERKNS_4pathERKNSt7__cxx1112basic_stringIcSt11char_traitsIcESaIcEEE
FNDA:6,_ZN4xlnt8workbook13load_internalISt17basic_string_viewIDuSt11char_traitsIDuEEEEvRKNS_4pathERKT_
FNDA:240,_ZN4xlnt12_GLOBAL__N_113rel_id_sorterclERKNS_12relationshipES4_
FNDA:0,_ZNK4xlnt8workbook6formatEm
FNDA:155,_ZNK4xlnt8workbook4implEv
FNDA:2608,_ZN12_GLOBAL__N_112default_pathEN4xlnt17relationship_typeEm
FNDA:1,_ZNK4xlnt8workbook4saveERKNS_4pathESt17basic_string_viewIDuSt11char_traitsIDuEE
FNDA:2,_ZNK4xlnt8workbook5cloneENS0_12clone_methodE
FNDA:2,_ZN4xlnt8workbook9constructISt17basic_string_viewIDuSt11char_traitsIDuEEEEvRKNS_4pathERKT_
FNDA:259,_ZN4xlnt8workbook5styleERKNSt7__cxx1112basic_stringIcSt11char_traitsIcESaIcEEE
FNDA:11373,_ZN4xlnt8workbookC2ESt8weak_ptrINS_6detail13workbook_implEE
FNDA:10,_ZN4xlnt8workbook13load_internalISt17basic_string_viewIDuSt11char_traitsIDuEEEEvRSiRKT_
FNDA:5572,_ZN4xlnt8workbook21register_package_partENS_17relationship_typeE
FNDA:251,_ZN4xlnt8workbookC2ESt10shared_ptrINS_6detail13workbook_implEE
FNDA:238,_ZZN4xlnt8workbook21reorder_relationshipsEvENKUlRKNS_12relationshipEE_clES3_
FNDA:318,_ZN4xlnt8workbook3endEv
FNDA:0,_ZN4xlnt8workbook13arch_id_flagsEm
FNDA:0,_ZNK4xlnt8workbook4saveERSt6vectorIhSaIhEESt17basic_string_viewIDuSt11char_traitsIDuEE
FNDA:11,_ZNK4xlnt8workbook15has_named_rangeERKNSt7__cxx1112basic_stringIcSt11char_traitsIcESaIcEEE
FNDA:1,_ZZN4xlnt8workbook13clear_formatsEvENKUlNS_4cellEE_clES1_
FNDA:3,_ZN12_GLOBAL__N_14keysINSt7__cxx1112basic_stringIcSt11char_traitsIcESaIcEEEEESt6vectorIT_SaIS8_EERKS7_ISt4pairIS8_N4xlnt7variantEESaISE_EE
FNDA:17,_ZN4xlnt8workbook12create_styleERKNSt7__cxx1112basic_stringIcSt11char_traitsIcESaIcEEE
FNDA:0,_ZN4xlnt8workbook4loadERKNSt7__cxx1112basic_stringIcSt11char_traitsIcESaIcEEES8_
FNDA:0,_ZNK4xlnt8workbook5titleB5cxx11Ev
FNDA:243,_ZN4xlnt8workbook4swapERS0_
FNDA:1,_ZZN4xlnt8workbook12clear_stylesEvENKUlNS_4cellEE_clES1_
FNDA:23,_ZNK4xlnt8workbook7compareERKS0_b
FNDA:333,_ZN4xlnt8workbook4viewERKNS_13workbook_viewE
FNDA:678,_ZN12_GLOBAL__N_18containsIN4xlnt17extended_propertyEEEbRKSt6vectorISt4pairIT_NS1_7variantEESaIS7_EES5_
FNDA:2,_ZN4xlnt8workbook13load_internalISt17basic_string_viewIDuSt11char_traitsIDuEEEEvRKSt6vectorIhSaIhEERKT_
FNDA:1,_ZN4xlnt8workbook12active_sheetEm
FNDA:34,_ZN4xlnt8workbook23register_worksheet_partENS_9worksheetENS_17relationship_typeE
FNDA:0,_ZNK4xlnt8workbook4saveERKNSt7__cxx1112basic_stringIcSt11char_traitsIcESaIcEEES8_
FNDA:2,_ZN4xlnt8workbookC2ERKNS_4pathE
FNDA:1,_ZNK4xlnt8workbook9has_themeEv
FNDA:51,_ZN4xlnt8workbook18enable_known_fontsEv
FNDA:0,_ZNK4xlnt8workbook17has_core_propertyENS_13core_propertyE
FNDA:15,_ZZN4xlnt8workbook12remove_sheetENS_9worksheetEENKUlRNS_6detail14worksheet_implEE_clES4_
FNDA:201,_ZNK4xlnt8workbook14shared_stringsEm
FNDA:51,_ZN4xlnt8workbook4loadERKNS_4pathE
FNDA:1,_ZN12_GLOBAL__N_18containsINSt7__cxx1112basic_stringIcSt11char_traitsIcESaIcEEEEEbRKSt6vectorISt4pairIT_N4xlnt7variantEESaISC_EES9_
FNDA:1146,_ZNK4xlnt8workbook5beginEv
FNDA:0,_ZNK4xlnt8workbook13save_internalINSt7__cxx1112basic_stringIcSt11char_traitsIcESaIcEEEEEvRKT_SA_
FNDA:256,_ZNK4xlnt8workbook9has_styleERKNSt7__cxx1112basic_stringIcSt11char_traitsIcESaIcEEE
FNDA:43,_ZNK4xlnt8workbook9rup_buildEv
FNDA:0,_ZN4xlnt8workbook19disable_known_fontsEv
FNDA:25,_ZN4xlnt8workbook14sheet_by_titleERKNSt7__cxx1112basic_stringIcSt11char_traitsIcESaIcEEE
FNDA:3,_ZNK4xlnt8workbook13save_internalINSt7__cxx1112basic_stringIcSt11char_traitsIcESaIcEEEEEvRSoRKT_
FNDA:6,_ZN4xlnt8workbook15custom_propertyERKNSt7__cxx1112basic_stringIcSt11char_traitsIcESaIcEEERKNS_7variantE
FNDA:44,_ZN12_GLOBAL__N_14keysIN4xlnt13core_propertyEEESt6vectorIT_SaIS4_EERKS3_ISt4pairIS4_NS1_7variantEESaIS9_EE
FNDA:0,_ZNK4xlnt8workbook13save_internalISt17basic_string_viewIDuSt11char_traitsIDuEEEEvRSt6vectorIhSaIhEERKT_
FNDA:0,_ZNK4xlnt8workbook5themeEv
FNDA:3,_ZN4xlnt8workbook10copy_sheetENS_9worksheetE
FNDA:3,_ZN4xlnt8workbook13load_internalINSt7__cxx1112basic_stringIcSt11char_traitsIcESaIcEEEEEvRKSt6vectorIhSaIhEERKT_
FNDA:1,_ZN4xlnt8workbook9constructINSt7__cxx1112basic_stringIcSt11char_traitsIcESaIcEEEEEvRKNS_4pathERKT_
FNDA:12,_ZN4xlnt8workbook13load_internalINSt7__cxx1112basic_stringIcSt11char_traitsIcESaIcEEEEEvRSiRKT_
FNDA:5,_ZNK4xlnt8workbook15custom_propertyERKNSt7__cxx1112basic_stringIcSt11char_traitsIcESaIcEEE
FNDA:1304,_ZN12_GLOBAL__N_112content_typeEN4xlnt17relationship_typeE
FNDA:2,_ZN4xlnt8workbook13load_internalISt17basic_string_viewIDuSt11char_traitsIDuEEEEvRKT_S8_
FNDA:322,_ZN4xlnt8workbook5themeERKNS_5themeE
FNF:186
FNH:154
DA:69,91
DA:71,91
DA:72,91
DA:74,742
DA:76,651
DA:79,91
DA:80,0
DA:83,679
DA:85,3023
DA:87,3019
DA:89,675
DA:93,4
DA:96,2608
DA:101,2608
DA:103,12
DA:104,24
DA:105,0
DA:106,0
DA:107,0
DA:108,0
DA:109,0
DA:110,0
DA:111,500
DA:112,1000
DA:113,2
DA:114,4
DA:115,0
DA:116,0
DA:117,0
DA:118,0
DA:119,0
DA:120,0
DA:121,0
DA:122,0
DA:123,500
DA:124,1000
DA:125,0
DA:126,0
DA:127,0
DA:128,0
DA:129,0
DA:130,0
DA:131,500
DA:132,1000
DA:133,0
DA:134,0
DA:135,0
DA:136,0
DA:137,0
DA:138,0
DA:139,0
DA:140,0
DA:141,0
DA:142,0
DA:143,0
DA:144,0
DA:145,94
DA:146,188
DA:147,0
DA:148,0
DA:149,0
DA:150,0
DA:151,0
DA:152,0
DA:153,0
DA:154,0
DA:155,500
DA:156,1000
DA:157,0
DA:158,0
DA:159,500
DA:160,1000
DA:161,0
DA:162,0
DA:163,0
DA:164,0
DA:165,0
DA:166,0
DA:167,0
DA:168,0
DA:169,0
DA:170,0
DA:171,0
DA:172,0
DA:175,0
DA:178,1304
DA:182,1304
DA:184,6
DA:185,12
DA:186,0
DA:187,0
DA:188,0
DA:189,0
DA:190,0
DA:191,0
DA:192,250
DA:193,500
DA:194,1
DA:195,2
DA:196,0
DA:197,0
DA:198,0
DA:199,0
DA:200,0
DA:201,0
DA:202,0
DA:203,0
DA:204,250
DA:205,500
DA:206,0
DA:207,0
DA:208,0
DA:209,0
DA:210,0
DA:211,0
DA:212,250
DA:213,500
DA:214,0
DA:215,0
DA:216,0
DA:217,0
DA:218,0
DA:219,0
DA:220,0
DA:221,0
DA:222,0
DA:223,0
DA:224,0
DA:225,0
DA:226,47
DA:227,94
DA:228,0
DA:229,0
DA:230,0
DA:231,0
DA:232,0
DA:233,0
DA:234,0
DA:235,0
DA:236,250
DA:237,500
DA:238,0
DA:239,0
DA:240,250
DA:241,500
DA:242,0
DA:243,0
DA:244,0
DA:245,0
DA:246,0
DA:247,0
DA:248,0
DA:249,0
DA:250,0
DA:251,0
DA:252,0
DA:253,0
DA:256,0
DA:263,0
DA:265,0
DA:268,44
DA:270,44
DA:273,202
DA:275,683
DA:277,683
DA:279,404
DA:281,683
DA:283,0
DA:286,1431
DA:288,1431
DA:290,4057
DA:292,2636
DA:294,10
DA:295,10
DA:299,1421
DA:302,678
DA:304,678
DA:307,44
DA:309,44
DA:312,3885
DA:314,3885
DA:316,20945
DA:318,17702
DA:320,642
DA:321,642
DA:325,3243
DA:328,445
DA:330,2701
DA:332,2701
DA:334,890
DA:336,2701
DA:338,0
DA:341,1
DA:343,1
DA:346,3
DA:348,3
DA:351,6
DA:353,6
DA:355,7
DA:357,1
DA:359,0
DA:360,0
DA:364,6
DA:367,5
DA:369,6
DA:371,6
DA:373,10
DA:375,6
DA:377,0
DA:380,0
DA:382,0
DA:383,0
DA:385,0
DA:387,0
DA:388,0
DA:390,250
DA:392,250
DA:394,250
DA:396,1000
DA:398,1250
DA:401,750
DA:403,250
DA:404,250
DA:405,250
DA:406,250
DA:408,250
DA:409,250
DA:410,250
DA:411,1000
DA:412,250
DA:413,250
DA:414,250
DA:415,250
DA:416,250
DA:417,250
DA:419,250
DA:420,250
DA:421,250
DA:422,250
DA:423,250
DA:424,250
DA:426,250
DA:427,250
DA:428,250
DA:429,250
DA:430,250
DA:431,250
DA:432,250
DA:433,250
DA:435,250
DA:437,250
DA:438,250
DA:439,250
DA:440,250
DA:441,250
DA:442,250
DA:443,250
DA:444,250
DA:446,250
DA:447,250
DA:449,250
DA:450,250
DA:451,250
DA:453,250
DA:455,250
DA:456,250
DA:457,250
DA:459,250
DA:460,500
DA:461,500
DA:462,500
DA:463,500
DA:464,250
DA:465,250
DA:467,500
DA:468,250
DA:469,250
DA:470,500
DA:471,250
DA:472,250
DA:474,250
DA:475,500
DA:476,250
DA:477,500
DA:478,250
DA:479,250
DA:480,250
DA:482,250
DA:483,250
DA:484,500
DA:485,500
DA:486,250
DA:488,250
DA:489,250
DA:490,500
DA:491,500
DA:492,500
DA:493,500
DA:495,250
DA:496,250
DA:497,250
DA:498,250
DA:500,250
DA:501,500
DA:503,243
DA:505,243
DA:506,243
DA:507,243
DA:509,2
DA:511,2
DA:512,2
DA:513,2
DA:516,3
DA:518,3
DA:519,3
DA:520,2
DA:522,1
DA:524,1
DA:525,1
DA:528,2
DA:530,2
DA:531,2
DA:534,1
DA:536,1
DA:537,1
DA:538,1
DA:541,1
DA:543,1
DA:544,1
DA:545,1
DA:547,0
DA:549,0
DA:550,0
DA:553,1
DA:555,1
DA:556,1
DA:559,251
DA:561,251
DA:562,251
DA:564,11373
DA:566,11373
DA:567,11373
DA:569,11624
DA:571,11624
DA:573,0
DA:576,11624
DA:577,11624
DA:579,5572
DA:581,16716
DA:583,751
DA:584,1502
DA:585,3004
DA:588,5572
DA:590,11915
DA:592,23830
DA:593,47660
DA:595,11915
DA:597,553
DA:598,1106
DA:599,2212
DA:602,23830
DA:604,34
DA:606,102
DA:607,34
DA:608,34
DA:609,34
DA:610,34
DA:612,34
DA:614,34
DA:616,3
DA:617,3
DA:618,3
DA:620,7
DA:622,4
DA:624,4
DA:625,14
DA:627,6
DA:628,6
DA:630,2
DA:631,5
DA:633,4
DA:635,1
DA:636,1
DA:638,3
DA:639,14
DA:641,4
DA:643,1
DA:644,1
DA:648,15
DA:650,3
DA:651,6
DA:652,6
DA:653,3
DA:655,34
DA:657,3
DA:658,6
DA:662,4
DA:664,1
DA:665,1
DA:668,3
DA:669,9
DA:672,3
DA:673,6
DA:674,6
DA:675,3
DA:677,34
DA:679,58
DA:681,72
DA:683,71
DA:685,57
DA:689,1
DA:692,25
DA:694,48
DA:696,43
DA:698,20
DA:702,5
DA:705,299
DA:707,299
DA:709,1
DA:712,298
DA:714,374
DA:716,76
DA:719,596
DA:722,1108
DA:724,1108
DA:726,1
DA:729,1107
DA:731,1375
DA:735,2214
DA:738,0
DA:740,0
DA:742,0
DA:744,0
DA:748,0
DA:751,0
DA:753,0
DA:755,0
DA:757,0
DA:761,0
DA:764,1
DA:766,1
DA:768,0
DA:771,1
DA:774,157
DA:776,157
DA:778,1
DA:780,1
DA:781,1
DA:782,1
DA:784,11
DA:786,27
DA:788,17
DA:790,9
DA:793,2
DA:796,289
DA:798,289
DA:799,289
DA:802,336
DA:804,47
DA:807,289
DA:808,340
DA:810,51
DA:812,289
DA:814,578
DA:815,289
DA:816,290
DA:817,580
DA:818,133
DA:819,580
DA:820,289
DA:822,289
DA:823,289
DA:826,290
DA:827,290
DA:829,289
DA:830,289
DA:831,578
DA:833,289
DA:834,289
DA:835,289
DA:837,289
DA:838,289
DA:840,578
DA:841,289
DA:843,3
DA:845,3
DA:847,2
DA:848,2
DA:849,2
DA:850,2
DA:851,2
DA:853,4
DA:854,2
DA:856,1
DA:858,1
DA:860,1
DA:862,1
DA:864,1
DA:868,1
DA:869,1
DA:872,1
DA:875,3
DA:877,3
DA:879,3
DA:881,1
DA:884,6
DA:887,7
DA:889,7
DA:890,6
DA:892,7
DA:894,8
DA:895,6
DA:897,2
DA:899,8
DA:901,4
DA:903,1
DA:904,1
DA:908,1
DA:911,2
DA:913,8
DA:915,4
DA:917,1
DA:921,1
DA:924,76
DA:926,76
DA:927,76
DA:931,76
DA:933,1
DA:935,3
DA:937,0
DA:938,0
DA:942,1
DA:944,1
DA:945,76
DA:947,23
DA:949,23
DA:951,0
DA:954,23
DA:955,23
DA:956,23
DA:957,23
DA:960,11
DA:962,11
DA:966,2
DA:968,2
DA:971,10
DA:973,10
DA:976,51
DA:978,51
DA:979,51
DA:981,51
DA:983,0
DA:986,51
DA:987,51
DA:989,0
DA:991,0
DA:995,15
DA:997,15
DA:998,15
DA:1000,15
DA:1002,0
DA:1005,25
DA:1006,15
DA:1008,9
DA:1010,9
DA:1011,4
DA:1014,6
DA:1016,6
DA:1017,6
DA:1021,5
DA:1023,5
DA:1025,0
DA:1028,5
DA:1029,5
DA:1030,5
DA:1031,5
DA:1033,3
DA:1035,3
DA:1036,3
DA:1039,2
DA:1041,2
DA:1042,2
DA:1046,22
DA:1048,22
DA:1049,22
DA:1050,22
DA:1051,22
DA:1053,12
DA:1055,12
DA:1056,7
DA:1059,10
DA:1061,10
DA:1062,10
DA:1065,13
DA:1067,13
DA:1068,13
DA:1069,13
DA:1070,13
DA:1073,0
DA:1075,0
DA:1076,0
DA:1077,0
DA:1078,0
DA:1080,0
DA:1082,0
DA:1083,0
DA:1086,0
DA:1088,0
DA:1089,0
DA:1093,29
DA:1095,29
DA:1096,29
DA:1099,0
DA:1101,0
DA:1102,0
DA:1104,28
DA:1106,28
DA:1107,28
DA:1109,0
DA:1111,0
DA:1112,0
DA:1114,29
DA:1116,29
DA:1117,29
DA:1118,29
DA:1119,29
DA:1122,4
DA:1124,4
DA:1125,4
DA:1126,4
DA:1127,4
DA:1129,3
DA:1131,3
DA:1132,3
DA:1135,1
DA:1137,1
DA:1138,1
DA:1141,42
DA:1143,42
DA:1144,42
DA:1145,42
DA:1148,4
DA:1150,4
DA:1151,4
DA:1152,4
DA:1154,3
DA:1156,3
DA:1157,3
DA:1160,1
DA:1162,1
DA:1163,1
DA:1197,1
DA:1199,1
DA:1200,1
DA:1202,0
DA:1204,0
DA:1205,0
DA:1207,1
DA:1209,1
DA:1210,1
DA:1212,2
DA:1214,2
DA:1215,2
DA:1218,8
DA:1220,8
DA:1221,23
DA:1223,8
DA:1225,0
DA:1228,8
DA:1229,16
DA:1230,8
DA:1231,56
DA:1232,8
DA:1233,8
DA:1234,8
DA:1235,8
DA:1238,32
DA:1240,24
DA:1241,19
DA:1242,43
DA:1245,8
DA:1246,16
DA:1248,1
DA:1250,1
DA:1252,1
DA:1254,0
DA:1256,0
DA:1260,0
DA:1261,0
DA:1264,1
DA:1267,0
DA:1269,0
DA:1270,0
DA:1272,0
DA:1273,0
DA:1274,0
DA:1276,0
DA:1277,0
DA:1278,0
DA:1280,0
DA:1282,0
DA:1283,0
DA:1285,325
DA:1287,325
DA:1290,318
DA:1292,318
DA:1295,1146
DA:1297,1146
DA:1300,1147
DA:1302,1147
DA:1305,1156
DA:1307,1156
DA:1310,1148
DA:1312,1148
DA:1315,616
DA:1317,616
DA:1319,1368
DA:1321,752
DA:1324,616
DA:1325,0
DA:1327,323
DA:1329,323
DA:1332,2
DA:1334,2
DA:1337,129
DA:1339,129
DA:1342,195
DA:1344,195
DA:1345,195
DA:1346,195
DA:1348,23
DA:1350,23
DA:1352,9
DA:1356,14
DA:1360,7
DA:1362,7
DA:1365,4
DA:1367,4
DA:1370,243
DA:1372,243
DA:1373,243
DA:1375,2
DA:1377,2
DA:1379,1
DA:1381,1
DA:1382,1
DA:1384,5
DA:1386,2
DA:1389,1
DA:1391,1
DA:1392,0
DA:1393,1
DA:1395,1
DA:1397,0
DA:1398,0
DA:1402,1
DA:1404,1
DA:1407,0
DA:1409,0
DA:1412,322
DA:1414,322
DA:1415,322
DA:1416,322
DA:1418,47
DA:1420,47
DA:1422,159
DA:1424,56
DA:1426,0
DA:1430,47
DA:1431,0
DA:1433,556
DA:1435,556
DA:1436,556
DA:1439,256
DA:1441,256
DA:1444,1
DA:1446,2
DA:1447,1
DA:1449,2
DA:1451,2
DA:1452,2
DA:1454,0
DA:1456,0
DA:1459,51
DA:1461,51
DA:1462,51
DA:1464,0
DA:1466,0
DA:1467,0
DA:1469,0
DA:1471,0
DA:1474,1
DA:1476,2
DA:1477,1
DA:1479,2
DA:1481,6
DA:1483,4
DA:1485,6
DA:1487,2
DA:1489,2
DA:1494,2
DA:1496,882
DA:1498,882
DA:1501,0
DA:1503,0
DA:1506,47583
DA:1508,47583
DA:1511,859
DA:1513,859
DA:1516,201
DA:1518,201
DA:1520,201
DA:1523,0
DA:1524,0
DA:1527,0
DA:1529,0
DA:1532,66
DA:1534,66
DA:1537,11020
DA:1539,11020
DA:1541,11020
DA:1543,10293
DA:1545,10293
DA:1547,9904
DA:1551,1116
DA:1552,1116
DA:1553,1116
DA:1555,1116
DA:1558,338
DA:1560,464
DA:1562,111
DA:1565,290
DA:1568,250
DA:1571,750
DA:1573,250
DA:1574,500
DA:1575,750
DA:1578,500
DA:1579,250
DA:1580,250
DA:1582,0
DA:1584,0
DA:1585,0
DA:1586,0
DA:1588,0
DA:1590,0
DA:1593,17
DA:1595,17
DA:1598,251
DA:1600,251
DA:1603,259
DA:1605,259
DA:1608,1
DA:1610,1
DA:1613,61
DA:1615,61
DA:1618,95
DA:1620,95
DA:1621,95
DA:1623,0
DA:1625,0
DA:1628,0
DA:1630,0
DA:1633,0
DA:1635,0
DA:1636,0
DA:1638,176
DA:1640,176
DA:1643,155
DA:1645,155
DA:1648,100
DA:1650,100
DA:1653,96
DA:1655,96
DA:1657,0
DA:1660,96
DA:1663,333
DA:1665,333
DA:1666,333
DA:1668,47
DA:1670,47
DA:1673,0
DA:1675,0
DA:1677,0
DA:1680,0
DA:1683,0
DA:1685,0
DA:1686,0
DA:1688,47
DA:1690,47
DA:1693,43
DA:1695,43
DA:1698,43
DA:1700,43
DA:1703,43
DA:1705,43
DA:1708,43
DA:1710,43
DA:1713,47
DA:1715,47
DA:1718,88
DA:1720,88
DA:1723,331
DA:1725,331
DA:1726,331
DA:1728,18
DA:1730,18
DA:1732,36
DA:1734,104
DA:1736,512
DA:1738,426
DA:1740,136
DA:1743,18
DA:1746,18
DA:1748,4
DA:1750,2
DA:1752,2
DA:1753,10
DA:1754,2
DA:1755,2
DA:1756,2
DA:1757,4
DA:1759,316
DA:1761,316
DA:1763,316
DA:1766,316
DA:1768,316
DA:1769,1580
DA:1771,632
DA:1775,289
DA:1779,289
DA:1780,629
DA:1782,340
DA:1783,340
DA:1784,340
DA:1785,340
DA:1787,40
DA:1789,340
DA:1790,289
DA:1796,240
DA:1799,240
DA:1801,0
DA:1803,240
DA:1808,289
DA:1810,289
DA:1812,289
DA:1813,289
DA:1814,289
DA:1816,250
DA:1819,78
DA:1820,39
DA:1821,39
DA:1823,210
DA:1825,171
DA:1828,39
DA:1829,171
DA:1831,129
DA:1833,90
DA:1834,238
DA:1836,90
DA:1837,90
DA:1838,180
DA:1839,90
DA:1840,90
DA:1842,210
DA:1844,171
DA:1846,90
DA:1848,162
DA:1849,81
DA:1851,539
LF:970
LH:743
end_of_record
TN:
SF:/root/project/source/workbook/worksheet_iterator.cpp
FN:31,_ZN4xlnt18worksheet_iteratorC2ERNS_8workbookEm
FN:36,_ZN4xlnt18worksheet_iteratordeEv
FN:41,_ZNK4xlnt18worksheet_iteratordeEv
FN:46,_ZN4xlnt18worksheet_iteratorppEv
FN:52,_ZN4xlnt18worksheet_iteratorppEi
FN:59,_ZN4xlnt18worksheet_iteratormmEv
FN:65,_ZN4xlnt18worksheet_iteratormmEi
FN:72,_ZNK4xlnt18worksheet_iteratoreqERKS0_
FN:77,_ZNK4xlnt18worksheet_iteratorneERKS0_
FN:82,_ZN4xlnt24const_worksheet_iteratorC2ERKNS_8workbookEm
FN:87,_ZNK4xlnt24const_worksheet_iteratordeEv
FN:92,_ZN4xlnt24const_worksheet_iteratorppEv
FN:98,_ZN4xlnt24const_worksheet_iteratorppEi
FN:105,_ZN4xlnt24const_worksheet_iteratormmEv
FN:111,_ZN4xlnt24const_worksheet_iteratormmEi
FN:118,_ZNK4xlnt24const_worksheet_iteratoreqERKS0_
FN:123,_ZNK4xlnt24const_worksheet_iteratorneERKS0_
FNDA:8,_ZN4xlnt18worksheet_iteratorppEi
FNDA:2,_ZN4xlnt24const_worksheet_iteratormmEv
FNDA:1106,_ZNK4xlnt24const_worksheet_iteratordeEv
FNDA:2,_ZN4xlnt18worksheet_iteratormmEv
FNDA:652,_ZN4xlnt18worksheet_iteratorC2ERNS_8workbookEm
FNDA:2310,_ZN4xlnt24const_worksheet_iteratorC2ERKNS_8workbookEm
FNDA:0,_ZNK4xlnt18worksheet_iteratordeEv
FNDA:1,_ZN4xlnt18worksheet_iteratormmEi
FNDA:5,_ZN4xlnt24const_worksheet_iteratorppEi
FNDA:2187,_ZNK4xlnt24const_worksheet_iteratorneERKS0_
FNDA:98,_ZN4xlnt18worksheet_iteratordeEv
FNDA:91,_ZN4xlnt18worksheet_iteratorppEv
FNDA:2199,_ZNK4xlnt24const_worksheet_iteratoreqERKS0_
FNDA:401,_ZNK4xlnt18worksheet_iteratorneERKS0_
FNDA:1045,_ZN4xlnt24const_worksheet_iteratorppEv
FNDA:1,_ZN4xlnt24const_worksheet_iteratormmEi
FNDA:409,_ZNK4xlnt18worksheet_iteratoreqERKS0_
FNF:17
FNH:16
DA:31,652
DA:32,652
DA:34,652
DA:36,98
DA:38,98
DA:41,0
DA:43,0
DA:46,91
DA:48,91
DA:49,91
DA:52,8
DA:54,8
DA:55,8
DA:56,8
DA:59,2
DA:61,2
DA:62,2
DA:65,1
DA:67,1
DA:68,1
DA:69,1
DA:72,409
DA:74,409
DA:77,401
DA:79,401
DA:82,2310
DA:83,2310
DA:85,2310
DA:87,1106
DA:89,1106
DA:92,1045
DA:94,1045
DA:95,1045
DA:98,5
DA:100,5
DA:101,5
DA:102,5
DA:105,2
DA:107,2
DA:108,2
DA:111,1
DA:113,1
DA:114,1
DA:115,1
DA:118,2199
DA:120,2199
DA:123,2187
DA:125,2187
LF:48
LH:46
end_of_record
TN:
SF:/root/project/source/worksheet/cell_iterator.cpp
FN:32,_ZN4xlnt13cell_iteratorC2ENS_9worksheetERKNS_14cell_referenceERKNS_15range_referenceENS_11major_orderEbb
FN:47,_ZN4xlnt19const_cell_iteratorC2ENS_9worksheetERKNS_14cell_referenceERKNS_15range_referenceENS_11major_orderEbb
FN:62,_ZNK4xlnt13cell_iteratoreqERKS0_
FN:72,_ZNK4xlnt19const_cell_iteratoreqERKS0_
FN:82,_ZNK4xlnt13cell_iteratorneERKS0_
FN:87,_ZNK4xlnt19const_cell_iteratorneERKS0_
FN:92,_ZN4xlnt13cell_iteratormmEv
FN:128,_ZN4xlnt19const_cell_iteratormmEv
FN:164,_ZN4xlnt13cell_iteratormmEi
FN:172,_ZN4xlnt19const_cell_iteratormmEi
FN:180,_ZN4xlnt13cell_iteratorppEv
FN:216,_ZN4xlnt19const_cell_iteratorppEv
FN:252,_ZN4xlnt13cell_iteratorppEi
FN:260,_ZN4xlnt19const_cell_iteratorppEi
FN:268,_ZN4xlnt13cell_iteratordeEv
FN:273,_ZNK4xlnt13cell_iteratordeEv
FN:278,_ZNK4xlnt19const_cell_iteratordeEv
FN:283,_ZNK4xlnt13cell_iterator9has_valueEv
FN:287,_ZNK4xlnt19const_cell_iterator9has_valueEv
FNDA:4,_ZNK4xlnt19const_cell_iterator9has_valueEv
FNDA:297,_ZNK4xlnt19const_cell_iteratoreqERKS0_
FNDA:1330,_ZN4xlnt13cell_iteratordeEv
FNDA:568,_ZN4xlnt19const_cell_iteratorC2ENS_9worksheetERKNS_14cell_referenceERKNS_15range_referenceENS_11major_orderEbb
FNDA:4,_ZNK4xlnt13cell_iterator9has_valueEv
FNDA:3,_ZN4xlnt13cell_iteratormmEi
FNDA:17,_ZNK4xlnt19const_cell_iteratorneERKS0_
FNDA:1515,_ZNK4xlnt13cell_iteratoreqERKS0_
FNDA:0,_ZNK4xlnt13cell_iteratordeEv
FNDA:427,_ZN4xlnt19const_cell_iteratorppEi
FNDA:1505,_ZNK4xlnt13cell_iteratorneERKS0_
FNDA:2,_ZN4xlnt19const_cell_iteratormmEi
FNDA:442,_ZN4xlnt19const_cell_iteratorppEv
FNDA:1450,_ZN4xlnt13cell_iteratorppEv
FNDA:446,_ZN4xlnt13cell_iteratorC2ENS_9worksheetERKNS_14cell_referenceERKNS_15range_referenceENS_11major_orderEbb
FNDA:36,_ZNK4xlnt19const_cell_iteratordeEv
FNDA:26,_ZN4xlnt13cell_iteratormmEv
FNDA:150,_ZN4xlnt13cell_iteratorppEi
FNDA:34,_ZN4xlnt19const_cell_iteratormmEv
FNF:19
FNH:18
DA:32,446
DA:33,446
DA:34,446
DA:35,446
DA:36,446
DA:37,446
DA:38,446
DA:39,446
DA:41,446
DA:43,148
DA:45,446
DA:47,568
DA:48,568
DA:49,568
DA:50,568
DA:51,568
DA:52,568
DA:53,568
DA:54,568
DA:56,568
DA:58,426
DA:60,568
DA:62,1515
DA:64,1515
DA:65,1515
DA:66,211
DA:67,211
DA:68,211
DA:69,3030
DA:72,297
DA:74,297
DA:75,297
DA:76,121
DA:77,121
DA:78,121
DA:79,594
DA:82,1505
DA:84,1505
DA:87,17
DA:89,17
DA:92,26
DA:94,26
DA:96,4
DA:98,4
DA:101,4
DA:103,0
DA:105,0
DA:111,22
DA:113,22
DA:116,22
DA:118,20
DA:120,0
DA:125,26
DA:128,34
DA:130,34
DA:132,15
DA:134,15
DA:137,15
DA:139,15
DA:141,0
DA:147,19
DA:149,19
DA:152,19
DA:154,19
DA:156,0
DA:161,34
DA:164,3
DA:166,3
DA:167,3
DA:169,3
DA:172,2
DA:174,2
DA:175,2
DA:177,2
DA:180,1450
DA:182,1450
DA:184,1432
DA:186,1333
DA:189,1432
DA:191,942
DA:193,344
DA:199,18
DA:201,9
DA:204,18
DA:206,18
DA:208,0
DA:213,1450
DA:216,442
DA:218,442
DA:220,351
DA:222,139
DA:225,351
DA:227,1035
DA:229,684
DA:235,91
DA:237,27
DA:240,91
DA:242,109
DA:244,18
DA:249,442
DA:252,150
DA:254,150
DA:255,150
DA:257,150
DA:260,427
DA:262,427
DA:263,427
DA:265,427
DA:268,1330
DA:270,1330
DA:273,0
DA:275,0
DA:278,36
DA:280,36
DA:283,4
DA:284,4
DA:287,4
DA:288,4
LF:118
LH:110
end_of_record
TN:
SF:/root/project/source/worksheet/cell_vector.cpp
FN:31,_ZN4xlnt11cell_vectorC2ENS_9worksheetERKNS_14cell_referenceERKNS_15range_referenceENS_11major_orderEbb
FN:42,_ZN4xlnt11cell_vector5beginEv
FN:47,_ZN4xlnt11cell_vector3endEv
FN:63,_ZNK4xlnt11cell_vector6cbeginEv
FN:68,_ZNK4xlnt11cell_vector4cendEv
FN:84,_ZNK4xlnt11cell_vector5emptyEv
FN:89,_ZN4xlnt11cell_vector5frontEv
FN:94,_ZNK4xlnt11cell_vector5frontEv
FN:99,_ZN4xlnt11cell_vector4backEv
FN:104,_ZNK4xlnt11cell_vector4backEv
FN:109,_ZNK4xlnt11cell_vector6lengthEv
FN:114,_ZNK4xlnt11cell_vector5beginEv
FN:118,_ZNK4xlnt11cell_vector3endEv
FN:123,_ZN4xlnt11cell_vector6rbeginEv
FN:128,_ZN4xlnt11cell_vector4rendEv
FN:133,_ZNK4xlnt11cell_vector7crbeginEv
FN:138,_ZNK4xlnt11cell_vector6rbeginEv
FN:143,_ZNK4xlnt11cell_vector5crendEv
FN:148,_ZNK4xlnt11cell_vector4rendEv
FN:153,_ZN4xlnt11cell_vectorixEm
FN:163,_ZNK4xlnt11cell_vectorixEm
FNDA:2,_ZN4xlnt11cell_vector5frontEv
FNDA:4,_ZN4xlnt11cell_vector6rbeginEv
FNDA:3,_ZNK4xlnt11cell_vector6rbeginEv
FNDA:38,_ZN4xlnt11cell_vectorixEm
FNDA:268,_ZNK4xlnt11cell_vector5beginEv
FNDA:1,_ZNK4xlnt11cell_vector4backEv
FNDA:292,_ZNK4xlnt11cell_vector6cbeginEv
FNDA:19,_ZNK4xlnt11cell_vector5crendEv
FNDA:262,_ZNK4xlnt11cell_vector5emptyEv
FNDA:6,_ZN4xlnt11cell_vector4backEv
FNDA:268,_ZNK4xlnt11cell_vector3endEv
FNDA:0,_ZNK4xlnt11cell_vectorixEm
FNDA:552,_ZN4xlnt11cell_vectorC2ENS_9worksheetERKNS_14cell_referenceERKNS_15range_referenceENS_11major_orderEbb
FNDA:276,_ZNK4xlnt11cell_vector4cendEv
FNDA:227,_ZN4xlnt11cell_vector5beginEv
FNDA:219,_ZN4xlnt11cell_vector3endEv
FNDA:5,_ZNK4xlnt11cell_vector6lengthEv
FNDA:10,_ZN4xlnt11cell_vector4rendEv
FNDA:7,_ZNK4xlnt11cell_vector7crbeginEv
FNDA:1,_ZNK4xlnt11cell_vector5frontEv
FNDA:9,_ZNK4xlnt11cell_vector4rendEv
FNF:21
FNH:20
DA:31,552
DA:32,552
DA:33,552
DA:34,552
DA:35,552
DA:36,552
DA:37,552
DA:38,552
DA:40,552
DA:42,227
DA:44,227
DA:47,219
DA:49,219
DA:51,219
DA:53,208
DA:57,11
DA:60,219
DA:63,292
DA:65,292
DA:68,276
DA:70,276
DA:72,276
DA:74,212
DA:78,64
DA:81,276
DA:84,262
DA:86,262
DA:89,2
DA:91,2
DA:94,1
DA:96,1
DA:99,6
DA:101,6
DA:104,1
DA:106,1
DA:109,5
DA:111,5
DA:114,268
DA:116,268
DA:118,268
DA:120,268
DA:123,4
DA:125,4
DA:128,10
DA:130,10
DA:133,7
DA:135,7
DA:138,3
DA:140,3
DA:143,19
DA:145,19
DA:148,9
DA:150,9
DA:153,38
DA:155,38
DA:157,33
DA:160,5
DA:163,0
DA:165,0
DA:167,0
DA:170,0
LF:61
LH:57
end_of_record
TN:
SF:/root/project/source/worksheet/header_footer.cpp
FN:30,_ZNK4xlnt13header_footer10has_headerEv
FN:35,_ZNK4xlnt13header_footer10has_footerEv
FN:40,_ZNK4xlnt13header_footer18align_with_marginsEv
FN:45,_ZN4xlnt13header_footer18align_with_marginsEb
FN:51,_ZNK4xlnt13header_footer18different_odd_evenEv
FN:56,_ZNK4xlnt13header_footer15different_firstEv
FN:61,_ZNK4xlnt13header_footer14scale_with_docEv
FN:66,_ZN4xlnt13header_footer14scale_with_docEb
FN:74,_ZNK4xlnt13header_footer10has_headerENS0_8locationE
FN:79,_ZN4xlnt13header_footer12clear_headerEv
FN:86,_ZN4xlnt13header_footer12clear_headerENS0_8locationE
FN:93,_ZN4xlnt13header_footer6headerENS0_8locationERKNSt7__cxx1112basic_stringIcSt11char_traitsIcESaIcEEE
FN:98,_ZN4xlnt13header_footer6headerENS0_8locationERKNS_9rich_textE
FN:104,_ZNK4xlnt13header_footer6headerENS0_8locationE
FN:111,_ZNK4xlnt13header_footer21has_first_page_headerEv
FN:116,_ZNK4xlnt13header_footer21has_first_page_headerENS0_8locationE
FN:121,_ZN4xlnt13header_footer23clear_first_page_headerEv
FN:126,_ZN4xlnt13header_footer23clear_first_page_headerENS0_8locationE
FN:131,_ZN4xlnt13header_footer17first_page_headerENS0_8locationERKNS_9rich_textE
FN:137,_ZNK4xlnt13header_footer17first_page_headerENS0_8locationE
FN:144,_ZNK4xlnt13header_footer19has_odd_even_headerEv
FN:149,_ZNK4xlnt13header_footer19has_odd_even_headerENS0_8locationE
FN:154,_ZN4xlnt13header_footer21clear_odd_even_headerEv
FN:161,_ZN4xlnt13header_footer21clear_odd_even_headerENS0_8locationE
FN:167,_ZN4xlnt13header_footer15odd_even_headerENS0_8locationERKNS_9rich_textES4_
FN:176,_ZNK4xlnt13header_footer10odd_headerENS0_8locationE
FN:181,_ZNK4xlnt13header_footer11even_headerENS0_8locationE
FN:188,_ZNK4xlnt13header_footer10has_footerENS0_8locationE
FN:193,_ZN4xlnt13header_footer12clear_footerEv
FN:200,_ZN4xlnt13header_footer12clear_footerENS0_8locationE
FN:207,_ZN4xlnt13header_footer6footerENS0_8locationERKNSt7__cxx1112basic_stringIcSt11char_traitsIcESaIcEEE
FN:212,_ZN4xlnt13header_footer6footerENS0_8locationERKNS_9rich_textE
FN:218,_ZNK4xlnt13header_footer6footerENS0_8locationE
FN:225,_ZNK4xlnt13header_footer21has_first_page_footerEv
FN:230,_ZNK4xlnt13header_footer21has_first_page_footerENS0_8locationE
FN:235,_ZN4xlnt13header_footer23clear_first_page_footerEv
FN:240,_ZN4xlnt13header_footer23clear_first_page_footerENS0_8locationE
FN:245,_ZN4xlnt13header_footer17first_page_footerENS0_8locationERKNS_9rich_textE
FN:251,_ZNK4xlnt13header_footer17first_page_footerENS0_8locationE
FN:258,_ZNK4xlnt13header_footer19has_odd_even_footerEv
FN:263,_ZNK4xlnt13header_footer19has_odd_even_footerENS0_8locationE
FN:268,_ZN4xlnt13header_footer21clear_odd_even_footerEv
FN:274,_ZN4xlnt13header_footer21clear_odd_even_footerENS0_8locationE
FN:280,_ZN4xlnt13header_footer15odd_even_footerENS0_8locationERKNS_9rich_textES4_
FN:289,_ZNK4xlnt13header_footer10odd_footerENS0_8locationE
FN:294,_ZNK4xlnt13header_footer11even_footerENS0_8locationE
FN:299,_ZNK4xlnt13header_footereqERKS0_
FN:312,_ZNK4xlnt13header_footerneERKS0_
FNDA:3,_ZN4xlnt13header_footer6footerENS0_8locationERKNSt7__cxx1112basic_stringIcSt11char_traitsIcESaIcEEE
FNDA:0,_ZN4xlnt13header_footer23clear_first_page_headerENS0_8locationE
FNDA:0,_ZNK4xlnt13header_footer11even_headerENS0_8locationE
FNDA:0,_ZN4xlnt13header_footer12clear_headerEv
FNDA:29,_ZN4xlnt13header_footer6footerENS0_8locationERKNS_9rich_textE
FNDA:1,_ZNK4xlnt13header_footer14scale_with_docEv
FNDA:6,_ZNK4xlnt13header_footer19has_odd_even_headerENS0_8locationE
FNDA:22,_ZNK4xlnt13header_footer15different_firstEv
FNDA:0,_ZNK4xlnt13header_footer17first_page_footerENS0_8locationE
FNDA:14,_ZNK4xlnt13header_footer6headerENS0_8locationE
FNDA:6,_ZNK4xlnt13header_footereqERKS0_
FNDA:28,_ZNK4xlnt13header_footer18different_odd_evenEv
FNDA:6,_ZNK4xlnt13header_footer21has_first_page_footerENS0_8locationE
FNDA:0,_ZNK4xlnt13header_footer19has_odd_even_footerEv
FNDA:27,_ZNK4xlnt13header_footer10has_footerENS0_8locationE
FNDA:0,_ZNK4xlnt13header_footer17first_page_headerENS0_8locationE
FNDA:0,_ZNK4xlnt13header_footer21has_first_page_headerEv
FNDA:0,_ZN4xlnt13header_footer21clear_odd_even_footerEv
FNDA:0,_ZN4xlnt13header_footer23clear_first_page_footerEv
FNDA:0,_ZN4xlnt13header_footer21clear_odd_even_headerEv
FNDA:0,_ZNK4xlnt13header_footer10has_headerEv
FNDA:1,_ZNK4xlnt13header_footer18align_with_marginsEv
FNDA:0,_ZNK4xlnt13header_footer19has_odd_even_headerEv
FNDA:3,_ZN4xlnt13header_footer12clear_footerENS0_8locationE
FNDA:0,_ZN4xlnt13header_footer21clear_odd_even_footerENS0_8locationE
FNDA:27,_ZNK4xlnt13header_footer10has_headerENS0_8locationE
FNDA:0,_ZNK4xlnt13header_footerneERKS0_
FNDA:3,_ZN4xlnt13header_footer6headerENS0_8locationERKNSt7__cxx1112basic_stringIcSt11char_traitsIcESaIcEEE
FNDA:0,_ZN4xlnt13header_footer23clear_first_page_footerENS0_8locationE
FNDA:0,_ZN4xlnt13header_footer21clear_odd_even_headerENS0_8locationE
FNDA:0,_ZN4xlnt13header_footer23clear_first_page_headerEv
FNDA:18,_ZN4xlnt13header_footer18align_with_marginsEb
FNDA:0,_ZNK4xlnt13header_footer10odd_footerENS0_8locationE
FNDA:18,_ZN4xlnt13header_footer14scale_with_docEb
FNDA:0,_ZN4xlnt13header_footer17first_page_footerENS0_8locationERKNS_9rich_textE
FNDA:0,_ZNK4xlnt13header_footer11even_footerENS0_8locationE
FNDA:0,_ZNK4xlnt13header_footer10has_footerEv
FNDA:6,_ZNK4xlnt13header_footer19has_odd_even_footerENS0_8locationE
FNDA:3,_ZN4xlnt13header_footer12clear_headerENS0_8locationE
FNDA:0,_ZNK4xlnt13header_footer21has_first_page_footerEv
FNDA:15,_ZNK4xlnt13header_footer6footerENS0_8locationE
FNDA:0,_ZN4xlnt13header_footer15odd_even_footerENS0_8locationERKNS_9rich_textES4_
FNDA:19,_ZNK4xlnt13header_footer21has_first_page_headerENS0_8locationE
FNDA:27,_ZN4xlnt13header_footer6headerENS0_8locationERKNS_9rich_textE
FNDA:0,_ZN4xlnt13header_footer12clear_footerEv
FNDA:0,_ZNK4xlnt13header_footer10odd_headerENS0_8locationE
FNDA:0,_ZN4xlnt13header_footer15odd_even_headerENS0_8locationERKNS_9rich_textES4_
FNDA:0,_ZN4xlnt13header_footer17first_page_headerENS0_8locationERKNS_9rich_textE
FNF:48
FNH:21
DA:30,0
DA:32,0
DA:35,0
DA:37,0
DA:40,1
DA:42,1
DA:45,18
DA:47,18
DA:48,18
DA:51,28
DA:53,28
DA:56,22
DA:58,22
DA:61,1
DA:63,1
DA:66,18
DA:68,18
DA:69,18
DA:74,27
DA:76,27
DA:79,0
DA:81,0
DA:82,0
DA:83,0
DA:84,0
DA:86,3
DA:88,3
DA:89,3
DA:90,3
DA:91,3
DA:93,3
DA:95,3
DA:98,27
DA:100,27
DA:101,27
DA:104,14
DA:106,14
DA:111,0
DA:113,0
DA:116,19
DA:118,19
DA:121,0
DA:123,0
DA:124,0
DA:126,0
DA:128,0
DA:129,0
DA:131,0
DA:133,0
DA:134,0
DA:137,0
DA:139,0
DA:144,0
DA:146,0
DA:149,6
DA:151,6
DA:154,0
DA:156,0
DA:157,0
DA:158,0
DA:159,0
DA:161,0
DA:163,0
DA:164,0
DA:165,0
DA:167,0
DA:169,0
DA:170,0
DA:171,0
DA:173,0
DA:176,0
DA:178,0
DA:181,0
DA:183,0
DA:188,27
DA:190,27
DA:193,0
DA:195,0
DA:196,0
DA:197,0
DA:198,0
DA:200,3
DA:202,3
DA:203,3
DA:204,3
DA:205,3
DA:207,3
DA:209,3
DA:212,29
DA:214,29
DA:215,29
DA:218,15
DA:220,15
DA:225,0
DA:227,0
DA:230,6
DA:232,6
DA:235,0
DA:237,0
DA:238,0
DA:240,0
DA:242,0
DA:243,0
DA:245,0
DA:247,0
DA:248,0
DA:251,0
DA:253,0
DA:258,0
DA:260,0
DA:263,6
DA:265,6
DA:268,0
DA:270,0
DA:271,0
DA:272,0
DA:274,0
DA:276,0
DA:277,0
DA:278,0
DA:280,0
DA:282,0
DA:283,0
DA:284,0
DA:286,0
DA:289,0
DA:291,0
DA:294,0
DA:296,0
DA:299,6
DA:301,6
DA:302,6
DA:303,6
DA:304,6
DA:305,6
DA:306,6
DA:307,6
DA:308,6
DA:309,12
DA:312,0
DA:314,0
LF:141
LH:60
end_of_record
TN:
SF:/root/project/source/worksheet/page_margins.cpp
FN:30,_ZN4xlnt12page_marginsC2Ev
FN:34,_ZNK4xlnt12page_margins3topEv
FN:39,_ZN4xlnt12page_margins3topEd
FN:44,_ZNK4xlnt12page_margins4leftEv
FN:49,_ZN4xlnt12page_margins4leftEd
FN:54,_ZNK4xlnt12page_margins6bottomEv
FN:59,_ZN4xlnt12page_margins6bottomEd
FN:64,_ZNK4xlnt12page_margins5rightEv
FN:69,_ZN4xlnt12page_margins5rightEd
FN:74,_ZNK4xlnt12page_margins6headerEv
FN:79,_ZN4xlnt12page_margins6headerEd
FN:84,_ZNK4xlnt12page_margins6footerEv
FN:89,_ZN4xlnt12page_margins6footerEd
FN:94,_ZNK4xlnt12page_marginseqERKS0_
FN:103,_ZNK4xlnt12page_marginsneERKS0_
FNDA:50,_ZNK4xlnt12page_margins6footerEv
FNDA:50,_ZNK4xlnt12page_margins4leftEv
FNDA:353,_ZN4xlnt12page_margins5rightEd
FNDA:50,_ZNK4xlnt12page_margins6headerEv
FNDA:353,_ZN4xlnt12page_margins3topEd
FNDA:50,_ZNK4xlnt12page_margins3topEv
FNDA:353,_ZN4xlnt12page_margins6footerEd
FNDA:8,_ZNK4xlnt12page_marginseqERKS0_
FNDA:50,_ZNK4xlnt12page_margins6bottomEv
FNDA:353,_ZN4xlnt12page_margins6bottomEd
FNDA:353,_ZN4xlnt12page_margins6headerEd
FNDA:352,_ZN4xlnt12page_marginsC2Ev
FNDA:353,_ZN4xlnt12page_margins4leftEd
FNDA:50,_ZNK4xlnt12page_margins5rightEv
FNDA:0,_ZNK4xlnt12page_marginsneERKS0_
FNF:15
FNH:14
DA:30,352
DA:32,352
DA:34,50
DA:36,50
DA:39,353
DA:41,353
DA:42,353
DA:44,50
DA:46,50
DA:49,353
DA:51,353
DA:52,353
DA:54,50
DA:56,50
DA:59,353
DA:61,353
DA:62,353
DA:64,50
DA:66,50
DA:69,353
DA:71,353
DA:72,353
DA:74,50
DA:76,50
DA:79,353
DA:81,353
DA:82,353
DA:84,50
DA:86,50
DA:89,353
DA:91,353
DA:92,353
DA:94,8
DA:96,8
DA:97,8
DA:98,8
DA:99,8
DA:100,16
DA:103,0
DA:105,0
LF:40
LH:38
end_of_record
TN:
SF:/root/project/source/worksheet/page_setup.cpp
FN:30,_ZN4xlnt10page_setupC2Ev
FN:39,_ZNK4xlnt10page_setup10page_breakEv
FN:44,_ZN4xlnt10page_setup10page_breakENS_10page_breakE
FN:49,_ZNK4xlnt10page_setup11sheet_stateEv
FN:54,_ZN4xlnt10page_setup11sheet_stateENS_11sheet_stateE
FN:59,_ZNK4xlnt10page_setup10paper_sizeEv
FN:64,_ZN4xlnt10page_setup10paper_sizeENS_10paper_sizeE
FN:69,_ZNK4xlnt10page_setup14has_paper_sizeEv
FN:74,_ZNK4xlnt10page_setup11fit_to_pageEv
FN:79,_ZN4xlnt10page_setup11fit_to_pageEb
FN:84,_ZNK4xlnt10page_setup13fit_to_heightEv
FN:89,_ZN4xlnt10page_setup13fit_to_heightEb
FN:94,_ZNK4xlnt10page_setup12fit_to_widthEv
FN:99,_ZN4xlnt10page_setup12fit_to_widthEb
FN:104,_ZN4xlnt10page_setup5scaleEd
FN:109,_ZNK4xlnt10page_setup5scaleEv
FN:114,_ZNK4xlnt10page_setup9has_scaleEv
FN:119,_ZNK4xlnt10page_setup6rel_idB5cxx11Ev
FN:124,_ZN4xlnt10page_setup6rel_idERKNSt7__cxx1112basic_stringIcSt11char_traitsIcESaIcEEE
FN:129,_ZNK4xlnt10page_setup10has_rel_idEv
FN:134,_ZNK4xlnt10page_setupeqERKS0_
FN:147,_ZNK4xlnt10page_setupneERKS0_
FNDA:8,_ZNK4xlnt10page_setup10has_rel_idEv
FNDA:1,_ZNK4xlnt10page_setup10page_breakEv
FNDA:14,_ZN4xlnt10page_setup5scaleEd
FNDA:8,_ZNK4xlnt10page_setup9has_scaleEv
FNDA:1,_ZN4xlnt10page_setup10page_breakENS_10page_breakE
FNDA:6,_ZNK4xlnt10page_setupeqERKS0_
FNDA:0,_ZN4xlnt10page_setup11sheet_stateENS_11sheet_stateE
FNDA:1,_ZN4xlnt10page_setup12fit_to_widthEb
FNDA:6,_ZNK4xlnt10page_setup11fit_to_pageEv
FNDA:16,_ZNK4xlnt10page_setup11sheet_stateEv
FNDA:18,_ZN4xlnt10page_setup10paper_sizeENS_10paper_sizeE
FNDA:1,_ZNK4xlnt10page_setup6rel_idB5cxx11Ev
FNDA:5,_ZN4xlnt10page_setup6rel_idERKNSt7__cxx1112basic_stringIcSt11char_traitsIcESaIcEEE
FNDA:9,_ZNK4xlnt10page_setup14has_paper_sizeEv
FNDA:2,_ZNK4xlnt10page_setup13fit_to_heightEv
FNDA:27,_ZN4xlnt10page_setupC2Ev
FNDA:3,_ZNK4xlnt10page_setup5scaleEv
FNDA:4,_ZNK4xlnt10page_setup10paper_sizeEv
FNDA:0,_ZNK4xlnt10page_setupneERKS0_
FNDA:2,_ZNK4xlnt10page_setup12fit_to_widthEv
FNDA:1,_ZN4xlnt10page_setup11fit_to_pageEb
FNDA:1,_ZN4xlnt10page_setup13fit_to_heightEb
FNF:22
FNH:20
DA:30,27
DA:31,27
DA:32,27
DA:33,27
DA:34,27
DA:35,27
DA:37,27
DA:39,1
DA:41,1
DA:44,1
DA:46,1
DA:47,1
DA:49,16
DA:51,16
DA:54,0
DA:56,0
DA:57,0
DA:59,4
DA:61,4
DA:64,18
DA:66,18
DA:67,18
DA:69,9
DA:71,9
DA:74,6
DA:76,6
DA:79,1
DA:81,1
DA:82,1
DA:84,2
DA:86,2
DA:89,1
DA:91,1
DA:92,1
DA:94,2
DA:96,2
DA:99,1
DA:101,1
DA:102,1
DA:104,14
DA:106,14
DA:107,14
DA:109,3
DA:111,3
DA:114,8
DA:116,8
DA:119,1
DA:121,1
DA:124,5
DA:126,5
DA:127,5
DA:129,8
DA:131,8
DA:134,6
DA:136,6
DA:137,6
DA:138,6
DA:139,6
DA:140,6
DA:141,6
DA:142,6
DA:143,6
DA:144,12
DA:147,0
DA:149,0
LF:65
LH:60
end_of_record
TN:
SF:/root/project/source/worksheet/phonetic_pr.cpp
FN:29,_ZN12_GLOBAL__N_15TypesEv
FN:40,_ZN12_GLOBAL__N_110AlignmentsEv
FN:56,_ZN4xlnt11phonetic_pr13Serialised_IDB5cxx11Ev
FN:61,_ZN4xlnt11phonetic_prC2Ej
FN:66,_ZNK4xlnt11phonetic_pr9serialiseERSo
FN:80,_ZNK4xlnt11phonetic_pr7font_idEv
FN:85,_ZN4xlnt11phonetic_pr7font_idEj
FN:90,_ZNK4xlnt11phonetic_pr8has_typeEv
FN:95,_ZNK4xlnt11phonetic_pr4typeEv
FN:100,_ZN4xlnt11phonetic_pr4typeENS0_13phonetic_typeE
FN:105,_ZNK4xlnt11phonetic_pr13has_alignmentEv
FN:110,_ZNK4xlnt11phonetic_pr9alignmentEv
FN:115,_ZN4xlnt11phonetic_pr9alignmentENS0_5alignE
FN:121,_ZN4xlnt11phonetic_pr14type_as_stringB5cxx11ENS0_13phonetic_typeE
FN:126,_ZN4xlnt11phonetic_pr16type_from_stringERKNSt7__cxx1112basic_stringIcSt11char_traitsIcESaIcEEE
FN:138,_ZN4xlnt11phonetic_pr19alignment_as_stringB5cxx11ENS0_5alignE
FN:143,_ZN4xlnt11phonetic_pr21alignment_from_stringERKNSt7__cxx1112basic_stringIcSt11char_traitsIcESaIcEEE
FN:155,_ZNK4xlnt11phonetic_preqERKS0_
FN:162,_ZNK4xlnt11phonetic_prneERKS0_
FNDA:5,_ZN4xlnt11phonetic_pr14type_as_stringB5cxx11ENS0_13phonetic_typeE
FNDA:5,_ZNK4xlnt11phonetic_pr4typeEv
FNDA:8,_ZNK4xlnt11phonetic_pr8has_typeEv
FNDA:1,_ZN4xlnt11phonetic_pr9alignmentENS0_5alignE
FNDA:7,_ZNK4xlnt11phonetic_pr7font_idEv
FNDA:1,_ZN4xlnt11phonetic_pr21alignment_from_stringERKNSt7__cxx1112basic_stringIcSt11char_traitsIcESaIcEEE
FNDA:8,_ZN4xlnt11phonetic_pr13Serialised_IDB5cxx11Ev
FNDA:43,_ZN4xlnt11phonetic_pr16type_from_stringERKNSt7__cxx1112basic_stringIcSt11char_traitsIcESaIcEEE
FNDA:0,_ZN4xlnt11phonetic_pr7font_idEj
FNDA:0,_ZNK4xlnt11phonetic_pr9alignmentEv
FNDA:2,_ZN12_GLOBAL__N_110AlignmentsEv
FNDA:0,_ZNK4xlnt11phonetic_pr9serialiseERSo
FNDA:8,_ZNK4xlnt11phonetic_pr13has_alignmentEv
FNDA:0,_ZNK4xlnt11phonetic_prneERKS0_
FNDA:0,_ZN4xlnt11phonetic_pr19alignment_as_stringB5cxx11ENS0_5alignE
FNDA:2,_ZNK4xlnt11phonetic_preqERKS0_
FNDA:47,_ZN4xlnt11phonetic_prC2Ej
FNDA:343,_ZN12_GLOBAL__N_15TypesEv
FNDA:43,_ZN4xlnt11phonetic_pr4typeENS0_13phonetic_typeE
FNF:19
FNH:14
DA:29,343
DA:32,1
DA:35,344
DA:36,343
DA:40,2
DA:46,2
DA:47,2
DA:56,8
DA:58,16
DA:61,47
DA:62,47
DA:64,47
DA:66,0
DA:68,0
DA:69,0
DA:71,0
DA:73,0
DA:75,0
DA:77,0
DA:78,0
DA:80,7
DA:82,7
DA:85,0
DA:87,0
DA:88,0
DA:90,8
DA:92,8
DA:95,5
DA:97,5
DA:100,43
DA:102,43
DA:103,43
DA:105,8
DA:107,8
DA:110,0
DA:112,0
DA:115,1
DA:117,1
DA:118,1
DA:121,5
DA:123,5
DA:126,43
DA:128,338
DA:130,169
DA:132,43
DA:135,0
DA:138,0
DA:140,0
DA:143,1
DA:145,2
DA:147,1
DA:149,1
DA:152,0
DA:155,2
DA:157,2
DA:158,2
DA:159,4
DA:162,0
DA:164,0
LF:59
LH:40
end_of_record
TN:
SF:/root/project/source/worksheet/range.cpp
FN:35,_ZN4xlnt5rangeC2ENS_9worksheetERKNS_15range_referenceENS_11major_orderEb
FN:43,_ZN4xlnt5rangeD2Ev
FN:45,_ZN4xlnt5range11clear_cellsEv
FN:67,_ZN4xlnt5rangeixEm
FN:72,_ZNK4xlnt5rangeixEm
FN:77,_ZNK4xlnt5range16target_worksheetEv
FN:82,_ZNK4xlnt5range9referenceEv
FN:87,_ZNK4xlnt5range6lengthEv
FN:97,_ZNK4xlnt5rangeeqERKS0_
FN:104,_ZN4xlnt5range6vectorEm
FN:120,_ZNK4xlnt5range6vectorEm
FN:136,_ZN4xlnt5range8containsERKNS_14cell_referenceE
FN:141,_ZN4xlnt5range9alignmentERKNS_9alignmentE
FN:143,_ZZN4xlnt5range9alignmentERKNS_9alignmentEENKUlNS_4cellEE_clES4_
FN:147,_ZN4xlnt5range6borderERKNS_6borderE
FN:149,_ZZN4xlnt5range6borderERKNS_6borderEENKUlNS_4cellEE_clES4_
FN:153,_ZN4xlnt5range4fillERKNS_4fillE
FN:155,_ZZN4xlnt5range4fillERKNS_4fillEENKUlNS_4cellEE_clES4_
FN:159,_ZN4xlnt5range4fontERKNS_4fontE
FN:161,_ZZN4xlnt5range4fontERKNS_4fontEENKUlNS_4cellEE_clES4_
FN:165,_ZN4xlnt5range13number_formatERKNS_13number_formatE
FN:167,_ZZN4xlnt5range13number_formatERKNS_13number_formatEENKUlNS_4cellEE_clES4_
FN:171,_ZN4xlnt5range10protectionERKNS_10protectionE
FN:173,_ZZN4xlnt5range10protectionERKNS_10protectionEENKUlNS_4cellEE_clES4_
FN:177,_ZN4xlnt5range5styleERKNS_5styleE
FN:179,_ZZN4xlnt5range5styleERKNS_5styleEENKUlNS_4cellEE_clES4_
FN:183,_ZN4xlnt5range5styleERKNSt7__cxx1112basic_stringIcSt11char_traitsIcESaIcEEE
FN:188,_ZN4xlnt5range18conditional_formatERKNS_9conditionE
FN:193,_ZN4xlnt5range5applyESt8functionIFvNS_4cellEEE
FN:204,_ZN4xlnt5range4cellERKNS_14cell_referenceE
FN:209,_ZNK4xlnt5range4cellERKNS_14cell_referenceE
FN:214,_ZN4xlnt5range5frontEv
FN:219,_ZNK4xlnt5range5frontEv
FN:224,_ZN4xlnt5range4backEv
FN:229,_ZNK4xlnt5range4backEv
FN:234,_ZN4xlnt5range5beginEv
FN:239,_ZN4xlnt5range3endEv
FN:255,_ZNK4xlnt5range6cbeginEv
FN:260,_ZNK4xlnt5range4cendEv
FN:276,_ZNK4xlnt5rangeneERKS0_
FN:281,_ZNK4xlnt5range5beginEv
FN:286,_ZNK4xlnt5range3endEv
FN:291,_ZN4xlnt5range6rbeginEv
FN:296,_ZN4xlnt5range4rendEv
FN:301,_ZNK4xlnt5range7crbeginEv
FN:306,_ZNK4xlnt5range6rbeginEv
FN:311,_ZNK4xlnt5range5crendEv
FN:316,_ZNK4xlnt5range4rendEv
FNDA:1,_ZNK4xlnt5rangeneERKS0_
FNDA:4,_ZN4xlnt5range8containsERKNS_14cell_referenceE
FNDA:9,_ZNK4xlnt5range5crendEv
FNDA:8,_ZNK4xlnt5rangeeqERKS0_
FNDA:0,_ZZN4xlnt5range6borderERKNS_6borderEENKUlNS_4cellEE_clES4_
FNDA:0,_ZNK4xlnt5range4cellERKNS_14cell_referenceE
FNDA:0,_ZZN4xlnt5range13number_formatERKNS_13number_formatEENKUlNS_4cellEE_clES4_
FNDA:17,_ZNK4xlnt5range6cbeginEv
FNDA:7,_ZNK4xlnt5range6lengthEv
FNDA:46,_ZN4xlnt5rangeixEm
FNDA:4,_ZNK4xlnt5range7crbeginEv
FNDA:0,_ZN4xlnt5range6borderERKNS_6borderE
FNDA:1,_ZNK4xlnt5range5frontEv
FNDA:11,_ZNK4xlnt5range9referenceEv
FNDA:2,_ZN4xlnt5range4fontERKNS_4fontE
FNDA:10,_ZNK4xlnt5range4cendEv
FNDA:0,_ZN4xlnt5range5styleERKNSt7__cxx1112basic_stringIcSt11char_traitsIcESaIcEEE
FNDA:4,_ZN4xlnt5range4backEv
FNDA:2,_ZN4xlnt5range6rbeginEv
FNDA:0,_ZN4xlnt5range5styleERKNS_5styleE
FNDA:0,_ZN4xlnt5range10protectionERKNS_10protectionE
FNDA:0,_ZN4xlnt5range13number_formatERKNS_13number_formatE
FNDA:54,_ZN4xlnt5range3endEv
FNDA:0,_ZN4xlnt5range9alignmentERKNS_9alignmentE
FNDA:2,_ZN4xlnt5range5applyESt8functionIFvNS_4cellEEE
FNDA:46,_ZN4xlnt5range6vectorEm
FNDA:2,_ZNK4xlnt5range6rbeginEv
FNDA:4,_ZN4xlnt5range5frontEv
FNDA:116,_ZN4xlnt5rangeD2Ev
FNDA:4,_ZNK4xlnt5range5beginEv
FNDA:1,_ZN4xlnt5range4cellERKNS_14cell_referenceE
FNDA:58,_ZN4xlnt5range5beginEv
FNDA:20,_ZZN4xlnt5range4fontERKNS_4fontEENKUlNS_4cellEE_clES4_
FNDA:4,_ZNK4xlnt5range16target_worksheetEv
FNDA:0,_ZZN4xlnt5range9alignmentERKNS_9alignmentEENKUlNS_4cellEE_clES4_
FNDA:0,_ZZN4xlnt5range5styleERKNS_5styleEENKUlNS_4cellEE_clES4_
FNDA:0,_ZNK4xlnt5rangeixEm
FNDA:110,_ZN4xlnt5rangeC2ENS_9worksheetERKNS_15range_referenceENS_11major_orderEb
FNDA:0,_ZNK4xlnt5range6vectorEm
FNDA:1,_ZN4xlnt5range11clear_cellsEv
FNDA:0,_ZZN4xlnt5range4fillERKNS_4fillEENKUlNS_4cellEE_clES4_
FNDA:0,_ZZN4xlnt5range10protectionERKNS_10protectionEENKUlNS_4cellEE_clES4_
FNDA:3,_ZNK4xlnt5range3endEv
FNDA:4,_ZNK4xlnt5range4rendEv
FNDA:0,_ZN4xlnt5range18conditional_formatERKNS_9conditionE
FNDA:1,_ZNK4xlnt5range4backEv
FNDA:5,_ZN4xlnt5range4rendEv
FNDA:0,_ZN4xlnt5range4fillERKNS_4fillE
FNF:48
FNH:31
DA:35,110
DA:36,110
DA:37,110
DA:38,110
DA:39,110
DA:41,110
DA:43,116
DA:45,1
DA:47,1
DA:48,1
DA:50,0
DA:52,0
DA:57,4
DA:59,9
DA:61,6
DA:65,1
DA:67,46
DA:69,46
DA:72,0
DA:74,0
DA:77,4
DA:79,4
DA:82,11
DA:84,11
DA:87,7
DA:89,7
DA:91,4
DA:94,3
DA:97,8
DA:99,8
DA:100,7
DA:101,15
DA:104,46
DA:106,46
DA:108,46
DA:110,37
DA:114,9
DA:117,46
DA:120,0
DA:122,0
DA:124,0
DA:126,0
DA:130,0
DA:133,0
DA:136,4
DA:138,4
DA:141,0
DA:143,0
DA:144,0
DA:147,0
DA:149,0
DA:150,0
DA:153,0
DA:155,0
DA:156,0
DA:159,2
DA:161,22
DA:162,2
DA:165,0
DA:167,0
DA:168,0
DA:171,0
DA:173,0
DA:174,0
DA:177,0
DA:179,0
DA:180,0
DA:183,0
DA:185,0
DA:188,0
DA:190,0
DA:193,2
DA:195,24
DA:197,51
DA:199,20
DA:202,2
DA:204,1
DA:206,1
DA:209,0
DA:211,0
DA:214,4
DA:216,4
DA:219,1
DA:221,1
DA:224,4
DA:226,4
DA:229,1
DA:231,1
DA:234,58
DA:236,116
DA:239,54
DA:241,54
DA:243,54
DA:245,48
DA:249,6
DA:252,108
DA:255,17
DA:257,34
DA:260,10
DA:262,10
DA:264,10
DA:266,6
DA:270,4
DA:273,20
DA:276,1
DA:278,1
DA:281,4
DA:283,4
DA:286,3
DA:288,3
DA:291,2
DA:293,2
DA:296,5
DA:298,5
DA:301,4
DA:303,4
DA:306,2
DA:308,2
DA:311,9
DA:313,9
DA:316,4
DA:318,4
LF:122
LH:88
end_of_record
TN:
SF:/root/project/source/worksheet/range_iterator.cpp
FN:32,_ZN4xlnt14range_iteratordeEv
FN:37,_ZNK4xlnt14range_iteratordeEv
FN:42,_ZN4xlnt14range_iteratorC2ERNS_9worksheetERKNS_14cell_referenceERKNS_15range_referenceENS_11major_orderEb
FN:56,_ZNK4xlnt14range_iteratoreqERKS0_
FN:64,_ZNK4xlnt14range_iteratorneERKS0_
FN:69,_ZN4xlnt14range_iteratormmEv
FN:105,_ZN4xlnt14range_iteratormmEi
FN:113,_ZN4xlnt14range_iteratorppEv
FN:149,_ZN4xlnt14range_iteratorppEi
FN:157,_ZN4xlnt20const_range_iteratorC2ERKNS_9worksheetERKNS_14cell_referenceERKNS_15range_referenceENS_11major_orderEb
FN:171,_ZNK4xlnt20const_range_iteratoreqERKS0_
FN:179,_ZNK4xlnt20const_range_iteratorneERKS0_
FN:184,_ZN4xlnt20const_range_iteratormmEv
FN:220,_ZN4xlnt20const_range_iteratormmEi
FN:228,_ZN4xlnt20const_range_iteratorppEv
FN:264,_ZN4xlnt20const_range_iteratorppEi
FN:272,_ZNK4xlnt20const_range_iteratordeEv
FNDA:1,_ZN4xlnt20const_range_iteratorppEi
FNDA:22,_ZNK4xlnt20const_range_iteratoreqERKS0_
FNDA:1,_ZN4xlnt20const_range_iteratormmEi
FNDA:254,_ZNK4xlnt14range_iteratoreqERKS0_
FNDA:415,_ZN4xlnt14range_iteratordeEv
FNDA:14,_ZN4xlnt14range_iteratormmEv
FNDA:112,_ZN4xlnt14range_iteratorC2ERNS_9worksheetERKNS_14cell_referenceERKNS_15range_referenceENS_11major_orderEb
FNDA:13,_ZNK4xlnt20const_range_iteratorneERKS0_
FNDA:17,_ZN4xlnt20const_range_iteratormmEv
FNDA:0,_ZNK4xlnt14range_iteratordeEv
FNDA:1,_ZN4xlnt14range_iteratormmEi
FNDA:22,_ZN4xlnt20const_range_iteratorppEv
FNDA:91,_ZNK4xlnt20const_range_iteratordeEv
FNDA:1,_ZN4xlnt14range_iteratorppEi
FNDA:230,_ZN4xlnt14range_iteratorppEv
FNDA:27,_ZN4xlnt20const_range_iteratorC2ERKNS_9worksheetERKNS_14cell_referenceERKNS_15range_referenceENS_11major_orderEb
FNDA:249,_ZNK4xlnt14range_iteratorneERKS0_
FNF:17
FNH:16
DA:32,415
DA:34,415
DA:37,0
DA:39,0
DA:42,112
DA:43,112
DA:44,112
DA:45,112
DA:46,112
DA:47,112
DA:48,112
DA:50,112
DA:52,25
DA:54,112
DA:56,254
DA:58,254
DA:59,254
DA:60,48
DA:61,508
DA:64,249
DA:66,249
DA:69,14
DA:71,14
DA:73,3
DA:75,3
DA:78,3
DA:80,0
DA:82,0
DA:88,11
DA:90,11
DA:93,11
DA:95,9
DA:97,0
DA:102,14
DA:105,1
DA:107,1
DA:108,1
DA:110,1
DA:113,230
DA:115,230
DA:117,222
DA:119,201
DA:122,222
DA:124,123
DA:126,7
DA:132,8
DA:134,4
DA:137,8
DA:139,8
DA:141,0
DA:146,230
DA:149,1
DA:151,1
DA:152,1
DA:154,1
DA:157,27
DA:158,27
DA:159,27
DA:160,27
DA:161,27
DA:162,27
DA:163,27
DA:165,27
DA:167,10
DA:169,27
DA:171,22
DA:173,22
DA:174,22
DA:175,8
DA:176,44
DA:179,13
DA:181,13
DA:184,17
DA:186,17
DA:188,8
DA:190,8
DA:193,8
DA:195,7
DA:197,0
DA:203,9
DA:205,9
DA:208,9
DA:210,9
DA:212,0
DA:217,17
DA:220,1
DA:222,1
DA:223,1
DA:225,1
DA:228,22
DA:230,22
DA:232,14
DA:234,8
DA:237,14
DA:239,20
DA:241,7
DA:247,8
DA:249,4
DA:252,8
DA:254,8
DA:256,0
DA:261,22
DA:264,1
DA:266,1
DA:267,1
DA:269,1
DA:272,91
DA:274,91
LF:108
LH:99
end_of_record
TN:
SF:/root/project/source/worksheet/range_reference.cpp
FN:29,_ZN4xlnt15range_reference13make_absoluteERKS0_
FN:39,_ZN4xlnt15range_referenceC2Ev
FN:44,_ZN4xlnt15range_referenceC2EPKc
FN:49,_ZN4xlnt15range_referenceC2ERKNSt7__cxx1112basic_stringIcSt11char_traitsIcESaIcEEE
FN:66,_ZN4xlnt15range_referenceC2ERKNS_14cell_referenceES3_
FN:73,_ZN4xlnt15range_referenceC2ENS_8column_tEjS1_j
FN:82,_ZNK4xlnt15range_reference11make_offsetEii
FN:90,_ZNK4xlnt15range_reference6heightEv
FN:95,_ZNK4xlnt15range_reference5widthEv
FN:100,_ZNK4xlnt15range_reference14is_single_cellEv
FN:105,_ZNK4xlnt15range_reference9to_stringB5cxx11Ev
FN:113,_ZNK4xlnt15range_referenceeqERKS0_
FN:118,_ZNK4xlnt15range_referenceneERKS0_
FN:123,_ZNK4xlnt15range_reference8top_leftEv
FN:128,_ZNK4xlnt15range_reference9top_rightEv
FN:133,_ZNK4xlnt15range_reference11bottom_leftEv
FN:138,_ZNK4xlnt15range_reference12bottom_rightEv
FN:143,_ZNK4xlnt15range_reference8containsERKNS_14cell_referenceE
FN:151,_ZNK4xlnt15range_referenceeqERKNSt7__cxx1112basic_stringIcSt11char_traitsIcESaIcEEE
FN:156,_ZNK4xlnt15range_referenceeqEPKc
FN:161,_ZNK4xlnt15range_referenceneERKNSt7__cxx1112basic_stringIcSt11char_traitsIcESaIcEEE
FN:166,_ZNK4xlnt15range_referenceneEPKc
FN:171,_ZN4xlnteqERKNSt7__cxx1112basic_stringIcSt11char_traitsIcESaIcEEERKNS_15range_referenceE
FN:176,_ZN4xlnteqEPKcRKNS_15range_referenceE
FN:181,_ZN4xlntneERKNSt7__cxx1112basic_stringIcSt11char_traitsIcESaIcEEERKNS_15range_referenceE
FN:186,_ZN4xlntneEPKcRKNS_15range_referenceE
FNDA:5,_ZNK4xlnt15range_referenceneERKNSt7__cxx1112basic_stringIcSt11char_traitsIcESaIcEEE
FNDA:0,_ZNK4xlnt15range_reference9top_rightEv
FNDA:64117,_ZNK4xlnt15range_reference12bottom_rightEv
FNDA:32,_ZNK4xlnt15range_referenceeqERKNSt7__cxx1112basic_stringIcSt11char_traitsIcESaIcEEE
FNDA:108,_ZNK4xlnt15range_reference5widthEv
FNDA:194,_ZN4xlnt15range_referenceC2ERKNSt7__cxx1112basic_stringIcSt11char_traitsIcESaIcEEE
FNDA:428,_ZNK4xlnt15range_referenceeqERKS0_
FNDA:73,_ZNK4xlnt15range_reference6heightEv
FNDA:5,_ZN4xlnt15range_reference13make_absoluteERKS0_
FNDA:101,_ZNK4xlnt15range_reference9to_stringB5cxx11Ev
FNDA:104,_ZNK4xlnt15range_reference14is_single_cellEv
FNDA:3,_ZNK4xlnt15range_referenceneEPKc
FNDA:1,_ZN4xlnteqERKNSt7__cxx1112basic_stringIcSt11char_traitsIcESaIcEEERKNS_15range_referenceE
FNDA:13,_ZN4xlnteqEPKcRKNS_15range_referenceE
FNDA:1,_ZN4xlntneERKNSt7__cxx1112basic_stringIcSt11char_traitsIcESaIcEEERKNS_15range_referenceE
FNDA:30,_ZN4xlnt15range_referenceC2EPKc
FNDA:1,_ZN4xlntneEPKcRKNS_15range_referenceE
FNDA:30,_ZNK4xlnt15range_referenceeqEPKc
FNDA:9,_ZN4xlnt15range_referenceC2Ev
FNDA:6667,_ZNK4xlnt15range_reference8top_leftEv
FNDA:0,_ZNK4xlnt15range_reference11bottom_leftEv
FNDA:177,_ZN4xlnt15range_referenceC2ENS_8column_tEjS1_j
FNDA:4,_ZNK4xlnt15range_reference8containsERKNS_14cell_referenceE
FNDA:30,_ZNK4xlnt15range_referenceneERKS0_
FNDA:0,_ZNK4xlnt15range_reference11make_offsetEii
FNDA:45,_ZN4xlnt15range_referenceC2ERKNS_14cell_referenceES3_
FNF:26
FNH:23
DA:29,5
DA:31,5
DA:33,5
DA:34,5
DA:36,5
DA:39,9
DA:40,9
DA:42,9
DA:44,30
DA:45,30
DA:47,30
DA:49,194
DA:50,194
DA:52,194
DA:54,194
DA:56,94
DA:57,94
DA:61,100
DA:62,100
DA:64,194
DA:66,45
DA:67,45
DA:68,45
DA:69,45
DA:71,45
DA:73,177
DA:76,177
DA:77,177
DA:78,177
DA:80,177
DA:82,0
DA:84,0
DA:85,0
DA:87,0
DA:90,73
DA:92,73
DA:95,108
DA:97,108
DA:100,104
DA:102,104
DA:105,101
DA:107,101
DA:108,53
DA:110,48
DA:113,428
DA:115,428
DA:118,30
DA:120,30
DA:123,6667
DA:125,6667
DA:128,0
DA:130,0
DA:133,0
DA:135,0
DA:138,64117
DA:140,64117
DA:143,4
DA:145,4
DA:146,4
DA:147,3
DA:148,8
DA:151,32
DA:153,32
DA:156,30
DA:158,60
DA:161,5
DA:163,5
DA:166,3
DA:168,6
DA:171,1
DA:173,1
DA:176,13
DA:178,13
DA:181,1
DA:183,1
DA:186,1
DA:188,1
LF:77
LH:69
end_of_record
TN:
SF:/root/project/source/worksheet/selection.cpp
FN:30,_ZN4xlnt9selection5sqrefERKNSt7__cxx1112basic_stringIcSt11char_traitsIcESaIcEEE
FNDA:66,_ZN4xlnt9selection5sqrefERKNSt7__cxx1112basic_stringIcSt11char_traitsIcESaIcEEE
FNF:1
FNH:1
DA:30,66
DA:32,66
DA:33,141
DA:34,141
DA:35,66
LF:5
LH:5
end_of_record
TN:
SF:/root/project/source/worksheet/worksheet.cpp
FN:57,_ZN12_GLOBAL__N_116points_to_pixelsEdd
FN:66,_ZN4xlnt9worksheetC2Ev
FN:71,_ZN4xlnt9worksheetC2EPNS_6detail14worksheet_implE
FN:76,_ZN4xlnt9worksheetC2ERKS0_
FN:81,_ZNK4xlnt9worksheet16has_frozen_panesEv
FN:88,_ZN4xlnt9worksheet18create_named_rangeERKNSt7__cxx1112basic_stringIcSt11char_traitsIcESaIcEEES8_
FN:93,_ZN4xlnt9worksheet18create_named_rangeERKNSt7__cxx1112basic_stringIcSt11char_traitsIcESaIcEEERKNS_15range_referenceE
FN:117,_ZN4xlnt9worksheetixERKNS_14cell_referenceE
FN:122,_ZNK4xlnt9worksheet13merged_rangesEv
FN:127,_ZNK4xlnt9worksheet16has_page_marginsEv
FN:132,_ZNK4xlnt9worksheet14has_page_setupEv
FN:137,_ZNK4xlnt9worksheet12page_marginsEv
FN:142,_ZN4xlnt9worksheet12page_marginsERKNS_12page_marginsE
FN:147,_ZN4xlnt9worksheet11auto_filterERKNSt7__cxx1112basic_stringIcSt11char_traitsIcESaIcEEE
FN:152,_ZN4xlnt9worksheet11auto_filterERKNS_15range_referenceE
FN:157,_ZN4xlnt9worksheet11auto_filterERKNS_5rangeE
FN:162,_ZNK4xlnt9worksheet11auto_filterEv
FN:167,_ZNK4xlnt9worksheet15has_auto_filterEv
FN:172,_ZN4xlnt9worksheet17clear_auto_filterEv
FN:177,_ZN4xlnt9worksheet10page_setupERKNS_10page_setupE
FN:182,_ZNK4xlnt9worksheet10page_setupEv
FN:192,_ZN4xlnt9worksheet8workbookEv
FN:197,_ZNK4xlnt9worksheet8workbookEv
FN:202,_ZN4xlnt9worksheet15garbage_collectEv
FN:219,_ZN4xlnt9worksheet2idEm
FN:224,_ZNK4xlnt9worksheet2idEv
FN:229,_ZNK4xlnt9worksheet5titleB5cxx11Ev
FN:234,_ZN4xlnt9worksheet5titleERKNSt7__cxx1112basic_stringIcSt11char_traitsIcESaIcEEE
FN:267,_ZNK4xlnt9worksheet12frozen_panesEv
FN:277,_ZN4xlnt9worksheet12freeze_panesENS_4cellE
FN:282,_ZN4xlnt9worksheet12freeze_panesERKNS_14cell_referenceE
FN:327,_ZN4xlnt9worksheet14unfreeze_panesEv
FN:337,_ZN4xlnt9worksheet11active_cellERKNS_14cell_referenceE
FN:356,_ZNK4xlnt9worksheet15has_active_cellEv
FN:366,_ZNK4xlnt9worksheet11active_cellEv
FN:383,_ZN4xlnt9worksheet4cellERKNS_14cell_referenceE
FN:398,_ZNK4xlnt9worksheet4cellERKNS_14cell_referenceE
FN:403,_ZN4xlnt9worksheet4cellENS_8column_tEj
FN:408,_ZNK4xlnt9worksheet4cellENS_8column_tEj
FN:413,_ZNK4xlnt9worksheet8has_cellERKNS_14cell_referenceE
FN:419,_ZNK4xlnt9worksheet18has_row_propertiesEj
FN:424,_ZN4xlnt9worksheet11named_rangeERKNSt7__cxx1112basic_stringIcSt11char_traitsIcESaIcEEE
FN:439,_ZNK4xlnt9worksheet11named_rangeERKNSt7__cxx1112basic_stringIcSt11char_traitsIcESaIcEEE
FN:454,_ZNK4xlnt9worksheet13lowest_columnEv
FN:471,_ZNK4xlnt9worksheet22lowest_column_or_propsEv
FN:488,_ZNK4xlnt9worksheet10lowest_rowEv
FN:505,_ZNK4xlnt9worksheet19lowest_row_or_propsEv
FN:522,_ZNK4xlnt9worksheet11highest_rowEv
FN:534,_ZNK4xlnt9worksheet20highest_row_or_propsEv
FN:551,_ZNK4xlnt9worksheet14highest_columnEv
FN:563,_ZNK4xlnt9worksheet23highest_column_or_propsEv
FN:580,_ZNK4xlnt9worksheet19calculate_dimensionEbb
FN:628,_ZN4xlnt9worksheet5rangeERKNSt7__cxx1112basic_stringIcSt11char_traitsIcESaIcEEE
FN:638,_ZNK4xlnt9worksheet5rangeERKNSt7__cxx1112basic_stringIcSt11char_traitsIcESaIcEEE
FN:648,_ZN4xlnt9worksheet5rangeERKNS_15range_referenceE
FN:653,_ZNK4xlnt9worksheet5rangeERKNS_15range_referenceE
FN:658,_ZN4xlnt9worksheet11merge_cellsERKNSt7__cxx1112basic_stringIcSt11char_traitsIcESaIcEEE
FN:663,_ZN4xlnt9worksheet13unmerge_cellsERKNSt7__cxx1112basic_stringIcSt11char_traitsIcESaIcEEE
FN:668,_ZN4xlnt9worksheet11merge_cellsERKNS_15range_referenceE
FN:696,_ZN4xlnt9worksheet13unmerge_cellsERKNS_15range_referenceE
FN:716,_ZNK4xlnt9worksheet8next_rowEv
FN:728,_ZN4xlnt9worksheet4rowsEb
FN:733,_ZNK4xlnt9worksheet4rowsEb
FN:738,_ZN4xlnt9worksheet7columnsEb
FN:743,_ZNK4xlnt9worksheet7columnsEb
FN:764,_ZN4xlnt9worksheet10clear_cellERKNS_14cell_referenceE
FN:770,_ZN4xlnt9worksheet9clear_rowEj
FN:787,_ZN4xlnt9worksheet11insert_rowsEjj
FN:792,_ZN4xlnt9worksheet14insert_columnsENS_8column_tEj
FN:797,_ZN4xlnt9worksheet11delete_rowsEjj
FN:802,_ZN4xlnt9worksheet14delete_columnsENS_8column_tEj
FN:807,_ZN4xlnt9worksheet10move_cellsEjjNS_12row_or_col_tEb
FN:927,_ZZN4xlnt9worksheet10move_cellsEjjNS_12row_or_col_tEbENKUlRNS_14cell_referenceEE_clES3_
FN:959,_ZNK4xlnt9worksheeteqERKS0_
FN:964,_ZNK4xlnt9worksheet7compareERKS0_b
FN:976,_ZNK4xlnt9worksheetneERKS0_
FN:981,_ZNK4xlnt9worksheeteqEDn
FN:986,_ZNK4xlnt9worksheetneEDn
FN:991,_ZN4xlnt9worksheetaSERKS0_
FN:996,_ZNK4xlnt9worksheetixERKNS_14cell_referenceE
FN:1001,_ZNK4xlnt9worksheet15has_named_rangeERKNSt7__cxx1112basic_stringIcSt11char_traitsIcESaIcEEE
FN:1006,_ZN4xlnt9worksheet18remove_named_rangeERKNSt7__cxx1112basic_stringIcSt11char_traitsIcESaIcEEE
FN:1016,_ZN4xlnt9worksheet7reserveEm
FN:1021,_ZNK4xlnt9worksheet13header_footerEv
FN:1026,_ZNK4xlnt9worksheet9point_posEii
FN:1047,_ZN4xlnt9worksheet11sheet_stateENS_11sheet_stateE
FN:1052,_ZNK4xlnt9worksheet11sheet_stateEv
FN:1057,_ZN4xlnt9worksheet21add_column_propertiesENS_8column_tERKNS_17column_propertiesE
FN:1062,_ZNK4xlnt9worksheet21has_column_propertiesENS_8column_tE
FN:1067,_ZN4xlnt9worksheet17column_propertiesENS_8column_tE
FN:1072,_ZNK4xlnt9worksheet17column_propertiesENS_8column_tE
FN:1077,_ZN4xlnt9worksheet14row_propertiesEj
FN:1082,_ZNK4xlnt9worksheet14row_propertiesEj
FN:1087,_ZN4xlnt9worksheet18add_row_propertiesEjRKNS_14row_propertiesE
FN:1092,_ZN4xlnt9worksheet5beginEv
FN:1097,_ZN4xlnt9worksheet3endEv
FN:1102,_ZNK4xlnt9worksheet6cbeginEv
FN:1107,_ZNK4xlnt9worksheet4cendEv
FN:1112,_ZNK4xlnt9worksheet5beginEv
FN:1117,_ZNK4xlnt9worksheet3endEv
FN:1122,_ZN4xlnt9worksheet16print_title_rowsEjj
FN:1127,_ZNK4xlnt9worksheet16print_title_rowsEv
FN:1132,_ZN4xlnt9worksheet16print_title_colsENS_8column_tES1_
FN:1137,_ZNK4xlnt9worksheet16print_title_colsEv
FN:1142,_ZNK4xlnt9worksheet16has_print_titlesEv
FN:1147,_ZN4xlnt9worksheet18clear_print_titlesEv
FN:1153,_ZN4xlnt9worksheet10print_areaERKNSt7__cxx1112basic_stringIcSt11char_traitsIcESaIcEEE
FN:1158,_ZNK4xlnt9worksheet10print_areaEv
FN:1163,_ZNK4xlnt9worksheet14has_print_areaEv
FN:1168,_ZN4xlnt9worksheet16clear_print_areaEv
FN:1173,_ZNK4xlnt9worksheet8has_viewEv
FN:1178,_ZNK4xlnt9worksheet4viewEm
FN:1183,_ZN4xlnt9worksheet8add_viewERKNS_10sheet_viewE
FN:1188,_ZN4xlnt9worksheet29register_comments_in_manifestEv
FN:1193,_ZN4xlnt9worksheet31register_calc_chain_in_manifestEv
FN:1198,_ZNK4xlnt9worksheet23has_phonetic_propertiesEv
FN:1203,_ZNK4xlnt9worksheet19phonetic_propertiesEv
FN:1208,_ZN4xlnt9worksheet19phonetic_propertiesERKNS_11phonetic_prE
FN:1213,_ZNK4xlnt9worksheet17has_header_footerEv
FN:1218,_ZN4xlnt9worksheet13header_footerERKNS_13header_footerE
FN:1223,_ZN4xlnt9worksheet17clear_page_breaksEv
FN:1229,_ZN4xlnt9worksheet17page_break_at_rowEj
FN:1234,_ZNK4xlnt9worksheet15page_break_rowsEv
FN:1239,_ZN4xlnt9worksheet20page_break_at_columnENS_8column_tE
FN:1244,_ZNK4xlnt9worksheet18page_break_columnsEv
FN:1249,_ZNK4xlnt9worksheet12column_widthENS_8column_tE
FN:1263,_ZNK4xlnt9worksheet10row_heightEj
FN:1277,_ZN4xlnt9worksheet24garbage_collect_formulaeEv
FN:1282,_ZN4xlnt9worksheet6parentERNS_8workbookE
FN:1287,_ZN4xlnt9worksheet18conditional_formatERKNS_15range_referenceERKNS_9conditionE
FN:1292,_ZNK4xlnt9worksheet4pathEv
FN:1298,_ZNK4xlnt9worksheet22referring_relationshipEv
FN:1309,_ZNK4xlnt9worksheet17format_propertiesEv
FN:1314,_ZN4xlnt9worksheet17format_propertiesERKNS_23sheet_format_propertiesE
FN:1319,_ZNK4xlnt9worksheet11has_drawingEv
FN:1324,_ZNK4xlnt9worksheet8is_emptyEv
FNDA:1,_ZNK4xlnt9worksheetneERKS0_
FNDA:56,_ZNK4xlnt9worksheet18page_break_columnsEv
FNDA:2,_ZN4xlnt9worksheet14unfreeze_panesEv
FNDA:0,_ZN4xlnt9worksheet17clear_auto_filterEv
FNDA:9,_ZN4xlnt9worksheet10move_cellsEjjNS_12row_or_col_tEb
FNDA:34,_ZN4xlnt9worksheet29register_comments_in_manifestEv
FNDA:71,_ZNK4xlnt9worksheet10page_setupEv
FNDA:22,_ZN4xlnt9worksheet5rangeERKNSt7__cxx1112basic_stringIcSt11char_traitsIcESaIcEEE
FNDA:2,_ZN4xlnt9worksheet16print_title_rowsEjj
FNDA:6,_ZNK4xlnt9worksheet4rowsEb
FNDA:175,_ZNK4xlnt9worksheet19calculate_dimensionEbb
FNDA:52,_ZN12_GLOBAL__N_116points_to_pixelsEdd
FNDA:56,_ZNK4xlnt9worksheet23has_phonetic_propertiesEv
FNDA:8,_ZN4xlnt9worksheet12freeze_panesERKNS_14cell_referenceE
FNDA:3,_ZNK4xlnt9worksheet11has_drawingEv
FNDA:0,_ZNK4xlnt9worksheetneEDn
FNDA:17,_ZN4xlnt9worksheet31register_calc_chain_in_manifestEv
FNDA:17,_ZNK4xlnt9worksheet10row_heightEj
FNDA:0,_ZN4xlnt9worksheet20page_break_at_columnENS_8column_tE
FNDA:56,_ZNK4xlnt9worksheet15page_break_rowsEv
FNDA:57,_ZNK4xlnt9worksheet23highest_column_or_propsEv
FNDA:62,_ZNK4xlnt9worksheet14highest_columnEv
FNDA:1,_ZNK4xlnt9worksheet5rangeERKNS_15range_referenceE
FNDA:2,_ZN4xlnt9worksheet10print_areaERKNSt7__cxx1112basic_stringIcSt11char_traitsIcESaIcEEE
FNDA:2,_ZN4xlnt9worksheet14insert_columnsENS_8column_tEj
FNDA:2,_ZN4xlnt9worksheet11auto_filterERKNS_15range_referenceE
FNDA:10,_ZNK4xlnt9worksheet16print_title_rowsEv
FNDA:4425,_ZN4xlnt9worksheetC2ERKS0_
FNDA:6,_ZN4xlnt9worksheetC2Ev
FNDA:25,_ZN4xlnt9worksheet10page_setupERKNS_10page_setupE
FNDA:56,_ZNK4xlnt9worksheet17format_propertiesEv
FNDA:2,_ZN4xlnt9worksheet14delete_columnsENS_8column_tEj
FNDA:1,_ZNK4xlnt9worksheet5rangeERKNSt7__cxx1112basic_stringIcSt11char_traitsIcESaIcEEE
FNDA:23,_ZN4xlnt9worksheet4cellENS_8column_tEj
FNDA:2,_ZNK4xlnt9worksheet11active_cellEv
FNDA:115,_ZNK4xlnt9worksheet15has_auto_filterEv
FNDA:2,_ZN4xlnt9worksheet6parentERNS_8workbookE
FNDA:1400,_ZN4xlnt9worksheet14row_propertiesEj
FNDA:4,_ZNK4xlnt9worksheet10print_areaEv
FNDA:0,_ZN4xlnt9worksheet11sheet_stateENS_11sheet_stateE
FNDA:67,_ZNK4xlnt9worksheet13merged_rangesEv
FNDA:0,_ZNK4xlnt9worksheet11named_rangeERKNSt7__cxx1112basic_stringIcSt11char_traitsIcESaIcEEE
FNDA:3,_ZN4xlnt9worksheet5beginEv
FNDA:57,_ZNK4xlnt9worksheet22lowest_column_or_propsEv
FNDA:0,_ZNK4xlnt9worksheetixERKNS_14cell_referenceE
FNDA:3,_ZNK4xlnt9worksheet11auto_filterEv
FNDA:2091,_ZNK4xlnt9worksheet7compareERKS0_b
FNDA:0,_ZN4xlnt9worksheet16clear_print_areaEv
FNDA:0,_ZNK4xlnt9worksheet4cellENS_8column_tEj
FNDA:2,_ZNK4xlnt9worksheet3endEv
FNDA:0,_ZN4xlnt9worksheet17page_break_at_rowEj
FNDA:0,_ZNK4xlnt9worksheet8next_rowEv
FNDA:2,_ZN4xlnt9worksheet18remove_named_rangeERKNSt7__cxx1112basic_stringIcSt11char_traitsIcESaIcEEE
FNDA:0,_ZNK4xlnt9worksheet17column_propertiesENS_8column_tE
FNDA:1201,_ZNK4xlnt9worksheet5titleB5cxx11Ev
FNDA:244,_ZNK4xlnt9worksheet14has_page_setupEv
FNDA:57,_ZNK4xlnt9worksheet17has_header_footerEv
FNDA:1,_ZN4xlnt9worksheet15garbage_collectEv
FNDA:3008,_ZNK4xlnt9worksheet18has_row_propertiesEj
FNDA:11052,_ZN4xlnt9worksheet8workbookEv
FNDA:35,_ZNK4xlnt9worksheet12column_widthENS_8column_tE
FNDA:71,_ZNK4xlnt9worksheet8has_viewEv
FNDA:1,_ZNK4xlnt9worksheet9point_posEii
FNDA:43619,_ZN4xlnt9worksheet21add_column_propertiesENS_8column_tERKNS_17column_propertiesE
FNDA:21,_ZNK4xlnt9worksheet13header_footerEv
FNDA:1601,_ZNK4xlnt9worksheet21has_column_propertiesENS_8column_tE
FNDA:0,_ZNK4xlnt9worksheeteqEDn
FNDA:301,_ZNK4xlnt9worksheet12page_marginsEv
FNDA:60,_ZNK4xlnt9worksheet15has_named_rangeERKNSt7__cxx1112basic_stringIcSt11char_traitsIcESaIcEEE
FNDA:13483,_ZN4xlnt9worksheetC2EPNS_6detail14worksheet_implE
FNDA:57,_ZNK4xlnt9worksheet19lowest_row_or_propsEv
FNDA:14,_ZNK4xlnt9worksheet14row_propertiesEj
FNDA:40,_ZN4xlnt9worksheet5rangeERKNS_15range_referenceE
FNDA:18,_ZN4xlnt9worksheet24garbage_collect_formulaeEv
FNDA:68,_ZNK4xlnt9worksheet4viewEm
FNDA:85,_ZNK4xlnt9worksheet10lowest_rowEv
FNDA:4,_ZNK4xlnt9worksheet19phonetic_propertiesEv
FNDA:18,_ZN4xlnt9worksheet13header_footerERKNS_13header_footerE
FNDA:0,_ZNK4xlnt9worksheet8is_emptyEv
FNDA:16,_ZN4xlnt9worksheet7columnsEb
FNDA:36,_ZNK4xlnt9worksheet4cellERKNS_14cell_referenceE
FNDA:53,_ZNK4xlnt9worksheet22referring_relationshipEv
FNDA:23449,_ZN4xlnt9worksheet4cellERKNS_14cell_referenceE
FNDA:109,_ZN4xlnt9worksheetixERKNS_14cell_referenceE
FNDA:57,_ZNK4xlnt9worksheet16has_page_marginsEv
FNDA:3,_ZN4xlnt9worksheet3endEv
FNDA:2,_ZN4xlnt9worksheet13unmerge_cellsERKNS_15range_referenceE
FNDA:59,_ZNK4xlnt9worksheet14has_print_areaEv
FNDA:1,_ZN4xlnt9worksheet7reserveEm
FNDA:2,_ZNK4xlnt9worksheet4cendEv
FNDA:0,_ZN4xlnt9worksheet11auto_filterERKNS_5rangeE
FNDA:7,_ZN4xlnt9worksheet10clear_cellERKNS_14cell_referenceE
FNDA:2,_ZN4xlnt9worksheet13unmerge_cellsERKNSt7__cxx1112basic_stringIcSt11char_traitsIcESaIcEEE
FNDA:1,_ZN4xlnt9worksheet18conditional_formatERKNS_15range_referenceERKNS_9conditionE
FNDA:2,_ZNK4xlnt9worksheet6cbeginEv
FNDA:268,_ZNK4xlnt9worksheet2idEv
FNDA:2,_ZN4xlnt9worksheet16print_title_colsENS_8column_tES1_
FNDA:2,_ZN4xlnt9worksheet11delete_rowsEjj
FNDA:251,_ZN4xlnt9worksheet8add_viewERKNS_10sheet_viewE
FNDA:3,_ZN4xlnt9worksheet11insert_rowsEjj
FNDA:0,_ZN4xlnt9worksheet2idEm
FNDA:2,_ZN4xlnt9worksheet12freeze_panesENS_4cellE
FNDA:14336,_ZNK4xlnt9worksheet8has_cellERKNS_14cell_referenceE
FNDA:0,_ZN4xlnt9worksheet18clear_print_titlesEv
FNDA:6,_ZN4xlnt9worksheetaSERKS0_
FNDA:61,_ZNK4xlnt9worksheet13lowest_columnEv
FNDA:1,_ZN4xlnt9worksheet9clear_rowEj
FNDA:2089,_ZNK4xlnt9worksheeteqERKS0_
FNDA:6,_ZN4xlnt9worksheet18create_named_rangeERKNSt7__cxx1112basic_stringIcSt11char_traitsIcESaIcEEES8_
FNDA:321,_ZNK4xlnt9worksheet8workbookEv
FNDA:48,_ZZN4xlnt9worksheet10move_cellsEjjNS_12row_or_col_tEbENKUlRNS_14cell_referenceEE_clES3_
FNDA:2,_ZNK4xlnt9worksheet5beginEv
FNDA:0,_ZN4xlnt9worksheet17clear_page_breaksEv
FNDA:1354,_ZN4xlnt9worksheet17column_propertiesENS_8column_tE
FNDA:14,_ZN4xlnt9worksheet18add_row_propertiesEjRKNS_14row_propertiesE
FNDA:41,_ZN4xlnt9worksheet4rowsEb
FNDA:2,_ZNK4xlnt9worksheet7columnsEb
FNDA:1,_ZN4xlnt9worksheet11auto_filterERKNSt7__cxx1112basic_stringIcSt11char_traitsIcESaIcEEE
FNDA:59,_ZNK4xlnt9worksheet16has_print_titlesEv
FNDA:10,_ZNK4xlnt9worksheet16print_title_colsEv
FNDA:2,_ZNK4xlnt9worksheet12frozen_panesEv
FNDA:12,_ZN4xlnt9worksheet11merge_cellsERKNS_15range_referenceE
FNDA:1,_ZN4xlnt9worksheet11active_cellERKNS_14cell_referenceE
FNDA:353,_ZN4xlnt9worksheet12page_marginsERKNS_12page_marginsE
FNDA:0,_ZN4xlnt9worksheet19phonetic_propertiesERKNS_11phonetic_prE
FNDA:12,_ZN4xlnt9worksheet18create_named_rangeERKNSt7__cxx1112basic_stringIcSt11char_traitsIcESaIcEEERKNS_15range_referenceE
FNDA:57,_ZNK4xlnt9worksheet20highest_row_or_propsEv
FNDA:8,_ZNK4xlnt9worksheet11sheet_stateEv
FNDA:4,_ZNK4xlnt9worksheet16has_frozen_panesEv
FNDA:51,_ZNK4xlnt9worksheet4pathEv
FNDA:3,_ZNK4xlnt9worksheet15has_active_cellEv
FNDA:10,_ZN4xlnt9worksheet11merge_cellsERKNSt7__cxx1112basic_stringIcSt11char_traitsIcESaIcEEE
FNDA:9,_ZN4xlnt9worksheet11named_rangeERKNSt7__cxx1112basic_stringIcSt11char_traitsIcESaIcEEE
FNDA:91,_ZNK4xlnt9worksheet11highest_rowEv
FNDA:3,_ZN4xlnt9worksheet17format_propertiesERKNS_23sheet_format_propertiesE
FNDA:37,_ZN4xlnt9worksheet5titleERKNSt7__cxx1112basic_stringIcSt11char_traitsIcESaIcEEE
FNF:136
FNH:118
DA:57,52
DA:59,52
DA:66,6
DA:67,6
DA:69,6
DA:71,13483
DA:72,13483
DA:74,13483
DA:76,4425
DA:77,4425
DA:79,4425
DA:81,4
DA:83,8
DA:84,8
DA:85,4
DA:88,6
DA:90,6
DA:91,4
DA:93,12
DA:97,12
DA:101,4
DA:103,2
DA:105,4
DA:106,10
DA:109,8
DA:111,10
DA:112,10
DA:114,10
DA:115,10
DA:117,109
DA:119,109
DA:122,67
DA:124,67
DA:127,57
DA:129,57
DA:132,244
DA:134,244
DA:137,301
DA:139,301
DA:142,353
DA:144,353
DA:145,353
DA:147,1
DA:149,1
DA:150,1
DA:152,2
DA:154,2
DA:155,2
DA:157,0
DA:159,0
DA:160,0
DA:162,3
DA:164,3
DA:167,115
DA:169,115
DA:172,0
DA:174,0
DA:175,0
DA:177,25
DA:179,25
DA:180,25
DA:182,71
DA:184,71
DA:186,0
DA:189,71
DA:192,11052
DA:194,11052
DA:197,321
DA:199,321
DA:202,1
DA:204,1
DA:206,2
DA:208,1
DA:210,0
DA:214,1
DA:217,1
DA:219,0
DA:221,0
DA:222,0
DA:224,268
DA:226,268
DA:229,1201
DA:231,1201
DA:234,37
DA:237,37
DA:239,6
DA:242,31
DA:244,2
DA:247,28
DA:249,7
DA:253,42
DA:254,42
DA:255,21
DA:257,2
DA:261,19
DA:262,19
DA:264,19
DA:267,2
DA:269,2
DA:271,0
DA:274,2
DA:277,2
DA:279,2
DA:280,2
DA:282,8
DA:284,8
DA:286,1
DA:287,1
DA:289,7
DA:291,0
DA:294,7
DA:295,7
DA:297,7
DA:300,7
DA:301,7
DA:303,7
DA:304,7
DA:306,1
DA:307,1
DA:308,1
DA:310,6
DA:312,1
DA:313,1
DA:314,1
DA:318,5
DA:319,5
DA:320,5
DA:321,5
DA:322,5
DA:323,5
DA:327,2
DA:329,2
DA:331,2
DA:333,2
DA:334,2
DA:337,1
DA:339,1
DA:341,0
DA:344,1
DA:346,1
DA:348,1
DA:352,0
DA:354,1
DA:356,3
DA:358,3
DA:359,3
DA:360,3
DA:361,2
DA:363,2
DA:364,2
DA:366,2
DA:368,2
DA:370,0
DA:373,2
DA:375,2
DA:377,0
DA:380,2
DA:383,23449
DA:385,23449
DA:386,23449
DA:388,11365
DA:389,11365
DA:390,11365
DA:391,11365
DA:393,11365
DA:394,11365
DA:395,23449
DA:398,36
DA:400,36
DA:403,23
DA:405,23
DA:408,0
DA:410,0
DA:413,14336
DA:415,14336
DA:416,14336
DA:419,3008
DA:421,3008
DA:424,9
DA:426,9
DA:428,1
DA:431,8
DA:433,1
DA:436,7
DA:439,0
DA:441,0
DA:443,0
DA:446,0
DA:448,0
DA:451,0
DA:454,61
DA:456,61
DA:458,20
DA:461,41
DA:463,11263
DA:465,11222
DA:468,41
DA:471,57
DA:473,57
DA:475,57
DA:477,1
DA:480,1391
DA:482,1334
DA:485,57
DA:488,85
DA:490,85
DA:492,34
DA:495,51
DA:497,21743
DA:499,21692
DA:502,51
DA:505,57
DA:507,57
DA:509,57
DA:511,1
DA:514,1341
DA:516,1284
DA:519,57
DA:522,91
DA:524,91
DA:526,22341
DA:528,22250
DA:531,91
DA:534,57
DA:536,57
DA:538,57
DA:540,1
DA:543,1341
DA:545,1284
DA:548,57
DA:551,62
DA:553,62
DA:555,11285
DA:557,11223
DA:560,62
DA:563,57
DA:565,57
DA:567,57
DA:569,1
DA:572,1391
DA:574,1334
DA:577,57
DA:580,175
DA:586,175
DA:589,29
DA:594,146
DA:595,146
DA:596,146
DA:598,2841
DA:600,2740
DA:601,2734
DA:603,2740
DA:606,146
DA:609,0
DA:612,146
DA:613,146
DA:614,146
DA:615,146
DA:616,23620
DA:618,23474
DA:619,23429
DA:620,23429
DA:622,23474
DA:623,23474
DA:625,146
DA:628,22
DA:630,22
DA:632,3
DA:635,19
DA:638,1
DA:640,1
DA:642,0
DA:645,1
DA:648,40
DA:650,40
DA:653,1
DA:655,1
DA:658,10
DA:660,10
DA:661,10
DA:663,2
DA:665,2
DA:666,1
DA:668,12
DA:670,12
DA:671,12
DA:673,154
DA:675,831
DA:677,760
DA:679,760
DA:681,748
DA:683,1
DA:687,747
DA:691,760
DA:693,12
DA:694,12
DA:696,2
DA:698,2
DA:700,2
DA:702,1
DA:705,1
DA:707,9
DA:709,36
DA:711,16
DA:713,1
DA:714,1
DA:716,0
DA:718,0
DA:720,0
DA:722,0
DA:725,0
DA:728,41
DA:730,41
DA:733,6
DA:735,6
DA:738,16
DA:740,16
DA:743,2
DA:745,2
DA:764,7
DA:766,7
DA:768,7
DA:770,1
DA:772,141
DA:774,140
DA:776,4
DA:780,136
DA:783,1
DA:785,1
DA:787,3
DA:789,3
DA:790,2
DA:792,2
DA:794,2
DA:795,2
DA:797,2
DA:799,2
DA:800,2
DA:802,2
DA:804,2
DA:805,2
DA:807,9
DA:809,9
DA:811,0
DA:814,9
DA:816,3
DA:819,8
DA:821,8
DA:822,96
DA:825,88
DA:827,44
DA:828,44
DA:829,44
DA:830,44
DA:831,44
DA:832,44
DA:833,0
DA:834,0
DA:837,88
DA:839,40
DA:840,40
DA:842,24
DA:844,16
DA:846,16
DA:849,40
DA:850,40
DA:851,40
DA:852,48
DA:854,16
DA:858,32
DA:862,48
DA:864,40
DA:867,8
DA:869,4
DA:871,4
DA:872,10
DA:874,6
DA:875,6
DA:877,2
DA:878,2
DA:879,2
DA:881,4
DA:883,2
DA:887,2
DA:891,6
DA:893,2
DA:895,4
DA:896,4
DA:898,4
DA:900,4
DA:901,10
DA:903,6
DA:904,6
DA:906,2
DA:907,2
DA:908,2
DA:910,4
DA:912,2
DA:916,2
DA:920,6
DA:922,2
DA:924,4
DA:927,48
DA:928,48
DA:929,48
DA:931,28
DA:932,28
DA:934,18
DA:936,10
DA:938,10
DA:941,48
DA:943,32
DA:945,24
DA:946,24
DA:948,24
DA:949,24
DA:951,24
DA:952,24
DA:954,16
DA:957,8
DA:959,2089
DA:961,2089
DA:964,2091
DA:966,2091
DA:968,2089
DA:972,2
DA:976,1
DA:978,1
DA:981,0
DA:983,0
DA:986,0
DA:988,0
DA:991,6
DA:993,6
DA:994,6
DA:996,0
DA:998,0
DA:1001,60
DA:1003,60
DA:1006,2
DA:1008,2
DA:1010,1
DA:1013,1
DA:1014,1
DA:1016,1
DA:1018,1
DA:1019,1
DA:1021,21
DA:1023,21
DA:1026,1
DA:1028,1
DA:1029,1
DA:1031,1
DA:1032,1
DA:1034,2
DA:1036,1
DA:1039,2
DA:1041,1
DA:1044,1
DA:1047,0
DA:1049,0
DA:1050,0
DA:1052,8
DA:1054,8
DA:1057,43619
DA:1059,43619
DA:1060,43619
DA:1062,1601
DA:1064,1601
DA:1067,1354
DA:1069,1354
DA:1072,0
DA:1074,0
DA:1077,1400
DA:1079,1400
DA:1082,14
DA:1084,14
DA:1087,14
DA:1089,14
DA:1090,14
DA:1092,3
DA:1094,3
DA:1097,3
DA:1099,3
DA:1102,2
DA:1104,2
DA:1107,2
DA:1109,2
DA:1112,2
DA:1114,2
DA:1117,2
DA:1119,2
DA:1122,2
DA:1124,2
DA:1125,2
DA:1127,10
DA:1129,10
DA:1132,2
DA:1134,2
DA:1135,2
DA:1137,10
DA:1139,10
DA:1142,59
DA:1144,59
DA:1147,0
DA:1149,0
DA:1150,0
DA:1151,0
DA:1153,2
DA:1155,2
DA:1156,2
DA:1158,4
DA:1160,4
DA:1163,59
DA:1165,59
DA:1168,0
DA:1170,0
DA:1173,71
DA:1175,71
DA:1178,68
DA:1180,68
DA:1183,251
DA:1185,251
DA:1186,251
DA:1188,34
DA:1190,34
DA:1191,34
DA:1193,17
DA:1195,17
DA:1196,17
DA:1198,56
DA:1200,56
DA:1203,4
DA:1205,4
DA:1208,0
DA:1210,0
DA:1211,0
DA:1213,57
DA:1215,57
DA:1218,18
DA:1220,18
DA:1221,18
DA:1223,0
DA:1225,0
DA:1226,0
DA:1227,0
DA:1229,0
DA:1231,0
DA:1232,0
DA:1234,56
DA:1236,56
DA:1239,0
DA:1241,0
DA:1242,0
DA:1244,56
DA:1246,56
DA:1249,35
DA:1253,35
DA:1255,0
DA:1259,35
DA:1263,17
DA:1267,17
DA:1269,0
DA:1273,17
DA:1277,18
DA:1279,18
DA:1280,18
DA:1282,2
DA:1284,2
DA:1285,2
DA:1287,1
DA:1289,1
DA:1292,51
DA:1294,51
DA:1295,102
DA:1296,51
DA:1298,53
DA:1300,53
DA:1301,53
DA:1302,106
DA:1303,53
DA:1304,106
DA:1305,53
DA:1306,53
DA:1307,53
DA:1309,56
DA:1311,56
DA:1314,3
DA:1316,3
DA:1317,3
DA:1319,3
DA:1321,3
DA:1324,0
DA:1326,0
LF:594
LH:525
end_of_record
